---
triple:          'arm64-apple-darwin'
binary-path:     '/Users/towella/Documents/programming/C++/testcpp/source/main'
relocations:
  - { offsetInCU: 0x5C, offset: 0x5C, size: 0x8, addend: 0x0, symName: __ZNSt3__1L19piecewise_constructE, symObjAddr: 0x20415, symBinAddr: 0x1000229A5, symSize: 0x0 }
  - { offsetInCU: 0x16125, offset: 0x16125, size: 0x8, addend: 0x0, symName: __ZNSt3__124__put_character_sequenceB7v160006IcNS_11char_traitsIcEEEERNS_13basic_ostreamIT_T0_EES7_PKS4_m, symObjAddr: 0x12CF0, symBinAddr: 0x1000149E0, symSize: 0x1EC }
  - { offsetInCU: 0x1C9C6, offset: 0x1C9C6, size: 0x8, addend: 0x0, symName: __ZNSt3__119__debug_db_insert_cB7v160006INS_13unordered_mapIiP4RoomNS_4hashIiEENS_8equal_toIiEENS_9allocatorINS_4pairIKiS3_EEEEEEEEvPT_, symObjAddr: 0xCD0, symBinAddr: 0x1000029C0, symSize: 0x10 }
  - { offsetInCU: 0x1C9F7, offset: 0x1C9F7, size: 0x8, addend: 0x0, symName: __ZNSt3__119__debug_db_insert_cB7v160006INS_6vectorI4RoomNS_9allocatorIS2_EEEEEEvPT_, symObjAddr: 0x1374, symBinAddr: 0x100003064, symSize: 0x10 }
  - { offsetInCU: 0x1CA28, offset: 0x1CA28, size: 0x8, addend: 0x0, symName: __ZNSt3__119__debug_db_insert_cB7v160006INS_6vectorINS1_IcNS_9allocatorIcEEEENS2_IS4_EEEEEEvPT_, symObjAddr: 0x14E0, symBinAddr: 0x1000031D0, symSize: 0x10 }
  - { offsetInCU: 0x1CA59, offset: 0x1CA59, size: 0x8, addend: 0x0, symName: __ZNSt3__119__debug_db_insert_cB7v160006INS_6vectorI5PointNS_9allocatorIS2_EEEEEEvPT_, symObjAddr: 0x164C, symBinAddr: 0x10000333C, symSize: 0x10 }
  - { offsetInCU: 0x1CA8A, offset: 0x1CA8A, size: 0x8, addend: 0x0, symName: __ZNSt3__119__debug_db_insert_cB7v160006INS_13unordered_mapI5Pointc11PointHasherNS_8equal_toIS2_EENS_9allocatorINS_4pairIKS2_cEEEEEEEEvPT_, symObjAddr: 0x178C, symBinAddr: 0x10000347C, symSize: 0x10 }
  - { offsetInCU: 0x1CABB, offset: 0x1CABB, size: 0x8, addend: 0x0, symName: __ZNSt3__1neB7v160006IP5PointEEbRKNS_11__wrap_iterIT_EES7_, symObjAddr: 0x2BE4, symBinAddr: 0x1000048D4, symSize: 0x34 }
  - { offsetInCU: 0x1CAFE, offset: 0x1CAFE, size: 0x8, addend: 0x0, symName: __ZNSt3__125__debug_db_invalidate_allB7v160006INS_6vectorINS1_IcNS_9allocatorIcEEEENS2_IS4_EEEEEEvPT_, symObjAddr: 0x31F8, symBinAddr: 0x100004EE8, symSize: 0x10 }
  - { offsetInCU: 0x1CB2F, offset: 0x1CB2F, size: 0x8, addend: 0x0, symName: __ZNSt3__112__to_addressB7v160006INS_6vectorIcNS_9allocatorIcEEEEEEPT_S6_, symObjAddr: 0x32E8, symBinAddr: 0x100004FD8, symSize: 0x14 }
  - { offsetInCU: 0x1CB64, offset: 0x1CB64, size: 0x8, addend: 0x0, symName: __ZNSt3__125__debug_db_invalidate_allB7v160006INS_6vectorI5PointNS_9allocatorIS2_EEEEEEvPT_, symObjAddr: 0x3548, symBinAddr: 0x100005238, symSize: 0x10 }
  - { offsetInCU: 0x1CB95, offset: 0x1CB95, size: 0x8, addend: 0x0, symName: __ZNSt3__112__to_addressB7v160006I5PointEEPT_S3_, symObjAddr: 0x3638, symBinAddr: 0x100005328, symSize: 0x14 }
  - { offsetInCU: 0x1CBCA, offset: 0x1CBCA, size: 0x8, addend: 0x0, symName: __ZNSt3__119__debug_db_insert_cB7v160006INS_6vectorIcNS_9allocatorIcEEEEEEvPT_, symObjAddr: 0x3BD8, symBinAddr: 0x1000058C8, symSize: 0x10 }
  - { offsetInCU: 0x1CBFB, offset: 0x1CBFB, size: 0x8, addend: 0x0, symName: __ZNSt3__115__debug_db_swapB7v160006INS_6vectorIcNS_9allocatorIcEEEEEEvPT_S6_, symObjAddr: 0x3BE8, symBinAddr: 0x1000058D8, symSize: 0x14 }
  - { offsetInCU: 0x1CC3A, offset: 0x1CC3A, size: 0x8, addend: 0x0, symName: __ZNSt3__13maxB7v160006ImEERKT_S3_S3_, symObjAddr: 0x3FE4, symBinAddr: 0x100005CD4, symSize: 0x2C }
  - { offsetInCU: 0x1CC7D, offset: 0x1CC7D, size: 0x8, addend: 0x0, symName: __ZNSt3__13minB7v160006ImEERKT_S3_S3_, symObjAddr: 0x4010, symBinAddr: 0x100005D00, symSize: 0x2C }
  - { offsetInCU: 0x1CEC1, offset: 0x1CEC1, size: 0x8, addend: 0x0, symName: __ZNSt3__13minB7v160006ImNS_6__lessImmEEEERKT_S5_S5_T0_, symObjAddr: 0x409C, symBinAddr: 0x100005D8C, symSize: 0x54 }
  - { offsetInCU: 0x1CF56, offset: 0x1CF56, size: 0x8, addend: 0x0, symName: __ZNSt3__120__throw_length_errorB7v160006EPKc, symObjAddr: 0x417C, symBinAddr: 0x100005E6C, symSize: 0x64 }
  - { offsetInCU: 0x1CF7E, offset: 0x1CF7E, size: 0x8, addend: 0x0, symName: __ZNSt3__13maxB7v160006ImNS_6__lessImmEEEERKT_S5_S5_T0_, symObjAddr: 0x4260, symBinAddr: 0x100005F50, symSize: 0x54 }
  - { offsetInCU: 0x1CFD8, offset: 0x1CFD8, size: 0x8, addend: 0x0, symName: __ZNSt3__119__allocate_at_leastB7v160006INS_9allocatorINS_6vectorIcNS1_IcEEEEEEEENS_19__allocation_resultINS_16allocator_traitsIT_E7pointerEEERS8_m, symObjAddr: 0x43D0, symBinAddr: 0x1000060C0, symSize: 0x40 }
  - { offsetInCU: 0x1D01B, offset: 0x1D01B, size: 0x8, addend: 0x0, symName: __ZNSt3__117__libcpp_allocateB7v160006Emm, symObjAddr: 0x4558, symBinAddr: 0x100006248, symSize: 0x28 }
  - { offsetInCU: 0x1D058, offset: 0x1D058, size: 0x8, addend: 0x0, symName: __ZNSt3__121__libcpp_operator_newB7v160006IJmEEEPvDpT_, symObjAddr: 0x4580, symBinAddr: 0x100006270, symSize: 0x24 }
  - { offsetInCU: 0x1D091, offset: 0x1D091, size: 0x8, addend: 0x0, symName: __ZNSt3__142__uninitialized_allocator_move_if_noexceptB7v160006INS_9allocatorINS_6vectorIcNS1_IcEEEEEENS_16reverse_iteratorIPS4_EES8_S8_EET2_RT_T0_T1_S9_, symObjAddr: 0x46DC, symBinAddr: 0x1000063CC, symSize: 0x12C }
  - { offsetInCU: 0x1D131, offset: 0x1D131, size: 0x8, addend: 0x0, symName: __ZNSt3__14swapB7v160006IPNS_6vectorIcNS_9allocatorIcEEEEEENS_9enable_ifIXaasr21is_move_constructibleIT_EE5valuesr18is_move_assignableIS7_EE5valueEvE4typeERS7_SA_, symObjAddr: 0x4854, symBinAddr: 0x100006544, symSize: 0x3C }
  - { offsetInCU: 0x1D182, offset: 0x1D182, size: 0x8, addend: 0x0, symName: __ZNSt3__122__make_exception_guardB7v160006INS_29_AllocatorDestroyRangeReverseINS_9allocatorINS_6vectorIcNS2_IcEEEEEENS_16reverse_iteratorIPS5_EEEEEENS_28__exception_guard_exceptionsIT_EESC_, symObjAddr: 0x4958, symBinAddr: 0x100006648, symSize: 0x4C }
  - { offsetInCU: 0x1D1B8, offset: 0x1D1B8, size: 0x8, addend: 0x0, symName: __ZNSt3__1neB7v160006IPNS_6vectorIcNS_9allocatorIcEEEES5_EEbRKNS_16reverse_iteratorIT_EERKNS6_IT0_EE, symObjAddr: 0x49E8, symBinAddr: 0x1000066D8, symSize: 0x48 }
  - { offsetInCU: 0x1D204, offset: 0x1D204, size: 0x8, addend: 0x0, symName: __ZNSt3__112__to_addressB7v160006INS_16reverse_iteratorIPNS_6vectorIcNS_9allocatorIcEEEEEEvEENS_5decayIDTclsr19__to_address_helperIT_EE6__callclsr3stdE7declvalIRKS9_EEEEE4typeESB_, symObjAddr: 0x4A30, symBinAddr: 0x100006720, symSize: 0x24 }
  - { offsetInCU: 0x1D263, offset: 0x1D263, size: 0x8, addend: 0x0, symName: __ZNSt3__119__allocator_destroyB7v160006INS_9allocatorINS_6vectorIcNS1_IcEEEEEENS_16reverse_iteratorINS6_IPS4_EEEES9_EEvRT_T0_T1_, symObjAddr: 0x4CE0, symBinAddr: 0x1000069D0, symSize: 0x70 }
  - { offsetInCU: 0x1D2C8, offset: 0x1D2C8, size: 0x8, addend: 0x0, symName: __ZNSt3__1neB7v160006INS_16reverse_iteratorIPNS_6vectorIcNS_9allocatorIcEEEEEES7_EEbRKNS1_IT_EERKNS1_IT0_EE, symObjAddr: 0x4D8C, symBinAddr: 0x100006A7C, symSize: 0x60 }
  - { offsetInCU: 0x1D314, offset: 0x1D314, size: 0x8, addend: 0x0, symName: __ZNSt3__112__to_addressB7v160006INS_16reverse_iteratorINS1_IPNS_6vectorIcNS_9allocatorIcEEEEEEEEvEENS_5decayIDTclsr19__to_address_helperIT_EE6__callclsr3stdE7declvalIRKSA_EEEEE4typeESC_, symObjAddr: 0x4DEC, symBinAddr: 0x100006ADC, symSize: 0x24 }
  - { offsetInCU: 0x1D373, offset: 0x1D373, size: 0x8, addend: 0x0, symName: __ZNSt3__119__libcpp_deallocateB7v160006EPvmm, symObjAddr: 0x5180, symBinAddr: 0x100006E70, symSize: 0x30 }
  - { offsetInCU: 0x1D3BB, offset: 0x1D3BB, size: 0x8, addend: 0x0, symName: __ZNSt3__127__do_deallocate_handle_sizeB7v160006IJEEEvPvmDpT_, symObjAddr: 0x51B0, symBinAddr: 0x100006EA0, symSize: 0x28 }
  - { offsetInCU: 0x1D3F9, offset: 0x1D3F9, size: 0x8, addend: 0x0, symName: __ZNSt3__124__libcpp_operator_deleteB7v160006IJPvEEEvDpT_, symObjAddr: 0x51D8, symBinAddr: 0x100006EC8, symSize: 0x24 }
  - { offsetInCU: 0x1D42E, offset: 0x1D42E, size: 0x8, addend: 0x0, symName: __ZNSt3__118__debug_db_erase_cB7v160006INS_6vectorIcNS_9allocatorIcEEEEEEvPT_, symObjAddr: 0x5570, symBinAddr: 0x100007260, symSize: 0x10 }
  - { offsetInCU: 0x1D45F, offset: 0x1D45F, size: 0x8, addend: 0x0, symName: __ZNSt3__112__to_addressB7v160006IcEEPT_S2_, symObjAddr: 0x565C, symBinAddr: 0x10000734C, symSize: 0x14 }
  - { offsetInCU: 0x1D494, offset: 0x1D494, size: 0x8, addend: 0x0, symName: __ZNSt3__119__allocate_at_leastB7v160006INS_9allocatorIcEEEENS_19__allocation_resultINS_16allocator_traitsIT_E7pointerEEERS5_m, symObjAddr: 0x5ECC, symBinAddr: 0x100007BBC, symSize: 0x40 }
  - { offsetInCU: 0x1D4D7, offset: 0x1D4D7, size: 0x8, addend: 0x0, symName: __ZNSt3__142__uninitialized_allocator_move_if_noexceptB7v160006INS_9allocatorIcEENS_16reverse_iteratorIPcEES5_cvEET1_RT_T0_S9_S6_, symObjAddr: 0x6080, symBinAddr: 0x100007D70, symSize: 0x78 }
  - { offsetInCU: 0x1D554, offset: 0x1D554, size: 0x8, addend: 0x0, symName: __ZNSt3__14swapB7v160006IPcEENS_9enable_ifIXaasr21is_move_constructibleIT_EE5valuesr18is_move_assignableIS3_EE5valueEvE4typeERS3_S6_, symObjAddr: 0x6144, symBinAddr: 0x100007E34, symSize: 0x3C }
  - { offsetInCU: 0x1D5A5, offset: 0x1D5A5, size: 0x8, addend: 0x0, symName: __ZNSt3__125__debug_db_invalidate_allB7v160006INS_6vectorIcNS_9allocatorIcEEEEEEvPT_, symObjAddr: 0x622C, symBinAddr: 0x100007F1C, symSize: 0x10 }
  - { offsetInCU: 0x1D5D6, offset: 0x1D5D6, size: 0x8, addend: 0x0, symName: __ZNSt3__14moveB7v160006INS_16reverse_iteratorIPcEES3_EET0_T_S5_S4_, symObjAddr: 0x623C, symBinAddr: 0x100007F2C, symSize: 0x78 }
  - { offsetInCU: 0x1D630, offset: 0x1D630, size: 0x8, addend: 0x0, symName: __ZNSt3__16__moveB7v160006INS_17_ClassicAlgPolicyENS_16reverse_iteratorIPcEES4_S4_EENS_4pairIT0_T2_EES6_T1_S7_, symObjAddr: 0x62B4, symBinAddr: 0x100007FA4, symSize: 0x64 }
  - { offsetInCU: 0x1D69C, offset: 0x1D69C, size: 0x8, addend: 0x0, symName: __ZNSt3__123__dispatch_copy_or_moveB7v160006INS_17_ClassicAlgPolicyENS_11__move_loopIS1_EENS_14__move_trivialENS_16reverse_iteratorIPcEES7_S7_EENS_4pairIT2_T4_EES9_T3_SA_, symObjAddr: 0x6318, symBinAddr: 0x100008008, symSize: 0x64 }
  - { offsetInCU: 0x1D71A, offset: 0x1D71A, size: 0x8, addend: 0x0, symName: __ZNSt3__121__unwrap_and_dispatchB7v160006INS_10__overloadINS_11__move_loopINS_17_ClassicAlgPolicyEEENS_14__move_trivialEEENS_16reverse_iteratorIPcEES9_S9_Li0EEENS_4pairIT0_T2_EESB_T1_SC_, symObjAddr: 0x637C, symBinAddr: 0x10000806C, symSize: 0x12C }
  - { offsetInCU: 0x1D7AA, offset: 0x1D7AA, size: 0x8, addend: 0x0, symName: __ZNSt3__114__unwrap_rangeB7v160006INS_16reverse_iteratorIPcEES3_EENS_4pairIT0_S5_EET_S7_, symObjAddr: 0x64A8, symBinAddr: 0x100008198, symSize: 0x84 }
  - { offsetInCU: 0x1D925, offset: 0x1D925, size: 0x8, addend: 0x0, symName: __ZNSt3__113__unwrap_iterB7v160006INS_16reverse_iteratorIPcEENS_18__unwrap_iter_implIS3_Lb0EEELi0EEEDTclsrT0_8__unwrapclsr3stdE7declvalIT_EEEES7_, symObjAddr: 0x65CC, symBinAddr: 0x1000082BC, symSize: 0x44 }
  - { offsetInCU: 0x1D969, offset: 0x1D969, size: 0x8, addend: 0x0, symName: __ZNSt3__19make_pairB7v160006INS_16reverse_iteratorIPcEES3_EENS_4pairINS_18__unwrap_ref_decayIT_E4typeENS5_IT0_E4typeEEEOS6_OS9_, symObjAddr: 0x6610, symBinAddr: 0x100008300, symSize: 0x38 }
  - { offsetInCU: 0x1D9B8, offset: 0x1D9B8, size: 0x8, addend: 0x0, symName: __ZNSt3__114__rewrap_rangeB7v160006INS_16reverse_iteratorIPcEES3_EET_S4_T0_, symObjAddr: 0x6648, symBinAddr: 0x100008338, symSize: 0x5C }
  - { offsetInCU: 0x1DA04, offset: 0x1DA04, size: 0x8, addend: 0x0, symName: __ZNSt3__113__rewrap_iterB7v160006INS_16reverse_iteratorIPcEES3_NS_18__unwrap_iter_implIS3_Lb0EEEEET_S6_T0_, symObjAddr: 0x66A4, symBinAddr: 0x100008394, symSize: 0x74 }
  - { offsetInCU: 0x1DA59, offset: 0x1DA59, size: 0x8, addend: 0x0, symName: __ZNSt3__1neB7v160006IPcS1_EEbRKNS_16reverse_iteratorIT_EERKNS2_IT0_EE, symObjAddr: 0x6718, symBinAddr: 0x100008408, symSize: 0x48 }
  - { offsetInCU: 0x1DB57, offset: 0x1DB57, size: 0x8, addend: 0x0, symName: __ZNSt3__122__make_exception_guardB7v160006INS_6vectorI5PointNS_9allocatorIS2_EEE16__destroy_vectorEEENS_28__exception_guard_exceptionsIT_EES8_, symObjAddr: 0x6CF8, symBinAddr: 0x1000089E8, symSize: 0x40 }
  - { offsetInCU: 0x1DB8C, offset: 0x1DB8C, size: 0x8, addend: 0x0, symName: __ZNSt3__119__allocate_at_leastB7v160006INS_9allocatorI5PointEEEENS_19__allocation_resultINS_16allocator_traitsIT_E7pointerEEERS6_m, symObjAddr: 0x7030, symBinAddr: 0x100008D20, symSize: 0x40 }
  - { offsetInCU: 0x1DBCF, offset: 0x1DBCF, size: 0x8, addend: 0x0, symName: __ZNSt3__130__uninitialized_allocator_copyB7v160006INS_9allocatorI5PointEEPKS2_S5_PS2_EET2_RT_T0_T1_S7_, symObjAddr: 0x72A8, symBinAddr: 0x100008F98, symSize: 0xF4 }
  - { offsetInCU: 0x1DC6D, offset: 0x1DC6D, size: 0x8, addend: 0x0, symName: __ZNSt3__122__make_exception_guardB7v160006INS_29_AllocatorDestroyRangeReverseINS_9allocatorI5PointEEPS3_EEEENS_28__exception_guard_exceptionsIT_EES8_, symObjAddr: 0x740C, symBinAddr: 0x1000090FC, symSize: 0x4C }
  - { offsetInCU: 0x1DCA3, offset: 0x1DCA3, size: 0x8, addend: 0x0, symName: __ZNSt3__119__allocator_destroyB7v160006INS_9allocatorI5PointEENS_16reverse_iteratorIPS2_EES6_EEvRT_T0_T1_, symObjAddr: 0x769C, symBinAddr: 0x10000938C, symSize: 0x70 }
  - { offsetInCU: 0x1DD06, offset: 0x1DD06, size: 0x8, addend: 0x0, symName: __ZNSt3__1neB7v160006IP5PointS2_EEbRKNS_16reverse_iteratorIT_EERKNS3_IT0_EE, symObjAddr: 0x7740, symBinAddr: 0x100009430, symSize: 0x48 }
  - { offsetInCU: 0x1DD52, offset: 0x1DD52, size: 0x8, addend: 0x0, symName: __ZNSt3__112__to_addressB7v160006INS_16reverse_iteratorIP5PointEEvEENS_5decayIDTclsr19__to_address_helperIT_EE6__callclsr3stdE7declvalIRKS6_EEEEE4typeES8_, symObjAddr: 0x7788, symBinAddr: 0x100009478, symSize: 0x24 }
  - { offsetInCU: 0x1DDB1, offset: 0x1DDB1, size: 0x8, addend: 0x0, symName: __ZNSt3__118__debug_db_erase_cB7v160006INS_6vectorI5PointNS_9allocatorIS2_EEEEEEvPT_, symObjAddr: 0x7A54, symBinAddr: 0x100009744, symSize: 0x10 }
  - { offsetInCU: 0x1DDE2, offset: 0x1DDE2, size: 0x8, addend: 0x0, symName: __ZNSt3__142__uninitialized_allocator_move_if_noexceptB7v160006INS_9allocatorI5PointEENS_16reverse_iteratorIPS2_EES6_S6_EET2_RT_T0_T1_S7_, symObjAddr: 0x810C, symBinAddr: 0x100009DFC, symSize: 0x11C }
  - { offsetInCU: 0x1DE82, offset: 0x1DE82, size: 0x8, addend: 0x0, symName: __ZNSt3__14swapB7v160006IP5PointEENS_9enable_ifIXaasr21is_move_constructibleIT_EE5valuesr18is_move_assignableIS4_EE5valueEvE4typeERS4_S7_, symObjAddr: 0x8228, symBinAddr: 0x100009F18, symSize: 0x3C }
  - { offsetInCU: 0x1DED3, offset: 0x1DED3, size: 0x8, addend: 0x0, symName: __ZNSt3__122__make_exception_guardB7v160006INS_29_AllocatorDestroyRangeReverseINS_9allocatorI5PointEENS_16reverse_iteratorIPS3_EEEEEENS_28__exception_guard_exceptionsIT_EESA_, symObjAddr: 0x8264, symBinAddr: 0x100009F54, symSize: 0x4C }
  - { offsetInCU: 0x1DF09, offset: 0x1DF09, size: 0x8, addend: 0x0, symName: __ZNSt3__119__allocator_destroyB7v160006INS_9allocatorI5PointEENS_16reverse_iteratorINS4_IPS2_EEEES7_EEvRT_T0_T1_, symObjAddr: 0x84DC, symBinAddr: 0x10000A1CC, symSize: 0x70 }
  - { offsetInCU: 0x1DF6E, offset: 0x1DF6E, size: 0x8, addend: 0x0, symName: __ZNSt3__1neB7v160006INS_16reverse_iteratorIP5PointEES4_EEbRKNS1_IT_EERKNS1_IT0_EE, symObjAddr: 0x8588, symBinAddr: 0x10000A278, symSize: 0x60 }
  - { offsetInCU: 0x1DFBA, offset: 0x1DFBA, size: 0x8, addend: 0x0, symName: __ZNSt3__112__to_addressB7v160006INS_16reverse_iteratorINS1_IP5PointEEEEvEENS_5decayIDTclsr19__to_address_helperIT_EE6__callclsr3stdE7declvalIRKS7_EEEEE4typeES9_, symObjAddr: 0x85E8, symBinAddr: 0x10000A2D8, symSize: 0x24 }
  - { offsetInCU: 0x1E019, offset: 0x1E019, size: 0x8, addend: 0x0, symName: __ZNSt3__1eqB7v160006IP5PointEEbRKNS_11__wrap_iterIT_EES7_, symObjAddr: 0x89BC, symBinAddr: 0x10000A6AC, symSize: 0x48 }
  - { offsetInCU: 0x1E093, offset: 0x1E093, size: 0x8, addend: 0x0, symName: __ZNSt3__116forward_as_tupleB7v160006IJRK5PointEEENS_5tupleIJDpOT_EEES7_, symObjAddr: 0x90B0, symBinAddr: 0x10000ADA0, symSize: 0x2C }
  - { offsetInCU: 0x1E0CC, offset: 0x1E0CC, size: 0x8, addend: 0x0, symName: __ZNSt3__116forward_as_tupleB7v160006IJEEENS_5tupleIJDpOT_EEES4_, symObjAddr: 0x90DC, symBinAddr: 0x10000ADCC, symSize: 0x4 }
  - { offsetInCU: 0x1E0F0, offset: 0x1E0F0, size: 0x8, addend: 0x0, symName: __ZNSt3__116__constrain_hashB7v160006Emm, symObjAddr: 0x91A0, symBinAddr: 0x10000AE90, symSize: 0x98 }
  - { offsetInCU: 0x1E12A, offset: 0x1E12A, size: 0x8, addend: 0x0, symName: __ZNSt3__116__is_hash_power2B7v160006Em, symObjAddr: 0x94E4, symBinAddr: 0x10000B1D4, symSize: 0x50 }
  - { offsetInCU: 0x1E1B2, offset: 0x1E1B2, size: 0x8, addend: 0x0, symName: __ZNSt3__13getB7v160006ILm0EJRK5PointEEERNS_13tuple_elementIXT_ENS_5tupleIJDpT0_EEEE4typeERS8_, symObjAddr: 0x9D74, symBinAddr: 0x10000BA64, symSize: 0x24 }
  - { offsetInCU: 0x1E1F5, offset: 0x1E1F5, size: 0x8, addend: 0x0, symName: __ZNSt3__116__next_hash_pow2B7v160006Em, symObjAddr: 0xA294, symBinAddr: 0x10000BF84, symSize: 0x6C }
  - { offsetInCU: 0x1E221, offset: 0x1E221, size: 0x8, addend: 0x0, symName: __ZNSt3__125__debug_db_invalidate_allB7v160006INS_12__hash_tableINS_17__hash_value_typeI5PointcEENS_22__unordered_map_hasherIS3_S4_11PointHasherNS_8equal_toIS3_EELb1EEENS_21__unordered_map_equalIS3_S4_S8_S6_Lb1EEENS_9allocatorIS4_EEEEEEvPT_, symObjAddr: 0xA300, symBinAddr: 0x10000BFF0, symSize: 0x10 }
  - { offsetInCU: 0x1E26E, offset: 0x1E26E, size: 0x8, addend: 0x0, symName: __ZNSt3__112__libcpp_clzB7v160006Em, symObjAddr: 0xA64C, symBinAddr: 0x10000C33C, symSize: 0x1C }
  - { offsetInCU: 0x1E2F1, offset: 0x1E2F1, size: 0x8, addend: 0x0, symName: __ZNSt3__122__make_exception_guardB7v160006INS_6vectorIcNS_9allocatorIcEEE16__destroy_vectorEEENS_28__exception_guard_exceptionsIT_EES7_, symObjAddr: 0xAB3C, symBinAddr: 0x10000C82C, symSize: 0x40 }
  - { offsetInCU: 0x1E326, offset: 0x1E326, size: 0x8, addend: 0x0, symName: __ZNSt3__130__uninitialized_allocator_copyB7v160006INS_9allocatorIcEEccLPv0EEEPT0_RT_PKS4_S9_S5_, symObjAddr: 0xADA4, symBinAddr: 0x10000CA94, symSize: 0x38 }
  - { offsetInCU: 0x1E39E, offset: 0x1E39E, size: 0x8, addend: 0x0, symName: __ZNSt3__14copyB7v160006IPKcPcEET0_T_S5_S4_, symObjAddr: 0xADDC, symBinAddr: 0x10000CACC, symSize: 0x40 }
  - { offsetInCU: 0x1E3F8, offset: 0x1E3F8, size: 0x8, addend: 0x0, symName: __ZNSt3__16__copyB7v160006INS_17_ClassicAlgPolicyEPKcS3_PcEENS_4pairIT0_T2_EES6_T1_S7_, symObjAddr: 0xAE1C, symBinAddr: 0x10000CB0C, symSize: 0x44 }
  - { offsetInCU: 0x1E464, offset: 0x1E464, size: 0x8, addend: 0x0, symName: __ZNSt3__123__dispatch_copy_or_moveB7v160006INS_17_ClassicAlgPolicyENS_11__copy_loopIS1_EENS_14__copy_trivialEPKcS6_PcEENS_4pairIT2_T4_EES9_T3_SA_, symObjAddr: 0xAE60, symBinAddr: 0x10000CB50, symSize: 0x44 }
  - { offsetInCU: 0x1E4E2, offset: 0x1E4E2, size: 0x8, addend: 0x0, symName: __ZNSt3__121__unwrap_and_dispatchB7v160006INS_10__overloadINS_11__copy_loopINS_17_ClassicAlgPolicyEEENS_14__copy_trivialEEEPKcS8_PcLi0EEENS_4pairIT0_T2_EESB_T1_SC_, symObjAddr: 0xAEA4, symBinAddr: 0x10000CB94, symSize: 0xB4 }
  - { offsetInCU: 0x1E570, offset: 0x1E570, size: 0x8, addend: 0x0, symName: __ZNSt3__114__unwrap_rangeB7v160006IPKcS2_EENS_4pairIT0_S4_EET_S6_, symObjAddr: 0xAF58, symBinAddr: 0x10000CC48, symSize: 0x60 }
  - { offsetInCU: 0x1E705, offset: 0x1E705, size: 0x8, addend: 0x0, symName: __ZNSt3__113__unwrap_iterB7v160006IPcNS_18__unwrap_iter_implIS1_Lb1EEELi0EEEDTclsrT0_8__unwrapclsr3stdE7declvalIT_EEEES5_, symObjAddr: 0xB000, symBinAddr: 0x10000CCF0, symSize: 0x24 }
  - { offsetInCU: 0x1E749, offset: 0x1E749, size: 0x8, addend: 0x0, symName: __ZNSt3__19make_pairB7v160006IPKcPcEENS_4pairINS_18__unwrap_ref_decayIT_E4typeENS5_IT0_E4typeEEEOS6_OS9_, symObjAddr: 0xB024, symBinAddr: 0x10000CD14, symSize: 0x38 }
  - { offsetInCU: 0x1E798, offset: 0x1E798, size: 0x8, addend: 0x0, symName: __ZNSt3__114__rewrap_rangeB7v160006IPKcS2_EET_S3_T0_, symObjAddr: 0xB05C, symBinAddr: 0x10000CD4C, symSize: 0x2C }
  - { offsetInCU: 0x1E7E4, offset: 0x1E7E4, size: 0x8, addend: 0x0, symName: __ZNSt3__113__rewrap_iterB7v160006IPcS1_NS_18__unwrap_iter_implIS1_Lb1EEEEET_S4_T0_, symObjAddr: 0xB088, symBinAddr: 0x10000CD78, symSize: 0x3C }
  - { offsetInCU: 0x1E839, offset: 0x1E839, size: 0x8, addend: 0x0, symName: __ZNSt3__19make_pairB7v160006IPKcS2_EENS_4pairINS_18__unwrap_ref_decayIT_E4typeENS4_IT0_E4typeEEEOS5_OS8_, symObjAddr: 0xB0C4, symBinAddr: 0x10000CDB4, symSize: 0x38 }
  - { offsetInCU: 0x1E888, offset: 0x1E888, size: 0x8, addend: 0x0, symName: __ZNSt3__113__unwrap_iterB7v160006IPKcNS_18__unwrap_iter_implIS2_Lb1EEELi0EEEDTclsrT0_8__unwrapclsr3stdE7declvalIT_EEEES6_, symObjAddr: 0xB0FC, symBinAddr: 0x10000CDEC, symSize: 0x24 }
  - { offsetInCU: 0x1E9F3, offset: 0x1E9F3, size: 0x8, addend: 0x0, symName: __ZNSt3__112__to_addressB7v160006IKcEEPT_S3_, symObjAddr: 0xB1B4, symBinAddr: 0x10000CEA4, symSize: 0x14 }
  - { offsetInCU: 0x1EA28, offset: 0x1EA28, size: 0x8, addend: 0x0, symName: __ZNSt3__119__copy_trivial_implB7v160006IKccEENS_4pairIPT_PT0_EES4_S4_S6_, symObjAddr: 0xB1C8, symBinAddr: 0x10000CEB8, symSize: 0x7C }
  - { offsetInCU: 0x1EA90, offset: 0x1EA90, size: 0x8, addend: 0x0, symName: __ZNSt3__19make_pairB7v160006IRPKcPcEENS_4pairINS_18__unwrap_ref_decayIT_E4typeENS6_IT0_E4typeEEEOS7_OSA_, symObjAddr: 0xB244, symBinAddr: 0x10000CF34, symSize: 0x38 }
  - { offsetInCU: 0x1EB32, offset: 0x1EB32, size: 0x8, addend: 0x0, symName: __ZNSt3__113__rewrap_iterB7v160006IPKcS2_NS_18__unwrap_iter_implIS2_Lb1EEEEET_S5_T0_, symObjAddr: 0xB380, symBinAddr: 0x10000D070, symSize: 0x3C }
  - { offsetInCU: 0x1EB87, offset: 0x1EB87, size: 0x8, addend: 0x0, symName: __ZNSt3__15countB7v160006INS_11__wrap_iterIPKcEEcEENS_15iterator_traitsIT_E15difference_typeES6_S6_RKT0_, symObjAddr: 0xB49C, symBinAddr: 0x10000D18C, symSize: 0x88 }
  - { offsetInCU: 0x1EBEF, offset: 0x1EBEF, size: 0x8, addend: 0x0, symName: __ZNSt3__1neB7v160006IPKcEEbRKNS_11__wrap_iterIT_EES7_, symObjAddr: 0xB584, symBinAddr: 0x10000D274, symSize: 0x34 }
  - { offsetInCU: 0x1EC32, offset: 0x1EC32, size: 0x8, addend: 0x0, symName: __ZNSt3__1eqB7v160006IPKcEEbRKNS_11__wrap_iterIT_EES7_, symObjAddr: 0xB5F0, symBinAddr: 0x10000D2E0, symSize: 0x48 }
  - { offsetInCU: 0x1EC75, offset: 0x1EC75, size: 0x8, addend: 0x0, symName: __ZNSt3__16removeB7v160006INS_11__wrap_iterIPcEEcEET_S4_S4_RKT0_, symObjAddr: 0xB7C4, symBinAddr: 0x10000D4B4, symSize: 0x108 }
  - { offsetInCU: 0x1ECEB, offset: 0x1ECEB, size: 0x8, addend: 0x0, symName: __ZNSt3__1miB7v160006IPKcPcEEDTmicldtfp_4baseEcldtfp0_4baseEERKNS_11__wrap_iterIT_EERKNS5_IT0_EE, symObjAddr: 0xB968, symBinAddr: 0x10000D658, symSize: 0x40 }
  - { offsetInCU: 0x1ED37, offset: 0x1ED37, size: 0x8, addend: 0x0, symName: __ZNSt3__14moveB7v160006IPcS1_EET0_T_S3_S2_, symObjAddr: 0xBA08, symBinAddr: 0x10000D6F8, symSize: 0x40 }
  - { offsetInCU: 0x1ED91, offset: 0x1ED91, size: 0x8, addend: 0x0, symName: __ZNSt3__1miB7v160006IPKcS2_EEDTmicldtfp_4baseEcldtfp0_4baseEERKNS_11__wrap_iterIT_EERKNS4_IT0_EE, symObjAddr: 0xBA48, symBinAddr: 0x10000D738, symSize: 0x40 }
  - { offsetInCU: 0x1EDDD, offset: 0x1EDDD, size: 0x8, addend: 0x0, symName: __ZNSt3__16__moveB7v160006INS_17_ClassicAlgPolicyEPcS2_S2_EENS_4pairIT0_T2_EES4_T1_S5_, symObjAddr: 0xBB9C, symBinAddr: 0x10000D88C, symSize: 0x44 }
  - { offsetInCU: 0x1EE49, offset: 0x1EE49, size: 0x8, addend: 0x0, symName: __ZNSt3__123__dispatch_copy_or_moveB7v160006INS_17_ClassicAlgPolicyENS_11__move_loopIS1_EENS_14__move_trivialEPcS5_S5_EENS_4pairIT2_T4_EES7_T3_S8_, symObjAddr: 0xBBE0, symBinAddr: 0x10000D8D0, symSize: 0x44 }
  - { offsetInCU: 0x1EEC7, offset: 0x1EEC7, size: 0x8, addend: 0x0, symName: __ZNSt3__121__unwrap_and_dispatchB7v160006INS_10__overloadINS_11__move_loopINS_17_ClassicAlgPolicyEEENS_14__move_trivialEEEPcS7_S7_Li0EEENS_4pairIT0_T2_EES9_T1_SA_, symObjAddr: 0xBC24, symBinAddr: 0x10000D914, symSize: 0xB4 }
  - { offsetInCU: 0x1EF55, offset: 0x1EF55, size: 0x8, addend: 0x0, symName: __ZNSt3__114__unwrap_rangeB7v160006IPcS1_EENS_4pairIT0_S3_EET_S5_, symObjAddr: 0xBCD8, symBinAddr: 0x10000D9C8, symSize: 0x60 }
  - { offsetInCU: 0x1F126, offset: 0x1F126, size: 0x8, addend: 0x0, symName: __ZNSt3__19make_pairB7v160006IPcS1_EENS_4pairINS_18__unwrap_ref_decayIT_E4typeENS3_IT0_E4typeEEEOS4_OS7_, symObjAddr: 0xBD80, symBinAddr: 0x10000DA70, symSize: 0x38 }
  - { offsetInCU: 0x1F175, offset: 0x1F175, size: 0x8, addend: 0x0, symName: __ZNSt3__114__rewrap_rangeB7v160006IPcS1_EET_S2_T0_, symObjAddr: 0xBDB8, symBinAddr: 0x10000DAA8, symSize: 0x2C }
  - { offsetInCU: 0x1F1C1, offset: 0x1F1C1, size: 0x8, addend: 0x0, symName: __ZNSt3__119__copy_trivial_implB7v160006IccEENS_4pairIPT_PT0_EES3_S3_S5_, symObjAddr: 0xBDE4, symBinAddr: 0x10000DAD4, symSize: 0x7C }
  - { offsetInCU: 0x1F229, offset: 0x1F229, size: 0x8, addend: 0x0, symName: __ZNSt3__19make_pairB7v160006IRPcS1_EENS_4pairINS_18__unwrap_ref_decayIT_E4typeENS4_IT0_E4typeEEEOS5_OS8_, symObjAddr: 0xBE60, symBinAddr: 0x10000DB50, symSize: 0x38 }
  - { offsetInCU: 0x1F278, offset: 0x1F278, size: 0x8, addend: 0x0, symName: __ZNSt3__14findB7v160006INS_11__wrap_iterIPcEEcEET_S4_S4_RKT0_, symObjAddr: 0xBFD8, symBinAddr: 0x10000DCC8, symSize: 0x80 }
  - { offsetInCU: 0x1F2D2, offset: 0x1F2D2, size: 0x8, addend: 0x0, symName: __ZNSt3__1neB7v160006IPcEEbRKNS_11__wrap_iterIT_EES6_, symObjAddr: 0xC058, symBinAddr: 0x10000DD48, symSize: 0x34 }
  - { offsetInCU: 0x1F315, offset: 0x1F315, size: 0x8, addend: 0x0, symName: __ZNSt3__1eqB7v160006IPcEEbRKNS_11__wrap_iterIT_EES6_, symObjAddr: 0xC0C4, symBinAddr: 0x10000DDB4, symSize: 0x48 }
  - { offsetInCU: 0x1FE7D, offset: 0x1FE7D, size: 0x8, addend: 0x0, symName: __ZNSt3__119__debug_db_insert_cB7v160006INS_13unordered_mapI5Pointb11PointHasherNS_8equal_toIS2_EENS_9allocatorINS_4pairIKS2_bEEEEEEEEvPT_, symObjAddr: 0xC678, symBinAddr: 0x10000E368, symSize: 0x10 }
  - { offsetInCU: 0x20253, offset: 0x20253, size: 0x8, addend: 0x0, symName: __ZNSt3__14swapB7v160006IPP5PointEENS_9enable_ifIXaasr21is_move_constructibleIT_EE5valuesr18is_move_assignableIS5_EE5valueEvE4typeERS5_S8_, symObjAddr: 0xE0F0, symBinAddr: 0x10000FDE0, symSize: 0x3C }
  - { offsetInCU: 0x202A4, offset: 0x202A4, size: 0x8, addend: 0x0, symName: __ZNSt3__14moveB7v160006IPP5PointS3_EET0_T_S5_S4_, symObjAddr: 0xE220, symBinAddr: 0x10000FF10, symSize: 0x40 }
  - { offsetInCU: 0x202FE, offset: 0x202FE, size: 0x8, addend: 0x0, symName: __ZNSt3__112__to_addressB7v160006IP5PointEEPT_S4_, symObjAddr: 0xE3C4, symBinAddr: 0x1000100B4, symSize: 0x14 }
  - { offsetInCU: 0x20333, offset: 0x20333, size: 0x8, addend: 0x0, symName: __ZNSt3__16__moveB7v160006INS_17_ClassicAlgPolicyEPP5PointS4_S4_EENS_4pairIT0_T2_EES6_T1_S7_, symObjAddr: 0xE3D8, symBinAddr: 0x1000100C8, symSize: 0x44 }
  - { offsetInCU: 0x2039F, offset: 0x2039F, size: 0x8, addend: 0x0, symName: __ZNSt3__123__dispatch_copy_or_moveB7v160006INS_17_ClassicAlgPolicyENS_11__move_loopIS1_EENS_14__move_trivialEPP5PointS7_S7_EENS_4pairIT2_T4_EES9_T3_SA_, symObjAddr: 0xE41C, symBinAddr: 0x10001010C, symSize: 0x44 }
  - { offsetInCU: 0x2041D, offset: 0x2041D, size: 0x8, addend: 0x0, symName: __ZNSt3__121__unwrap_and_dispatchB7v160006INS_10__overloadINS_11__move_loopINS_17_ClassicAlgPolicyEEENS_14__move_trivialEEEPP5PointS9_S9_Li0EEENS_4pairIT0_T2_EESB_T1_SC_, symObjAddr: 0xE460, symBinAddr: 0x100010150, symSize: 0xB4 }
  - { offsetInCU: 0x204AB, offset: 0x204AB, size: 0x8, addend: 0x0, symName: __ZNSt3__114__unwrap_rangeB7v160006IPP5PointS3_EENS_4pairIT0_S5_EET_S7_, symObjAddr: 0xE514, symBinAddr: 0x100010204, symSize: 0x60 }
  - { offsetInCU: 0x20629, offset: 0x20629, size: 0x8, addend: 0x0, symName: __ZNSt3__113__unwrap_iterB7v160006IPP5PointNS_18__unwrap_iter_implIS3_Lb1EEELi0EEEDTclsrT0_8__unwrapclsr3stdE7declvalIT_EEEES7_, symObjAddr: 0xE5BC, symBinAddr: 0x1000102AC, symSize: 0x24 }
  - { offsetInCU: 0x2066D, offset: 0x2066D, size: 0x8, addend: 0x0, symName: __ZNSt3__19make_pairB7v160006IPP5PointS3_EENS_4pairINS_18__unwrap_ref_decayIT_E4typeENS5_IT0_E4typeEEEOS6_OS9_, symObjAddr: 0xE5E0, symBinAddr: 0x1000102D0, symSize: 0x38 }
  - { offsetInCU: 0x206BC, offset: 0x206BC, size: 0x8, addend: 0x0, symName: __ZNSt3__114__rewrap_rangeB7v160006IPP5PointS3_EET_S4_T0_, symObjAddr: 0xE618, symBinAddr: 0x100010308, symSize: 0x2C }
  - { offsetInCU: 0x20708, offset: 0x20708, size: 0x8, addend: 0x0, symName: __ZNSt3__113__rewrap_iterB7v160006IPP5PointS3_NS_18__unwrap_iter_implIS3_Lb1EEEEET_S6_T0_, symObjAddr: 0xE644, symBinAddr: 0x100010334, symSize: 0x3C }
  - { offsetInCU: 0x2075D, offset: 0x2075D, size: 0x8, addend: 0x0, symName: __ZNSt3__119__copy_trivial_implB7v160006IP5PointS2_EENS_4pairIPT_PT0_EES5_S5_S7_, symObjAddr: 0xE680, symBinAddr: 0x100010370, symSize: 0x84 }
  - { offsetInCU: 0x207C5, offset: 0x207C5, size: 0x8, addend: 0x0, symName: __ZNSt3__19make_pairB7v160006IRPP5PointS3_EENS_4pairINS_18__unwrap_ref_decayIT_E4typeENS6_IT0_E4typeEEEOS7_OSA_, symObjAddr: 0xE704, symBinAddr: 0x1000103F4, symSize: 0x38 }
  - { offsetInCU: 0x20867, offset: 0x20867, size: 0x8, addend: 0x0, symName: __ZNSt3__18distanceB7v160006INS_13move_iteratorIPP5PointEEEENS_15iterator_traitsIT_E15difference_typeES7_S7_, symObjAddr: 0xE890, symBinAddr: 0x100010580, symSize: 0x3C }
  - { offsetInCU: 0x208AA, offset: 0x208AA, size: 0x8, addend: 0x0, symName: __ZNSt3__110__distanceB7v160006INS_13move_iteratorIPP5PointEEEENS_15iterator_traitsIT_E15difference_typeES7_S7_NS_26random_access_iterator_tagE, symObjAddr: 0xE9C8, symBinAddr: 0x1000106B8, symSize: 0x30 }
  - { offsetInCU: 0x208F7, offset: 0x208F7, size: 0x8, addend: 0x0, symName: __ZNSt3__1miB7v160006IPP5PointS3_EEDTmicldtfp_4baseEcldtfp0_4baseEERKNS_13move_iteratorIT_EERKNS5_IT0_EE, symObjAddr: 0xE9F8, symBinAddr: 0x1000106E8, symSize: 0x48 }
  - { offsetInCU: 0x20946, offset: 0x20946, size: 0x8, addend: 0x0, symName: __ZNSt3__113move_backwardB7v160006IPP5PointS3_EET0_T_S5_S4_, symObjAddr: 0xEBCC, symBinAddr: 0x1000108BC, symSize: 0x40 }
  - { offsetInCU: 0x209A0, offset: 0x209A0, size: 0x8, addend: 0x0, symName: __ZNSt3__115__move_backwardB7v160006INS_17_ClassicAlgPolicyEPP5PointS4_S4_EENS_4pairIT0_T2_EES6_T1_S7_, symObjAddr: 0xEC0C, symBinAddr: 0x1000108FC, symSize: 0x44 }
  - { offsetInCU: 0x20A0C, offset: 0x20A0C, size: 0x8, addend: 0x0, symName: __ZNSt3__123__dispatch_copy_or_moveB7v160006INS_17_ClassicAlgPolicyENS_20__move_backward_loopIS1_EENS_23__move_backward_trivialEPP5PointS7_S7_EENS_4pairIT2_T4_EES9_T3_SA_, symObjAddr: 0xEC50, symBinAddr: 0x100010940, symSize: 0x44 }
  - { offsetInCU: 0x20A8A, offset: 0x20A8A, size: 0x8, addend: 0x0, symName: __ZNSt3__121__unwrap_and_dispatchB7v160006INS_10__overloadINS_20__move_backward_loopINS_17_ClassicAlgPolicyEEENS_23__move_backward_trivialEEEPP5PointS9_S9_Li0EEENS_4pairIT0_T2_EESB_T1_SC_, symObjAddr: 0xEC94, symBinAddr: 0x100010984, symSize: 0xB4 }
  - { offsetInCU: 0x20B5E, offset: 0x20B5E, size: 0x8, addend: 0x0, symName: __ZNSt3__128__copy_backward_trivial_implB7v160006IP5PointS2_EENS_4pairIPT_PT0_EES5_S5_S7_, symObjAddr: 0xED90, symBinAddr: 0x100010A80, symSize: 0x94 }
  - { offsetInCU: 0x20BC6, offset: 0x20BC6, size: 0x8, addend: 0x0, symName: __ZNSt3__19make_pairB7v160006IRPP5PointS4_EENS_4pairINS_18__unwrap_ref_decayIT_E4typeENS6_IT0_E4typeEEEOS7_OSA_, symObjAddr: 0xEE24, symBinAddr: 0x100010B14, symSize: 0x38 }
  - { offsetInCU: 0x20C15, offset: 0x20C15, size: 0x8, addend: 0x0, symName: __ZNSt3__119__allocate_at_leastB7v160006INS_9allocatorIP5PointEEEENS_19__allocation_resultINS_16allocator_traitsIT_E7pointerEEERS7_m, symObjAddr: 0xF014, symBinAddr: 0x100010D04, symSize: 0x40 }
  - { offsetInCU: 0x20CA9, offset: 0x20CA9, size: 0x8, addend: 0x0, symName: __ZNSt3__125__debug_db_invalidate_allB7v160006INS_12__hash_tableINS_17__hash_value_typeI5PointbEENS_22__unordered_map_hasherIS3_S4_11PointHasherNS_8equal_toIS3_EELb1EEENS_21__unordered_map_equalIS3_S4_S8_S6_Lb1EEENS_9allocatorIS4_EEEEEEvPT_, symObjAddr: 0x10BF0, symBinAddr: 0x1000128E0, symSize: 0x10 }
  - { offsetInCU: 0x20D0D, offset: 0x20D0D, size: 0x8, addend: 0x0, symName: __ZNSt3__15countB7v160006INS_11__wrap_iterIPK5PointEES2_EENS_15iterator_traitsIT_E15difference_typeES7_S7_RKT0_, symObjAddr: 0x11278, symBinAddr: 0x100012F68, symSize: 0x7C }
  - { offsetInCU: 0x20D75, offset: 0x20D75, size: 0x8, addend: 0x0, symName: __ZNSt3__1neB7v160006IPK5PointEEbRKNS_11__wrap_iterIT_EES8_, symObjAddr: 0x11354, symBinAddr: 0x100013044, symSize: 0x34 }
  - { offsetInCU: 0x20DB8, offset: 0x20DB8, size: 0x8, addend: 0x0, symName: __ZNSt3__1eqB7v160006IPK5PointEEbRKNS_11__wrap_iterIT_EES8_, symObjAddr: 0x113C0, symBinAddr: 0x1000130B0, symSize: 0x48 }
  - { offsetInCU: 0x20DFB, offset: 0x20DFB, size: 0x8, addend: 0x0, symName: __ZNSt3__118__debug_db_erase_cB7v160006INS_12__hash_tableINS_17__hash_value_typeI5PointbEENS_22__unordered_map_hasherIS3_S4_11PointHasherNS_8equal_toIS3_EELb1EEENS_21__unordered_map_equalIS3_S4_S8_S6_Lb1EEENS_9allocatorIS4_EEEEEEvPT_, symObjAddr: 0x117BC, symBinAddr: 0x1000134AC, symSize: 0x10 }
  - { offsetInCU: 0x20E2C, offset: 0x20E2C, size: 0x8, addend: 0x0, symName: __ZNSt3__1neB7v160006ERKNS_16__deque_iteratorI5PointPS1_RS1_PS2_lLl512EEES7_, symObjAddr: 0x11BB8, symBinAddr: 0x1000138A8, symSize: 0x34 }
  - { offsetInCU: 0x20E69, offset: 0x20E69, size: 0x8, addend: 0x0, symName: __ZNSt3__1eqB7v160006ERKNS_16__deque_iteratorI5PointPS1_RS1_PS2_lLl512EEES7_, symObjAddr: 0x11C5C, symBinAddr: 0x10001394C, symSize: 0x30 }
  - { offsetInCU: 0x20EA6, offset: 0x20EA6, size: 0x8, addend: 0x0, symName: __ZNSt3__118__debug_db_erase_cB7v160006INS_12__hash_tableINS_17__hash_value_typeI5PointcEENS_22__unordered_map_hasherIS3_S4_11PointHasherNS_8equal_toIS3_EELb1EEENS_21__unordered_map_equalIS3_S4_S8_S6_Lb1EEENS_9allocatorIS4_EEEEEEvPT_, symObjAddr: 0x11F34, symBinAddr: 0x100013C24, symSize: 0x10 }
  - { offsetInCU: 0x20ED7, offset: 0x20ED7, size: 0x8, addend: 0x0, symName: __ZNSt3__118__debug_db_erase_cB7v160006INS_6vectorINS1_IcNS_9allocatorIcEEEENS2_IS4_EEEEEEvPT_, symObjAddr: 0x12184, symBinAddr: 0x100013E74, symSize: 0x10 }
  - { offsetInCU: 0x20F08, offset: 0x20F08, size: 0x8, addend: 0x0, symName: __ZNSt3__118__debug_db_erase_cB7v160006INS_6vectorI4RoomNS_9allocatorIS2_EEEEEEvPT_, symObjAddr: 0x1239C, symBinAddr: 0x10001408C, symSize: 0x10 }
  - { offsetInCU: 0x20F39, offset: 0x20F39, size: 0x8, addend: 0x0, symName: __ZNSt3__112__to_addressB7v160006I4RoomEEPT_S3_, symObjAddr: 0x124E0, symBinAddr: 0x1000141D0, symSize: 0x14 }
  - { offsetInCU: 0x20F6E, offset: 0x20F6E, size: 0x8, addend: 0x0, symName: __ZNSt3__118__debug_db_erase_cB7v160006INS_12__hash_tableINS_17__hash_value_typeIiP4RoomEENS_22__unordered_map_hasherIiS5_NS_4hashIiEENS_8equal_toIiEELb1EEENS_21__unordered_map_equalIiS5_SA_S8_Lb1EEENS_9allocatorIS5_EEEEEEvPT_, symObjAddr: 0x1282C, symBinAddr: 0x10001451C, symSize: 0x10 }
  - { offsetInCU: 0x20FD2, offset: 0x20FD2, size: 0x8, addend: 0x0, symName: __ZNSt3__1lsB7v160006INS_11char_traitsIcEEEERNS_13basic_ostreamIcT_EES6_c, symObjAddr: 0x12CBC, symBinAddr: 0x1000149AC, symSize: 0x34 }
  - { offsetInCU: 0x21018, offset: 0x21018, size: 0x8, addend: 0x0, symName: __ZNSt3__116__pad_and_outputB7v160006IcNS_11char_traitsIcEEEENS_19ostreambuf_iteratorIT_T0_EES6_PKS4_S8_S8_RNS_8ios_baseES4_, symObjAddr: 0x12EF8, symBinAddr: 0x100014BE8, symSize: 0x240 }
  - { offsetInCU: 0x210E7, offset: 0x210E7, size: 0x8, addend: 0x0, symName: __ZNSt3__119__debug_db_insert_cB7v160006INS_12basic_stringIcNS_11char_traitsIcEENS_9allocatorIcEEEEEEvPT_, symObjAddr: 0x133AC, symBinAddr: 0x10001509C, symSize: 0x10 }
  - { offsetInCU: 0x2114B, offset: 0x2114B, size: 0x8, addend: 0x0, symName: __ZNSt3__19use_facetB7v160006INS_5ctypeIcEEEERKT_RKNS_6localeE, symObjAddr: 0x13678, symBinAddr: 0x100015368, symSize: 0x2C }
  - { offsetInCU: 0x21F8D, offset: 0x21F8D, size: 0x8, addend: 0x0, symName: __ZNSt3__1rsB7v160006IcNS_11char_traitsIcEENS_9allocatorIcEEEERNS_13basic_istreamIT_T0_EES9_RNS_12basic_stringIS6_S7_T1_EE, symObjAddr: 0x13B4C, symBinAddr: 0x10001583C, symSize: 0x30C }
  - { offsetInCU: 0x225E4, offset: 0x225E4, size: 0x8, addend: 0x0, symName: __ZNSt3__125__debug_db_invalidate_allB7v160006INS_12basic_stringIcNS_11char_traitsIcEENS_9allocatorIcEEEEEEvPT_, symObjAddr: 0x142F8, symBinAddr: 0x100015FE8, symSize: 0x10 }
  - { offsetInCU: 0x22648, offset: 0x22648, size: 0x8, addend: 0x0, symName: __ZNSt3__119__debug_db_insert_cB7v160006INS_13unordered_mapIccNS_4hashIcEENS_8equal_toIcEENS_9allocatorINS_4pairIKccEEEEEEEEvPT_, symObjAddr: 0x14698, symBinAddr: 0x100016388, symSize: 0x10 }
  - { offsetInCU: 0x226CA, offset: 0x226CA, size: 0x8, addend: 0x0, symName: __ZNSt3__125__debug_db_invalidate_allB7v160006INS_12__hash_tableINS_17__hash_value_typeIccEENS_22__unordered_map_hasherIcS3_NS_4hashIcEENS_8equal_toIcEELb1EEENS_21__unordered_map_equalIcS3_S8_S6_Lb1EEENS_9allocatorIS3_EEEEEEvPT_, symObjAddr: 0x160FC, symBinAddr: 0x100017DEC, symSize: 0x10 }
  - { offsetInCU: 0x226FB, offset: 0x226FB, size: 0x8, addend: 0x0, symName: __ZNSt3__118__debug_db_erase_cB7v160006INS_12__hash_tableINS_17__hash_value_typeIccEENS_22__unordered_map_hasherIcS3_NS_4hashIcEENS_8equal_toIcEELb1EEENS_21__unordered_map_equalIcS3_S8_S6_Lb1EEENS_9allocatorIS3_EEEEEEvPT_, symObjAddr: 0x167F0, symBinAddr: 0x1000184E0, symSize: 0x10 }
  - { offsetInCU: 0x2272C, offset: 0x2272C, size: 0x8, addend: 0x0, symName: __ZNSt3__1miB7v160006IPK5PointS3_EEDTmicldtfp_4baseEcldtfp0_4baseEERKNS_11__wrap_iterIT_EERKNS5_IT0_EE, symObjAddr: 0x168C8, symBinAddr: 0x1000185B8, symSize: 0x48 }
  - { offsetInCU: 0x22778, offset: 0x22778, size: 0x8, addend: 0x0, symName: __ZNSt3__14findB7v160006INS_11__wrap_iterIPK5PointEES2_EET_S6_S6_RKT0_, symObjAddr: 0x16910, symBinAddr: 0x100018600, symSize: 0x74 }
  - { offsetInCU: 0x227D2, offset: 0x227D2, size: 0x8, addend: 0x0, symName: __ZNSt3__116forward_as_tupleB7v160006IJRKiEEENS_5tupleIJDpOT_EEES6_, symObjAddr: 0x16E38, symBinAddr: 0x100018B28, symSize: 0x2C }
  - { offsetInCU: 0x22829, offset: 0x22829, size: 0x8, addend: 0x0, symName: __ZNSt3__13getB7v160006ILm0EJRKiEEERNS_13tuple_elementIXT_ENS_5tupleIJDpT0_EEEE4typeERS7_, symObjAddr: 0x17894, symBinAddr: 0x100019584, symSize: 0x24 }
  - { offsetInCU: 0x2286C, offset: 0x2286C, size: 0x8, addend: 0x0, symName: __ZNSt3__125__debug_db_invalidate_allB7v160006INS_12__hash_tableINS_17__hash_value_typeIiP4RoomEENS_22__unordered_map_hasherIiS5_NS_4hashIiEENS_8equal_toIiEELb1EEENS_21__unordered_map_equalIiS5_SA_S8_Lb1EEENS_9allocatorIS5_EEEEEEvPT_, symObjAddr: 0x17D8C, symBinAddr: 0x100019A7C, symSize: 0x10 }
  - { offsetInCU: 0x228E5, offset: 0x228E5, size: 0x8, addend: 0x0, symName: __ZNSt3__116forward_as_tupleB7v160006IJRKcEEENS_5tupleIJDpOT_EEES6_, symObjAddr: 0x18698, symBinAddr: 0x10001A388, symSize: 0x2C }
  - { offsetInCU: 0x2291E, offset: 0x2291E, size: 0x8, addend: 0x0, symName: __ZNSt3__13getB7v160006ILm0EJRKcEEERNS_13tuple_elementIXT_ENS_5tupleIJDpT0_EEEE4typeERS7_, symObjAddr: 0x18994, symBinAddr: 0x10001A684, symSize: 0x24 }
  - { offsetInCU: 0x229A9, offset: 0x229A9, size: 0x8, addend: 0x0, symName: __ZNSt3__115__debug_db_swapB7v160006INS_13unordered_mapIiP4RoomNS_4hashIiEENS_8equal_toIiEENS_9allocatorINS_4pairIKiS3_EEEEEEEEvPT_SF_, symObjAddr: 0x190B4, symBinAddr: 0x10001ADA4, symSize: 0x14 }
  - { offsetInCU: 0x229E8, offset: 0x229E8, size: 0x8, addend: 0x0, symName: __ZNSt3__115__debug_db_swapB7v160006INS_6vectorI4RoomNS_9allocatorIS2_EEEEEEvPT_S7_, symObjAddr: 0x19508, symBinAddr: 0x10001B1F8, symSize: 0x14 }
  - { offsetInCU: 0x22A27, offset: 0x22A27, size: 0x8, addend: 0x0, symName: __ZNSt3__115__debug_db_swapB7v160006INS_6vectorINS1_IcNS_9allocatorIcEEEENS2_IS4_EEEEEEvPT_S8_, symObjAddr: 0x19690, symBinAddr: 0x10001B380, symSize: 0x14 }
  - { offsetInCU: 0x22A66, offset: 0x22A66, size: 0x8, addend: 0x0, symName: __ZNSt3__115__debug_db_swapB7v160006INS_6vectorI5PointNS_9allocatorIS2_EEEEEEvPT_S7_, symObjAddr: 0x19818, symBinAddr: 0x10001B508, symSize: 0x14 }
  - { offsetInCU: 0x22AA5, offset: 0x22AA5, size: 0x8, addend: 0x0, symName: __ZNSt3__115__debug_db_swapB7v160006INS_13unordered_mapI5Pointc11PointHasherNS_8equal_toIS2_EENS_9allocatorINS_4pairIKS2_cEEEEEEEEvPT_SD_, symObjAddr: 0x1990C, symBinAddr: 0x10001B5FC, symSize: 0x14 }
  - { offsetInCU: 0x22AE4, offset: 0x22AE4, size: 0x8, addend: 0x0, symName: __ZNSt3__119__allocate_at_leastB7v160006INS_9allocatorI4RoomEEEENS_19__allocation_resultINS_16allocator_traitsIT_E7pointerEEERS6_m, symObjAddr: 0x1A114, symBinAddr: 0x10001BE04, symSize: 0x40 }
  - { offsetInCU: 0x22B27, offset: 0x22B27, size: 0x8, addend: 0x0, symName: __ZNSt3__142__uninitialized_allocator_move_if_noexceptB7v160006INS_9allocatorI4RoomEENS_16reverse_iteratorIPS2_EES6_S6_EET2_RT_T0_T1_S7_, symObjAddr: 0x1A2CC, symBinAddr: 0x10001BFBC, symSize: 0x12C }
  - { offsetInCU: 0x22BC7, offset: 0x22BC7, size: 0x8, addend: 0x0, symName: __ZNSt3__14swapB7v160006IP4RoomEENS_9enable_ifIXaasr21is_move_constructibleIT_EE5valuesr18is_move_assignableIS4_EE5valueEvE4typeERS4_S7_, symObjAddr: 0x1A444, symBinAddr: 0x10001C134, symSize: 0x3C }
  - { offsetInCU: 0x22C18, offset: 0x22C18, size: 0x8, addend: 0x0, symName: __ZNSt3__125__debug_db_invalidate_allB7v160006INS_6vectorI4RoomNS_9allocatorIS2_EEEEEEvPT_, symObjAddr: 0x1A548, symBinAddr: 0x10001C238, symSize: 0x10 }
  - { offsetInCU: 0x22C49, offset: 0x22C49, size: 0x8, addend: 0x0, symName: __ZNSt3__122__make_exception_guardB7v160006INS_29_AllocatorDestroyRangeReverseINS_9allocatorI4RoomEENS_16reverse_iteratorIPS3_EEEEEENS_28__exception_guard_exceptionsIT_EESA_, symObjAddr: 0x1A558, symBinAddr: 0x10001C248, symSize: 0x4C }
  - { offsetInCU: 0x22C7F, offset: 0x22C7F, size: 0x8, addend: 0x0, symName: __ZNSt3__1neB7v160006IP4RoomS2_EEbRKNS_16reverse_iteratorIT_EERKNS3_IT0_EE, symObjAddr: 0x1A5E8, symBinAddr: 0x10001C2D8, symSize: 0x48 }
  - { offsetInCU: 0x22CCB, offset: 0x22CCB, size: 0x8, addend: 0x0, symName: __ZNSt3__112__to_addressB7v160006INS_16reverse_iteratorIP4RoomEEvEENS_5decayIDTclsr19__to_address_helperIT_EE6__callclsr3stdE7declvalIRKS6_EEEEE4typeES8_, symObjAddr: 0x1A664, symBinAddr: 0x10001C354, symSize: 0x24 }
  - { offsetInCU: 0x22D1F, offset: 0x22D1F, size: 0x8, addend: 0x0, symName: __ZNSt3__1neB7v160006ERKNS_25__hash_map_const_iteratorINS_21__hash_const_iteratorIPNS_11__hash_nodeINS_17__hash_value_typeIiP4RoomEEPvEEEEEESD_, symObjAddr: 0x1B280, symBinAddr: 0x10001CF70, symSize: 0x30 }
  - { offsetInCU: 0x22D5C, offset: 0x22D5C, size: 0x8, addend: 0x0, symName: __ZNSt3__1neB7v160006ERKNS_21__hash_const_iteratorIPNS_11__hash_nodeINS_17__hash_value_typeIiP4RoomEEPvEEEESB_, symObjAddr: 0x1B354, symBinAddr: 0x10001D044, symSize: 0x34 }
  - { offsetInCU: 0x22D99, offset: 0x22D99, size: 0x8, addend: 0x0, symName: __ZNSt3__1eqB7v160006ERKNS_21__hash_const_iteratorIPNS_11__hash_nodeINS_17__hash_value_typeIiP4RoomEEPvEEEESB_, symObjAddr: 0x1B388, symBinAddr: 0x10001D078, symSize: 0x30 }
  - { offsetInCU: 0x22E09, offset: 0x22E09, size: 0x8, addend: 0x0, symName: __ZNSt3__122__make_exception_guardB7v160006INS_6vectorI4RoomNS_9allocatorIS2_EEE16__destroy_vectorEEENS_28__exception_guard_exceptionsIT_EES8_, symObjAddr: 0x1BCD0, symBinAddr: 0x10001D9C0, symSize: 0x40 }
  - { offsetInCU: 0x22E3E, offset: 0x22E3E, size: 0x8, addend: 0x0, symName: __ZNSt3__130__uninitialized_allocator_copyB7v160006INS_9allocatorI4RoomEEPS2_S4_S4_EET2_RT_T0_T1_S5_, symObjAddr: 0x1BEF0, symBinAddr: 0x10001DBE0, symSize: 0xF4 }
  - { offsetInCU: 0x22EDC, offset: 0x22EDC, size: 0x8, addend: 0x0, symName: __ZNSt3__122__make_exception_guardB7v160006INS_29_AllocatorDestroyRangeReverseINS_9allocatorI4RoomEEPS3_EEEENS_28__exception_guard_exceptionsIT_EES8_, symObjAddr: 0x1BFE4, symBinAddr: 0x10001DCD4, symSize: 0x4C }
  - { offsetInCU: 0x22F12, offset: 0x22F12, size: 0x8, addend: 0x0, symName: __ZNSt3__119__allocator_destroyB7v160006INS_9allocatorI4RoomEENS_16reverse_iteratorIPS2_EES6_EEvRT_T0_T1_, symObjAddr: 0x1C274, symBinAddr: 0x10001DF64, symSize: 0x70 }
  - { offsetInCU: 0x22F75, offset: 0x22F75, size: 0x8, addend: 0x0, symName: __ZNSt3__122__make_exception_guardB7v160006INS_6vectorINS1_IcNS_9allocatorIcEEEENS2_IS4_EEE16__destroy_vectorEEENS_28__exception_guard_exceptionsIT_EES9_, symObjAddr: 0x1C454, symBinAddr: 0x10001E144, symSize: 0x40 }
  - { offsetInCU: 0x22FAA, offset: 0x22FAA, size: 0x8, addend: 0x0, symName: __ZNSt3__130__uninitialized_allocator_copyB7v160006INS_9allocatorINS_6vectorIcNS1_IcEEEEEEPS4_S6_S6_EET2_RT_T0_T1_S7_, symObjAddr: 0x1C674, symBinAddr: 0x10001E364, symSize: 0xF4 }
  - { offsetInCU: 0x23048, offset: 0x23048, size: 0x8, addend: 0x0, symName: __ZNSt3__122__make_exception_guardB7v160006INS_29_AllocatorDestroyRangeReverseINS_9allocatorINS_6vectorIcNS2_IcEEEEEEPS5_EEEENS_28__exception_guard_exceptionsIT_EESA_, symObjAddr: 0x1C768, symBinAddr: 0x10001E458, symSize: 0x4C }
  - { offsetInCU: 0x2307E, offset: 0x2307E, size: 0x8, addend: 0x0, symName: __ZNSt3__130__uninitialized_allocator_copyB7v160006INS_9allocatorIcEEPcS3_S3_EET2_RT_T0_T1_S4_, symObjAddr: 0x1CB20, symBinAddr: 0x10001E810, symSize: 0xF4 }
  - { offsetInCU: 0x2311C, offset: 0x2311C, size: 0x8, addend: 0x0, symName: __ZNSt3__122__make_exception_guardB7v160006INS_29_AllocatorDestroyRangeReverseINS_9allocatorIcEEPcEEEENS_28__exception_guard_exceptionsIT_EES7_, symObjAddr: 0x1CC14, symBinAddr: 0x10001E904, symSize: 0x4C }
  - { offsetInCU: 0x23152, offset: 0x23152, size: 0x8, addend: 0x0, symName: __ZNSt3__119__allocator_destroyB7v160006INS_9allocatorIcEENS_16reverse_iteratorIPcEES5_EEvRT_T0_T1_, symObjAddr: 0x1CE9C, symBinAddr: 0x10001EB8C, symSize: 0x70 }
  - { offsetInCU: 0x231B5, offset: 0x231B5, size: 0x8, addend: 0x0, symName: __ZNSt3__112__to_addressB7v160006INS_16reverse_iteratorIPcEEvEENS_5decayIDTclsr19__to_address_helperIT_EE6__callclsr3stdE7declvalIRKS5_EEEEE4typeES7_, symObjAddr: 0x1CF0C, symBinAddr: 0x10001EBFC, symSize: 0x24 }
  - { offsetInCU: 0x23214, offset: 0x23214, size: 0x8, addend: 0x0, symName: __ZNSt3__119__allocator_destroyB7v160006INS_9allocatorINS_6vectorIcNS1_IcEEEEEENS_16reverse_iteratorIPS4_EES8_EEvRT_T0_T1_, symObjAddr: 0x1D044, symBinAddr: 0x10001ED34, symSize: 0x70 }
  - { offsetInCU: 0x23277, offset: 0x23277, size: 0x8, addend: 0x0, symName: __ZNSt3__130__uninitialized_allocator_copyB7v160006INS_9allocatorI5PointEEPS2_S4_S4_EET2_RT_T0_T1_S5_, symObjAddr: 0x1D2B0, symBinAddr: 0x10001EFA0, symSize: 0xF4 }
  - { offsetInCU: 0x23333, offset: 0x23333, size: 0x8, addend: 0x0, symName: __ZNSt3__1neB7v160006ERKNS_25__hash_map_const_iteratorINS_21__hash_const_iteratorIPNS_11__hash_nodeINS_17__hash_value_typeI5PointcEEPvEEEEEESC_, symObjAddr: 0x1DBA4, symBinAddr: 0x10001F894, symSize: 0x30 }
  - { offsetInCU: 0x23370, offset: 0x23370, size: 0x8, addend: 0x0, symName: __ZNSt3__1neB7v160006ERKNS_21__hash_const_iteratorIPNS_11__hash_nodeINS_17__hash_value_typeI5PointcEEPvEEEESA_, symObjAddr: 0x1DC78, symBinAddr: 0x10001F968, symSize: 0x34 }
  - { offsetInCU: 0x233AD, offset: 0x233AD, size: 0x8, addend: 0x0, symName: __ZNSt3__1eqB7v160006ERKNS_21__hash_const_iteratorIPNS_11__hash_nodeINS_17__hash_value_typeI5PointcEEPvEEEESA_, symObjAddr: 0x1DCAC, symBinAddr: 0x10001F99C, symSize: 0x30 }
  - { offsetInCU: 0x23446, offset: 0x23446, size: 0x8, addend: 0x0, symName: __ZNSt3__119__allocator_destroyB7v160006INS_9allocatorI4RoomEENS_16reverse_iteratorINS4_IPS2_EEEES7_EEvRT_T0_T1_, symObjAddr: 0x1E6E4, symBinAddr: 0x1000203D4, symSize: 0x70 }
  - { offsetInCU: 0x234AB, offset: 0x234AB, size: 0x8, addend: 0x0, symName: __ZNSt3__1neB7v160006INS_16reverse_iteratorIP4RoomEES4_EEbRKNS1_IT_EERKNS1_IT0_EE, symObjAddr: 0x1E790, symBinAddr: 0x100020480, symSize: 0x60 }
  - { offsetInCU: 0x234F7, offset: 0x234F7, size: 0x8, addend: 0x0, symName: __ZNSt3__112__to_addressB7v160006INS_16reverse_iteratorINS1_IP4RoomEEEEvEENS_5decayIDTclsr19__to_address_helperIT_EE6__callclsr3stdE7declvalIRKS7_EEEEE4typeES9_, symObjAddr: 0x1E7F0, symBinAddr: 0x1000204E0, symSize: 0x24 }
  - { offsetInCU: 0x23556, offset: 0x23556, size: 0x8, addend: 0x0, symName: __ZNSt3__116forward_as_tupleB7v160006IJiEEENS_5tupleIJDpOT_EEES4_, symObjAddr: 0x1F1A8, symBinAddr: 0x100020E98, symSize: 0x2C }
  - { offsetInCU: 0x2358F, offset: 0x2358F, size: 0x8, addend: 0x0, symName: __ZNSt3__13getB7v160006ILm0EJOiEEERNS_13tuple_elementIXT_ENS_5tupleIJDpT0_EEEE4typeERS6_, symObjAddr: 0x1F474, symBinAddr: 0x100021164, symSize: 0x24 }
  - { offsetInCU: 0x23DAA, offset: 0x23DAA, size: 0x8, addend: 0x0, symName: __ZSt28__throw_bad_array_new_lengthB7v160006v, symObjAddr: 0x4524, symBinAddr: 0x100006214, symSize: 0x34 }
  - { offsetInCU: 0x24722, offset: 0x24722, size: 0x8, addend: 0x0, symName: __ZNSt3__16vectorINS0_IcNS_9allocatorIcEEEENS1_IS3_EEE26__swap_out_circular_bufferERNS_14__split_bufferIS3_RS4_EE, symObjAddr: 0x3E24, symBinAddr: 0x100005B14, symSize: 0x118 }
  - { offsetInCU: 0x247BB, offset: 0x247BB, size: 0x8, addend: 0x0, symName: __ZNSt3__16vectorIcNS_9allocatorIcEEE26__swap_out_circular_bufferERNS_14__split_bufferIcRS2_EE, symObjAddr: 0x5B64, symBinAddr: 0x100007854, symSize: 0x118 }
  - { offsetInCU: 0x2486E, offset: 0x2486E, size: 0x8, addend: 0x0, symName: __ZNSt3__16vectorI5PointNS_9allocatorIS1_EEE26__swap_out_circular_bufferERNS_14__split_bufferIS1_RS3_EE, symObjAddr: 0x7D9C, symBinAddr: 0x100009A8C, symSize: 0x118 }
  - { offsetInCU: 0x26541, offset: 0x26541, size: 0x8, addend: 0x0, symName: __ZNSt3__16vectorI4RoomNS_9allocatorIS1_EEE26__swap_out_circular_bufferERNS_14__split_bufferIS1_RS3_EE, symObjAddr: 0x19D94, symBinAddr: 0x10001BA84, symSize: 0x118 }
  - { offsetInCU: 0x28943, offset: 0x28943, size: 0x8, addend: 0x0, symName: __ZeqRK5PointS1_, symObjAddr: 0x0, symBinAddr: 0x100001CF0, symSize: 0x64 }
  - { offsetInCU: 0x2897D, offset: 0x2897D, size: 0x8, addend: 0x0, symName: __ZneRK5PointS1_, symObjAddr: 0x64, symBinAddr: 0x100001D54, symSize: 0x64 }
  - { offsetInCU: 0x289B8, offset: 0x289B8, size: 0x8, addend: 0x0, symName: __Z5clearv, symObjAddr: 0xC8, symBinAddr: 0x100001DB8, symSize: 0x1C }
  - { offsetInCU: 0x289D2, offset: 0x289D2, size: 0x8, addend: 0x0, symName: _main, symObjAddr: 0xE4, symBinAddr: 0x100001DD4, symSize: 0xD8 }
  - { offsetInCU: 0x28A18, offset: 0x28A18, size: 0x8, addend: 0x0, symName: __ZN4RoomC1ERKiS1_, symObjAddr: 0x1BC, symBinAddr: 0x100001EAC, symSize: 0x3C }
  - { offsetInCU: 0x28A5E, offset: 0x28A5E, size: 0x8, addend: 0x0, symName: __ZN4Room4drawEv, symObjAddr: 0x1F8, symBinAddr: 0x100001EE8, symSize: 0x144 }
  - { offsetInCU: 0x28AD8, offset: 0x28AD8, size: 0x8, addend: 0x0, symName: __ZN4Room6updateEv, symObjAddr: 0x33C, symBinAddr: 0x10000202C, symSize: 0x51C }
  - { offsetInCU: 0x28B4D, offset: 0x28B4D, size: 0x8, addend: 0x0, symName: __ZN4RoomD1Ev, symObjAddr: 0x858, symBinAddr: 0x100002548, symSize: 0x2C }
  - { offsetInCU: 0x28B79, offset: 0x28B79, size: 0x8, addend: 0x0, symName: __ZN4RoomC2ERKiS1_, symObjAddr: 0x884, symBinAddr: 0x100002574, symSize: 0x108 }
  - { offsetInCU: 0x28BBF, offset: 0x28BBF, size: 0x8, addend: 0x0, symName: __ZN6RandomC1Ev, symObjAddr: 0x98C, symBinAddr: 0x10000267C, symSize: 0x2C }
  - { offsetInCU: 0x28BE9, offset: 0x28BE9, size: 0x8, addend: 0x0, symName: __ZNSt3__113unordered_mapIiP4RoomNS_4hashIiEENS_8equal_toIiEENS_9allocatorINS_4pairIKiS2_EEEEEC1B7v160006Ev, symObjAddr: 0x9B8, symBinAddr: 0x1000026A8, symSize: 0x2C }
  - { offsetInCU: 0x28C13, offset: 0x28C13, size: 0x8, addend: 0x0, symName: __ZNSt3__16vectorI4RoomNS_9allocatorIS1_EEEC1B7v160006Ev, symObjAddr: 0x9E4, symBinAddr: 0x1000026D4, symSize: 0x2C }
  - { offsetInCU: 0x28C3D, offset: 0x28C3D, size: 0x8, addend: 0x0, symName: __ZNSt3__16vectorINS0_IcNS_9allocatorIcEEEENS1_IS3_EEEC1B7v160006Ev, symObjAddr: 0xA10, symBinAddr: 0x100002700, symSize: 0x2C }
  - { offsetInCU: 0x28C67, offset: 0x28C67, size: 0x8, addend: 0x0, symName: __ZNSt3__16vectorI5PointNS_9allocatorIS1_EEEC1B7v160006Ev, symObjAddr: 0xA3C, symBinAddr: 0x10000272C, symSize: 0x2C }
  - { offsetInCU: 0x28C91, offset: 0x28C91, size: 0x8, addend: 0x0, symName: __ZNSt3__113unordered_mapI5Pointc11PointHasherNS_8equal_toIS1_EENS_9allocatorINS_4pairIKS1_cEEEEEC1B7v160006Ev, symObjAddr: 0xA68, symBinAddr: 0x100002758, symSize: 0x2C }
  - { offsetInCU: 0x28CBB, offset: 0x28CBB, size: 0x8, addend: 0x0, symName: __ZN6PlayerC1Ev, symObjAddr: 0xA94, symBinAddr: 0x100002784, symSize: 0x2C }
  - { offsetInCU: 0x28CE7, offset: 0x28CE7, size: 0x8, addend: 0x0, symName: __ZN4Room9setupRoomERKc, symObjAddr: 0xAC0, symBinAddr: 0x1000027B0, symSize: 0x98 }
  - { offsetInCU: 0x28D1B, offset: 0x28D1B, size: 0x8, addend: 0x0, symName: __ZNSt3__113unordered_mapI5Pointc11PointHasherNS_8equal_toIS1_EENS_9allocatorINS_4pairIKS1_cEEEEED1B7v160006Ev, symObjAddr: 0xB58, symBinAddr: 0x100002848, symSize: 0x2C }
  - { offsetInCU: 0x28D45, offset: 0x28D45, size: 0x8, addend: 0x0, symName: __ZNSt3__16vectorI5PointNS_9allocatorIS1_EEED1B7v160006Ev, symObjAddr: 0xB84, symBinAddr: 0x100002874, symSize: 0x2C }
  - { offsetInCU: 0x28D6F, offset: 0x28D6F, size: 0x8, addend: 0x0, symName: __ZNSt3__16vectorINS0_IcNS_9allocatorIcEEEENS1_IS3_EEED1B7v160006Ev, symObjAddr: 0xBB0, symBinAddr: 0x1000028A0, symSize: 0x2C }
  - { offsetInCU: 0x28D99, offset: 0x28D99, size: 0x8, addend: 0x0, symName: __ZNSt3__16vectorI4RoomNS_9allocatorIS1_EEED1B7v160006Ev, symObjAddr: 0xBDC, symBinAddr: 0x1000028CC, symSize: 0x2C }
  - { offsetInCU: 0x28DC3, offset: 0x28DC3, size: 0x8, addend: 0x0, symName: __ZNSt3__113unordered_mapIiP4RoomNS_4hashIiEENS_8equal_toIiEENS_9allocatorINS_4pairIKiS2_EEEEED1B7v160006Ev, symObjAddr: 0xC08, symBinAddr: 0x1000028F8, symSize: 0x2C }
  - { offsetInCU: 0x28DED, offset: 0x28DED, size: 0x8, addend: 0x0, symName: __ZN6RandomC2Ev, symObjAddr: 0xC34, symBinAddr: 0x100002924, symSize: 0x34 }
  - { offsetInCU: 0x28E17, offset: 0x28E17, size: 0x8, addend: 0x0, symName: __ZNSt3__113unordered_mapIiP4RoomNS_4hashIiEENS_8equal_toIiEENS_9allocatorINS_4pairIKiS2_EEEEEC2B7v160006Ev, symObjAddr: 0xC68, symBinAddr: 0x100002958, symSize: 0x3C }
  - { offsetInCU: 0x28E41, offset: 0x28E41, size: 0x8, addend: 0x0, symName: __ZNSt3__112__hash_tableINS_17__hash_value_typeIiP4RoomEENS_22__unordered_map_hasherIiS4_NS_4hashIiEENS_8equal_toIiEELb1EEENS_21__unordered_map_equalIiS4_S9_S7_Lb1EEENS_9allocatorIS4_EEEC1Ev, symObjAddr: 0xCA4, symBinAddr: 0x100002994, symSize: 0x2C }
  - { offsetInCU: 0x28E6D, offset: 0x28E6D, size: 0x8, addend: 0x0, symName: __ZNSt3__112__hash_tableINS_17__hash_value_typeIiP4RoomEENS_22__unordered_map_hasherIiS4_NS_4hashIiEENS_8equal_toIiEELb1EEENS_21__unordered_map_equalIiS4_S9_S7_Lb1EEENS_9allocatorIS4_EEEC2Ev, symObjAddr: 0xCEC, symBinAddr: 0x1000029DC, symSize: 0x7C }
  - { offsetInCU: 0x28E99, offset: 0x28E99, size: 0x8, addend: 0x0, symName: __ZNSt3__110unique_ptrIA_PNS_16__hash_node_baseIPNS_11__hash_nodeINS_17__hash_value_typeIiP4RoomEEPvEEEENS_25__bucket_list_deallocatorINS_9allocatorISB_EEEEEC1B7v160006ILb1EvEEv, symObjAddr: 0xD68, symBinAddr: 0x100002A58, symSize: 0x2C }
  - { offsetInCU: 0x28ECE, offset: 0x28ECE, size: 0x8, addend: 0x0, symName: __ZNSt3__117__compressed_pairINS_16__hash_node_baseIPNS_11__hash_nodeINS_17__hash_value_typeIiP4RoomEEPvEEEENS_9allocatorIS8_EEEC1B7v160006ILb1EvEEv, symObjAddr: 0xD94, symBinAddr: 0x100002A84, symSize: 0x2C }
  - { offsetInCU: 0x28F09, offset: 0x28F09, size: 0x8, addend: 0x0, symName: __ZNSt3__117__compressed_pairImNS_22__unordered_map_hasherIiNS_17__hash_value_typeIiP4RoomEENS_4hashIiEENS_8equal_toIiEELb1EEEEC1B7v160006IiNS_18__default_init_tagEEEOT_OT0_, symObjAddr: 0xDC0, symBinAddr: 0x100002AB0, symSize: 0x3C }
  - { offsetInCU: 0x28F67, offset: 0x28F67, size: 0x8, addend: 0x0, symName: __ZNSt3__117__compressed_pairIfNS_21__unordered_map_equalIiNS_17__hash_value_typeIiP4RoomEENS_8equal_toIiEENS_4hashIiEELb1EEEEC1B7v160006IfNS_18__default_init_tagEEEOT_OT0_, symObjAddr: 0xDFC, symBinAddr: 0x100002AEC, symSize: 0x3C }
  - { offsetInCU: 0x28FBF, offset: 0x28FBF, size: 0x8, addend: 0x0, symName: __ZNSt3__110unique_ptrIA_PNS_16__hash_node_baseIPNS_11__hash_nodeINS_17__hash_value_typeIiP4RoomEEPvEEEENS_25__bucket_list_deallocatorINS_9allocatorISB_EEEEEC2B7v160006ILb1EvEEv, symObjAddr: 0xE38, symBinAddr: 0x100002B28, symSize: 0x3C }
  - { offsetInCU: 0x28FFA, offset: 0x28FFA, size: 0x8, addend: 0x0, symName: __ZNSt3__117__compressed_pairIPPNS_16__hash_node_baseIPNS_11__hash_nodeINS_17__hash_value_typeIiP4RoomEEPvEEEENS_25__bucket_list_deallocatorINS_9allocatorISB_EEEEEC1B7v160006INS_16__value_init_tagESJ_EEOT_OT0_, symObjAddr: 0xE74, symBinAddr: 0x100002B64, symSize: 0x3C }
  - { offsetInCU: 0x29052, offset: 0x29052, size: 0x8, addend: 0x0, symName: __ZNSt3__117__compressed_pairIPPNS_16__hash_node_baseIPNS_11__hash_nodeINS_17__hash_value_typeIiP4RoomEEPvEEEENS_25__bucket_list_deallocatorINS_9allocatorISB_EEEEEC2B7v160006INS_16__value_init_tagESJ_EEOT_OT0_, symObjAddr: 0xEB0, symBinAddr: 0x100002BA0, symSize: 0x40 }
  - { offsetInCU: 0x290AA, offset: 0x290AA, size: 0x8, addend: 0x0, symName: __ZNSt3__122__compressed_pair_elemIPPNS_16__hash_node_baseIPNS_11__hash_nodeINS_17__hash_value_typeIiP4RoomEEPvEEEELi0ELb0EEC2B7v160006ENS_16__value_init_tagE, symObjAddr: 0xEF0, symBinAddr: 0x100002BE0, symSize: 0x18 }
  - { offsetInCU: 0x290DE, offset: 0x290DE, size: 0x8, addend: 0x0, symName: __ZNSt3__122__compressed_pair_elemINS_25__bucket_list_deallocatorINS_9allocatorIPNS_16__hash_node_baseIPNS_11__hash_nodeINS_17__hash_value_typeIiP4RoomEEPvEEEEEEEELi1ELb0EEC2B7v160006ENS_16__value_init_tagE, symObjAddr: 0xF08, symBinAddr: 0x100002BF8, symSize: 0x2C }
  - { offsetInCU: 0x29112, offset: 0x29112, size: 0x8, addend: 0x0, symName: __ZNSt3__125__bucket_list_deallocatorINS_9allocatorIPNS_16__hash_node_baseIPNS_11__hash_nodeINS_17__hash_value_typeIiP4RoomEEPvEEEEEEEC1B7v160006Ev, symObjAddr: 0xF34, symBinAddr: 0x100002C24, symSize: 0x2C }
  - { offsetInCU: 0x2913C, offset: 0x2913C, size: 0x8, addend: 0x0, symName: __ZNSt3__125__bucket_list_deallocatorINS_9allocatorIPNS_16__hash_node_baseIPNS_11__hash_nodeINS_17__hash_value_typeIiP4RoomEEPvEEEEEEEC2B7v160006Ev, symObjAddr: 0xF60, symBinAddr: 0x100002C50, symSize: 0x40 }
  - { offsetInCU: 0x29166, offset: 0x29166, size: 0x8, addend: 0x0, symName: __ZNSt3__117__compressed_pairImNS_9allocatorIPNS_16__hash_node_baseIPNS_11__hash_nodeINS_17__hash_value_typeIiP4RoomEEPvEEEEEEEC1B7v160006IiNS_18__default_init_tagEEEOT_OT0_, symObjAddr: 0xFA0, symBinAddr: 0x100002C90, symSize: 0x3C }
  - { offsetInCU: 0x291BE, offset: 0x291BE, size: 0x8, addend: 0x0, symName: __ZNSt3__117__compressed_pairImNS_9allocatorIPNS_16__hash_node_baseIPNS_11__hash_nodeINS_17__hash_value_typeIiP4RoomEEPvEEEEEEEC2B7v160006IiNS_18__default_init_tagEEEOT_OT0_, symObjAddr: 0xFDC, symBinAddr: 0x100002CCC, symSize: 0x40 }
  - { offsetInCU: 0x29216, offset: 0x29216, size: 0x8, addend: 0x0, symName: __ZNSt3__122__compressed_pair_elemImLi0ELb0EEC2B7v160006IivEEOT_, symObjAddr: 0x101C, symBinAddr: 0x100002D0C, symSize: 0x24 }
  - { offsetInCU: 0x29258, offset: 0x29258, size: 0x8, addend: 0x0, symName: __ZNSt3__122__compressed_pair_elemINS_9allocatorIPNS_16__hash_node_baseIPNS_11__hash_nodeINS_17__hash_value_typeIiP4RoomEEPvEEEEEELi1ELb1EEC2B7v160006ENS_18__default_init_tagE, symObjAddr: 0x1040, symBinAddr: 0x100002D30, symSize: 0x2C }
  - { offsetInCU: 0x2928C, offset: 0x2928C, size: 0x8, addend: 0x0, symName: __ZNSt3__19allocatorIPNS_16__hash_node_baseIPNS_11__hash_nodeINS_17__hash_value_typeIiP4RoomEEPvEEEEEC2B7v160006Ev, symObjAddr: 0x106C, symBinAddr: 0x100002D5C, symSize: 0x2C }
  - { offsetInCU: 0x292B6, offset: 0x292B6, size: 0x8, addend: 0x0, symName: __ZNSt3__116__non_trivial_ifILb1ENS_9allocatorIPNS_16__hash_node_baseIPNS_11__hash_nodeINS_17__hash_value_typeIiP4RoomEEPvEEEEEEEC2B7v160006Ev, symObjAddr: 0x1098, symBinAddr: 0x100002D88, symSize: 0x14 }
  - { offsetInCU: 0x292E0, offset: 0x292E0, size: 0x8, addend: 0x0, symName: __ZNSt3__117__compressed_pairINS_16__hash_node_baseIPNS_11__hash_nodeINS_17__hash_value_typeIiP4RoomEEPvEEEENS_9allocatorIS8_EEEC2B7v160006ILb1EvEEv, symObjAddr: 0x10AC, symBinAddr: 0x100002D9C, symSize: 0x34 }
  - { offsetInCU: 0x29315, offset: 0x29315, size: 0x8, addend: 0x0, symName: __ZNSt3__122__compressed_pair_elemINS_16__hash_node_baseIPNS_11__hash_nodeINS_17__hash_value_typeIiP4RoomEEPvEEEELi0ELb0EEC2B7v160006ENS_16__value_init_tagE, symObjAddr: 0x10E0, symBinAddr: 0x100002DD0, symSize: 0x2C }
  - { offsetInCU: 0x29349, offset: 0x29349, size: 0x8, addend: 0x0, symName: __ZNSt3__122__compressed_pair_elemINS_9allocatorINS_11__hash_nodeINS_17__hash_value_typeIiP4RoomEEPvEEEELi1ELb1EEC2B7v160006ENS_16__value_init_tagE, symObjAddr: 0x110C, symBinAddr: 0x100002DFC, symSize: 0x2C }
  - { offsetInCU: 0x2937D, offset: 0x2937D, size: 0x8, addend: 0x0, symName: __ZNSt3__116__hash_node_baseIPNS_11__hash_nodeINS_17__hash_value_typeIiP4RoomEEPvEEEC1B7v160006Ev, symObjAddr: 0x1138, symBinAddr: 0x100002E28, symSize: 0x2C }
  - { offsetInCU: 0x293A7, offset: 0x293A7, size: 0x8, addend: 0x0, symName: __ZNSt3__116__hash_node_baseIPNS_11__hash_nodeINS_17__hash_value_typeIiP4RoomEEPvEEEC2B7v160006Ev, symObjAddr: 0x1164, symBinAddr: 0x100002E54, symSize: 0x18 }
  - { offsetInCU: 0x293D1, offset: 0x293D1, size: 0x8, addend: 0x0, symName: __ZNSt3__19allocatorINS_11__hash_nodeINS_17__hash_value_typeIiP4RoomEEPvEEEC2B7v160006Ev, symObjAddr: 0x117C, symBinAddr: 0x100002E6C, symSize: 0x2C }
  - { offsetInCU: 0x293FB, offset: 0x293FB, size: 0x8, addend: 0x0, symName: __ZNSt3__116__non_trivial_ifILb1ENS_9allocatorINS_11__hash_nodeINS_17__hash_value_typeIiP4RoomEEPvEEEEEC2B7v160006Ev, symObjAddr: 0x11A8, symBinAddr: 0x100002E98, symSize: 0x14 }
  - { offsetInCU: 0x29425, offset: 0x29425, size: 0x8, addend: 0x0, symName: __ZNSt3__117__compressed_pairImNS_22__unordered_map_hasherIiNS_17__hash_value_typeIiP4RoomEENS_4hashIiEENS_8equal_toIiEELb1EEEEC2B7v160006IiNS_18__default_init_tagEEEOT_OT0_, symObjAddr: 0x11BC, symBinAddr: 0x100002EAC, symSize: 0x40 }
  - { offsetInCU: 0x2947D, offset: 0x2947D, size: 0x8, addend: 0x0, symName: __ZNSt3__122__compressed_pair_elemINS_22__unordered_map_hasherIiNS_17__hash_value_typeIiP4RoomEENS_4hashIiEENS_8equal_toIiEELb1EEELi1ELb1EEC2B7v160006ENS_18__default_init_tagE, symObjAddr: 0x11FC, symBinAddr: 0x100002EEC, symSize: 0x2C }
  - { offsetInCU: 0x294B1, offset: 0x294B1, size: 0x8, addend: 0x0, symName: __ZNSt3__122__unordered_map_hasherIiNS_17__hash_value_typeIiP4RoomEENS_4hashIiEENS_8equal_toIiEELb1EEC2B7v160006Ev, symObjAddr: 0x1228, symBinAddr: 0x100002F18, symSize: 0x14 }
  - { offsetInCU: 0x294DB, offset: 0x294DB, size: 0x8, addend: 0x0, symName: __ZNSt3__117__compressed_pairIfNS_21__unordered_map_equalIiNS_17__hash_value_typeIiP4RoomEENS_8equal_toIiEENS_4hashIiEELb1EEEEC2B7v160006IfNS_18__default_init_tagEEEOT_OT0_, symObjAddr: 0x123C, symBinAddr: 0x100002F2C, symSize: 0x40 }
  - { offsetInCU: 0x29533, offset: 0x29533, size: 0x8, addend: 0x0, symName: __ZNSt3__122__compressed_pair_elemIfLi0ELb0EEC2B7v160006IfvEEOT_, symObjAddr: 0x127C, symBinAddr: 0x100002F6C, symSize: 0x24 }
  - { offsetInCU: 0x29575, offset: 0x29575, size: 0x8, addend: 0x0, symName: __ZNSt3__122__compressed_pair_elemINS_21__unordered_map_equalIiNS_17__hash_value_typeIiP4RoomEENS_8equal_toIiEENS_4hashIiEELb1EEELi1ELb1EEC2B7v160006ENS_18__default_init_tagE, symObjAddr: 0x12A0, symBinAddr: 0x100002F90, symSize: 0x2C }
  - { offsetInCU: 0x295A9, offset: 0x295A9, size: 0x8, addend: 0x0, symName: __ZNSt3__121__unordered_map_equalIiNS_17__hash_value_typeIiP4RoomEENS_8equal_toIiEENS_4hashIiEELb1EEC2B7v160006Ev, symObjAddr: 0x12CC, symBinAddr: 0x100002FBC, symSize: 0x14 }
  - { offsetInCU: 0x295D3, offset: 0x295D3, size: 0x8, addend: 0x0, symName: __ZNSt3__16vectorI4RoomNS_9allocatorIS1_EEEC2B7v160006Ev, symObjAddr: 0x12E0, symBinAddr: 0x100002FD0, symSize: 0x58 }
  - { offsetInCU: 0x29603, offset: 0x29603, size: 0x8, addend: 0x0, symName: __ZNSt3__117__compressed_pairIP4RoomNS_9allocatorIS1_EEEC1B7v160006IDnNS_18__default_init_tagEEEOT_OT0_, symObjAddr: 0x1338, symBinAddr: 0x100003028, symSize: 0x3C }
  - { offsetInCU: 0x2965B, offset: 0x2965B, size: 0x8, addend: 0x0, symName: __ZNSt3__117__compressed_pairIP4RoomNS_9allocatorIS1_EEEC2B7v160006IDnNS_18__default_init_tagEEEOT_OT0_, symObjAddr: 0x1384, symBinAddr: 0x100003074, symSize: 0x40 }
  - { offsetInCU: 0x296B3, offset: 0x296B3, size: 0x8, addend: 0x0, symName: __ZNSt3__122__compressed_pair_elemIP4RoomLi0ELb0EEC2B7v160006IDnvEEOT_, symObjAddr: 0x13C4, symBinAddr: 0x1000030B4, symSize: 0x1C }
  - { offsetInCU: 0x296F5, offset: 0x296F5, size: 0x8, addend: 0x0, symName: __ZNSt3__122__compressed_pair_elemINS_9allocatorI4RoomEELi1ELb1EEC2B7v160006ENS_18__default_init_tagE, symObjAddr: 0x13E0, symBinAddr: 0x1000030D0, symSize: 0x2C }
  - { offsetInCU: 0x29729, offset: 0x29729, size: 0x8, addend: 0x0, symName: __ZNSt3__19allocatorI4RoomEC2B7v160006Ev, symObjAddr: 0x140C, symBinAddr: 0x1000030FC, symSize: 0x2C }
  - { offsetInCU: 0x29753, offset: 0x29753, size: 0x8, addend: 0x0, symName: __ZNSt3__116__non_trivial_ifILb1ENS_9allocatorI4RoomEEEC2B7v160006Ev, symObjAddr: 0x1438, symBinAddr: 0x100003128, symSize: 0x14 }
  - { offsetInCU: 0x2977D, offset: 0x2977D, size: 0x8, addend: 0x0, symName: __ZNSt3__16vectorINS0_IcNS_9allocatorIcEEEENS1_IS3_EEEC2B7v160006Ev, symObjAddr: 0x144C, symBinAddr: 0x10000313C, symSize: 0x58 }
  - { offsetInCU: 0x297A7, offset: 0x297A7, size: 0x8, addend: 0x0, symName: __ZNSt3__117__compressed_pairIPNS_6vectorIcNS_9allocatorIcEEEENS2_IS4_EEEC1B7v160006IDnNS_18__default_init_tagEEEOT_OT0_, symObjAddr: 0x14A4, symBinAddr: 0x100003194, symSize: 0x3C }
  - { offsetInCU: 0x297FF, offset: 0x297FF, size: 0x8, addend: 0x0, symName: __ZNSt3__117__compressed_pairIPNS_6vectorIcNS_9allocatorIcEEEENS2_IS4_EEEC2B7v160006IDnNS_18__default_init_tagEEEOT_OT0_, symObjAddr: 0x14F0, symBinAddr: 0x1000031E0, symSize: 0x40 }
  - { offsetInCU: 0x29857, offset: 0x29857, size: 0x8, addend: 0x0, symName: __ZNSt3__122__compressed_pair_elemIPNS_6vectorIcNS_9allocatorIcEEEELi0ELb0EEC2B7v160006IDnvEEOT_, symObjAddr: 0x1530, symBinAddr: 0x100003220, symSize: 0x1C }
  - { offsetInCU: 0x29899, offset: 0x29899, size: 0x8, addend: 0x0, symName: __ZNSt3__122__compressed_pair_elemINS_9allocatorINS_6vectorIcNS1_IcEEEEEELi1ELb1EEC2B7v160006ENS_18__default_init_tagE, symObjAddr: 0x154C, symBinAddr: 0x10000323C, symSize: 0x2C }
  - { offsetInCU: 0x298CD, offset: 0x298CD, size: 0x8, addend: 0x0, symName: __ZNSt3__19allocatorINS_6vectorIcNS0_IcEEEEEC2B7v160006Ev, symObjAddr: 0x1578, symBinAddr: 0x100003268, symSize: 0x2C }
  - { offsetInCU: 0x298F7, offset: 0x298F7, size: 0x8, addend: 0x0, symName: __ZNSt3__116__non_trivial_ifILb1ENS_9allocatorINS_6vectorIcNS1_IcEEEEEEEC2B7v160006Ev, symObjAddr: 0x15A4, symBinAddr: 0x100003294, symSize: 0x14 }
  - { offsetInCU: 0x29921, offset: 0x29921, size: 0x8, addend: 0x0, symName: __ZNSt3__16vectorI5PointNS_9allocatorIS1_EEEC2B7v160006Ev, symObjAddr: 0x15B8, symBinAddr: 0x1000032A8, symSize: 0x58 }
  - { offsetInCU: 0x2994B, offset: 0x2994B, size: 0x8, addend: 0x0, symName: __ZNSt3__117__compressed_pairIP5PointNS_9allocatorIS1_EEEC1B7v160006IDnNS_18__default_init_tagEEEOT_OT0_, symObjAddr: 0x1610, symBinAddr: 0x100003300, symSize: 0x3C }
  - { offsetInCU: 0x299A3, offset: 0x299A3, size: 0x8, addend: 0x0, symName: __ZNSt3__117__compressed_pairIP5PointNS_9allocatorIS1_EEEC2B7v160006IDnNS_18__default_init_tagEEEOT_OT0_, symObjAddr: 0x165C, symBinAddr: 0x10000334C, symSize: 0x40 }
  - { offsetInCU: 0x299FB, offset: 0x299FB, size: 0x8, addend: 0x0, symName: __ZNSt3__122__compressed_pair_elemIP5PointLi0ELb0EEC2B7v160006IDnvEEOT_, symObjAddr: 0x169C, symBinAddr: 0x10000338C, symSize: 0x1C }
  - { offsetInCU: 0x29A3D, offset: 0x29A3D, size: 0x8, addend: 0x0, symName: __ZNSt3__122__compressed_pair_elemINS_9allocatorI5PointEELi1ELb1EEC2B7v160006ENS_18__default_init_tagE, symObjAddr: 0x16B8, symBinAddr: 0x1000033A8, symSize: 0x2C }
  - { offsetInCU: 0x29A71, offset: 0x29A71, size: 0x8, addend: 0x0, symName: __ZNSt3__19allocatorI5PointEC2B7v160006Ev, symObjAddr: 0x16E4, symBinAddr: 0x1000033D4, symSize: 0x2C }
  - { offsetInCU: 0x29A9B, offset: 0x29A9B, size: 0x8, addend: 0x0, symName: __ZNSt3__116__non_trivial_ifILb1ENS_9allocatorI5PointEEEC2B7v160006Ev, symObjAddr: 0x1710, symBinAddr: 0x100003400, symSize: 0x14 }
  - { offsetInCU: 0x29AC5, offset: 0x29AC5, size: 0x8, addend: 0x0, symName: __ZNSt3__113unordered_mapI5Pointc11PointHasherNS_8equal_toIS1_EENS_9allocatorINS_4pairIKS1_cEEEEEC2B7v160006Ev, symObjAddr: 0x1724, symBinAddr: 0x100003414, symSize: 0x3C }
  - { offsetInCU: 0x29AEF, offset: 0x29AEF, size: 0x8, addend: 0x0, symName: __ZNSt3__112__hash_tableINS_17__hash_value_typeI5PointcEENS_22__unordered_map_hasherIS2_S3_11PointHasherNS_8equal_toIS2_EELb1EEENS_21__unordered_map_equalIS2_S3_S7_S5_Lb1EEENS_9allocatorIS3_EEEC1Ev, symObjAddr: 0x1760, symBinAddr: 0x100003450, symSize: 0x2C }
  - { offsetInCU: 0x29B1B, offset: 0x29B1B, size: 0x8, addend: 0x0, symName: __ZNSt3__112__hash_tableINS_17__hash_value_typeI5PointcEENS_22__unordered_map_hasherIS2_S3_11PointHasherNS_8equal_toIS2_EELb1EEENS_21__unordered_map_equalIS2_S3_S7_S5_Lb1EEENS_9allocatorIS3_EEEC2Ev, symObjAddr: 0x179C, symBinAddr: 0x10000348C, symSize: 0x7C }
  - { offsetInCU: 0x29B47, offset: 0x29B47, size: 0x8, addend: 0x0, symName: __ZNSt3__110unique_ptrIA_PNS_16__hash_node_baseIPNS_11__hash_nodeINS_17__hash_value_typeI5PointcEEPvEEEENS_25__bucket_list_deallocatorINS_9allocatorISA_EEEEEC1B7v160006ILb1EvEEv, symObjAddr: 0x1818, symBinAddr: 0x100003508, symSize: 0x2C }
  - { offsetInCU: 0x29B7C, offset: 0x29B7C, size: 0x8, addend: 0x0, symName: __ZNSt3__117__compressed_pairINS_16__hash_node_baseIPNS_11__hash_nodeINS_17__hash_value_typeI5PointcEEPvEEEENS_9allocatorIS7_EEEC1B7v160006ILb1EvEEv, symObjAddr: 0x1844, symBinAddr: 0x100003534, symSize: 0x2C }
  - { offsetInCU: 0x29BB1, offset: 0x29BB1, size: 0x8, addend: 0x0, symName: __ZNSt3__117__compressed_pairImNS_22__unordered_map_hasherI5PointNS_17__hash_value_typeIS2_cEE11PointHasherNS_8equal_toIS2_EELb1EEEEC1B7v160006IiNS_18__default_init_tagEEEOT_OT0_, symObjAddr: 0x1870, symBinAddr: 0x100003560, symSize: 0x3C }
  - { offsetInCU: 0x29C09, offset: 0x29C09, size: 0x8, addend: 0x0, symName: __ZNSt3__117__compressed_pairIfNS_21__unordered_map_equalI5PointNS_17__hash_value_typeIS2_cEENS_8equal_toIS2_EE11PointHasherLb1EEEEC1B7v160006IfNS_18__default_init_tagEEEOT_OT0_, symObjAddr: 0x18AC, symBinAddr: 0x10000359C, symSize: 0x3C }
  - { offsetInCU: 0x29C61, offset: 0x29C61, size: 0x8, addend: 0x0, symName: __ZNSt3__110unique_ptrIA_PNS_16__hash_node_baseIPNS_11__hash_nodeINS_17__hash_value_typeI5PointcEEPvEEEENS_25__bucket_list_deallocatorINS_9allocatorISA_EEEEEC2B7v160006ILb1EvEEv, symObjAddr: 0x18E8, symBinAddr: 0x1000035D8, symSize: 0x3C }
  - { offsetInCU: 0x29C96, offset: 0x29C96, size: 0x8, addend: 0x0, symName: __ZNSt3__117__compressed_pairIPPNS_16__hash_node_baseIPNS_11__hash_nodeINS_17__hash_value_typeI5PointcEEPvEEEENS_25__bucket_list_deallocatorINS_9allocatorISA_EEEEEC1B7v160006INS_16__value_init_tagESI_EEOT_OT0_, symObjAddr: 0x1924, symBinAddr: 0x100003614, symSize: 0x3C }
  - { offsetInCU: 0x29CEE, offset: 0x29CEE, size: 0x8, addend: 0x0, symName: __ZNSt3__117__compressed_pairIPPNS_16__hash_node_baseIPNS_11__hash_nodeINS_17__hash_value_typeI5PointcEEPvEEEENS_25__bucket_list_deallocatorINS_9allocatorISA_EEEEEC2B7v160006INS_16__value_init_tagESI_EEOT_OT0_, symObjAddr: 0x1960, symBinAddr: 0x100003650, symSize: 0x40 }
  - { offsetInCU: 0x29D46, offset: 0x29D46, size: 0x8, addend: 0x0, symName: __ZNSt3__122__compressed_pair_elemIPPNS_16__hash_node_baseIPNS_11__hash_nodeINS_17__hash_value_typeI5PointcEEPvEEEELi0ELb0EEC2B7v160006ENS_16__value_init_tagE, symObjAddr: 0x19A0, symBinAddr: 0x100003690, symSize: 0x18 }
  - { offsetInCU: 0x29D7A, offset: 0x29D7A, size: 0x8, addend: 0x0, symName: __ZNSt3__122__compressed_pair_elemINS_25__bucket_list_deallocatorINS_9allocatorIPNS_16__hash_node_baseIPNS_11__hash_nodeINS_17__hash_value_typeI5PointcEEPvEEEEEEEELi1ELb0EEC2B7v160006ENS_16__value_init_tagE, symObjAddr: 0x19B8, symBinAddr: 0x1000036A8, symSize: 0x2C }
  - { offsetInCU: 0x29DAE, offset: 0x29DAE, size: 0x8, addend: 0x0, symName: __ZNSt3__125__bucket_list_deallocatorINS_9allocatorIPNS_16__hash_node_baseIPNS_11__hash_nodeINS_17__hash_value_typeI5PointcEEPvEEEEEEEC1B7v160006Ev, symObjAddr: 0x19E4, symBinAddr: 0x1000036D4, symSize: 0x2C }
  - { offsetInCU: 0x29DD8, offset: 0x29DD8, size: 0x8, addend: 0x0, symName: __ZNSt3__125__bucket_list_deallocatorINS_9allocatorIPNS_16__hash_node_baseIPNS_11__hash_nodeINS_17__hash_value_typeI5PointcEEPvEEEEEEEC2B7v160006Ev, symObjAddr: 0x1A10, symBinAddr: 0x100003700, symSize: 0x40 }
  - { offsetInCU: 0x29E02, offset: 0x29E02, size: 0x8, addend: 0x0, symName: __ZNSt3__117__compressed_pairImNS_9allocatorIPNS_16__hash_node_baseIPNS_11__hash_nodeINS_17__hash_value_typeI5PointcEEPvEEEEEEEC1B7v160006IiNS_18__default_init_tagEEEOT_OT0_, symObjAddr: 0x1A50, symBinAddr: 0x100003740, symSize: 0x3C }
  - { offsetInCU: 0x29E5A, offset: 0x29E5A, size: 0x8, addend: 0x0, symName: __ZNSt3__117__compressed_pairImNS_9allocatorIPNS_16__hash_node_baseIPNS_11__hash_nodeINS_17__hash_value_typeI5PointcEEPvEEEEEEEC2B7v160006IiNS_18__default_init_tagEEEOT_OT0_, symObjAddr: 0x1A8C, symBinAddr: 0x10000377C, symSize: 0x40 }
  - { offsetInCU: 0x29EB2, offset: 0x29EB2, size: 0x8, addend: 0x0, symName: __ZNSt3__122__compressed_pair_elemINS_9allocatorIPNS_16__hash_node_baseIPNS_11__hash_nodeINS_17__hash_value_typeI5PointcEEPvEEEEEELi1ELb1EEC2B7v160006ENS_18__default_init_tagE, symObjAddr: 0x1ACC, symBinAddr: 0x1000037BC, symSize: 0x2C }
  - { offsetInCU: 0x29EE6, offset: 0x29EE6, size: 0x8, addend: 0x0, symName: __ZNSt3__19allocatorIPNS_16__hash_node_baseIPNS_11__hash_nodeINS_17__hash_value_typeI5PointcEEPvEEEEEC2B7v160006Ev, symObjAddr: 0x1AF8, symBinAddr: 0x1000037E8, symSize: 0x2C }
  - { offsetInCU: 0x29F10, offset: 0x29F10, size: 0x8, addend: 0x0, symName: __ZNSt3__116__non_trivial_ifILb1ENS_9allocatorIPNS_16__hash_node_baseIPNS_11__hash_nodeINS_17__hash_value_typeI5PointcEEPvEEEEEEEC2B7v160006Ev, symObjAddr: 0x1B24, symBinAddr: 0x100003814, symSize: 0x14 }
  - { offsetInCU: 0x29F3A, offset: 0x29F3A, size: 0x8, addend: 0x0, symName: __ZNSt3__117__compressed_pairINS_16__hash_node_baseIPNS_11__hash_nodeINS_17__hash_value_typeI5PointcEEPvEEEENS_9allocatorIS7_EEEC2B7v160006ILb1EvEEv, symObjAddr: 0x1B38, symBinAddr: 0x100003828, symSize: 0x34 }
  - { offsetInCU: 0x29F6F, offset: 0x29F6F, size: 0x8, addend: 0x0, symName: __ZNSt3__122__compressed_pair_elemINS_16__hash_node_baseIPNS_11__hash_nodeINS_17__hash_value_typeI5PointcEEPvEEEELi0ELb0EEC2B7v160006ENS_16__value_init_tagE, symObjAddr: 0x1B6C, symBinAddr: 0x10000385C, symSize: 0x2C }
  - { offsetInCU: 0x29FA3, offset: 0x29FA3, size: 0x8, addend: 0x0, symName: __ZNSt3__122__compressed_pair_elemINS_9allocatorINS_11__hash_nodeINS_17__hash_value_typeI5PointcEEPvEEEELi1ELb1EEC2B7v160006ENS_16__value_init_tagE, symObjAddr: 0x1B98, symBinAddr: 0x100003888, symSize: 0x2C }
  - { offsetInCU: 0x29FD7, offset: 0x29FD7, size: 0x8, addend: 0x0, symName: __ZNSt3__116__hash_node_baseIPNS_11__hash_nodeINS_17__hash_value_typeI5PointcEEPvEEEC1B7v160006Ev, symObjAddr: 0x1BC4, symBinAddr: 0x1000038B4, symSize: 0x2C }
  - { offsetInCU: 0x2A001, offset: 0x2A001, size: 0x8, addend: 0x0, symName: __ZNSt3__116__hash_node_baseIPNS_11__hash_nodeINS_17__hash_value_typeI5PointcEEPvEEEC2B7v160006Ev, symObjAddr: 0x1BF0, symBinAddr: 0x1000038E0, symSize: 0x18 }
  - { offsetInCU: 0x2A02B, offset: 0x2A02B, size: 0x8, addend: 0x0, symName: __ZNSt3__19allocatorINS_11__hash_nodeINS_17__hash_value_typeI5PointcEEPvEEEC2B7v160006Ev, symObjAddr: 0x1C08, symBinAddr: 0x1000038F8, symSize: 0x2C }
  - { offsetInCU: 0x2A055, offset: 0x2A055, size: 0x8, addend: 0x0, symName: __ZNSt3__116__non_trivial_ifILb1ENS_9allocatorINS_11__hash_nodeINS_17__hash_value_typeI5PointcEEPvEEEEEC2B7v160006Ev, symObjAddr: 0x1C34, symBinAddr: 0x100003924, symSize: 0x14 }
  - { offsetInCU: 0x2A07F, offset: 0x2A07F, size: 0x8, addend: 0x0, symName: __ZNSt3__117__compressed_pairImNS_22__unordered_map_hasherI5PointNS_17__hash_value_typeIS2_cEE11PointHasherNS_8equal_toIS2_EELb1EEEEC2B7v160006IiNS_18__default_init_tagEEEOT_OT0_, symObjAddr: 0x1C48, symBinAddr: 0x100003938, symSize: 0x40 }
  - { offsetInCU: 0x2A0D7, offset: 0x2A0D7, size: 0x8, addend: 0x0, symName: __ZNSt3__122__compressed_pair_elemINS_22__unordered_map_hasherI5PointNS_17__hash_value_typeIS2_cEE11PointHasherNS_8equal_toIS2_EELb1EEELi1ELb1EEC2B7v160006ENS_18__default_init_tagE, symObjAddr: 0x1C88, symBinAddr: 0x100003978, symSize: 0x2C }
  - { offsetInCU: 0x2A10B, offset: 0x2A10B, size: 0x8, addend: 0x0, symName: __ZNSt3__122__unordered_map_hasherI5PointNS_17__hash_value_typeIS1_cEE11PointHasherNS_8equal_toIS1_EELb1EEC2B7v160006Ev, symObjAddr: 0x1CB4, symBinAddr: 0x1000039A4, symSize: 0x14 }
  - { offsetInCU: 0x2A135, offset: 0x2A135, size: 0x8, addend: 0x0, symName: __ZNSt3__117__compressed_pairIfNS_21__unordered_map_equalI5PointNS_17__hash_value_typeIS2_cEENS_8equal_toIS2_EE11PointHasherLb1EEEEC2B7v160006IfNS_18__default_init_tagEEEOT_OT0_, symObjAddr: 0x1CC8, symBinAddr: 0x1000039B8, symSize: 0x40 }
  - { offsetInCU: 0x2A18D, offset: 0x2A18D, size: 0x8, addend: 0x0, symName: __ZNSt3__122__compressed_pair_elemINS_21__unordered_map_equalI5PointNS_17__hash_value_typeIS2_cEENS_8equal_toIS2_EE11PointHasherLb1EEELi1ELb1EEC2B7v160006ENS_18__default_init_tagE, symObjAddr: 0x1D08, symBinAddr: 0x1000039F8, symSize: 0x2C }
  - { offsetInCU: 0x2A1C1, offset: 0x2A1C1, size: 0x8, addend: 0x0, symName: __ZNSt3__121__unordered_map_equalI5PointNS_17__hash_value_typeIS1_cEENS_8equal_toIS1_EE11PointHasherLb1EEC2B7v160006Ev, symObjAddr: 0x1D34, symBinAddr: 0x100003A24, symSize: 0x14 }
  - { offsetInCU: 0x2A1EB, offset: 0x2A1EB, size: 0x8, addend: 0x0, symName: __ZN6PlayerC2Ev, symObjAddr: 0x1D48, symBinAddr: 0x100003A38, symSize: 0x2C }
  - { offsetInCU: 0x2A217, offset: 0x2A217, size: 0x8, addend: 0x0, symName: __ZN5PointC2Ev, symObjAddr: 0x1D74, symBinAddr: 0x100003A64, symSize: 0x1C }
  - { offsetInCU: 0x2A241, offset: 0x2A241, size: 0x8, addend: 0x0, symName: __ZN4Room12generateRoomERKc, symObjAddr: 0x1D90, symBinAddr: 0x100003A80, symSize: 0x64C }
  - { offsetInCU: 0x2A3EC, offset: 0x2A3EC, size: 0x8, addend: 0x0, symName: __ZN4Room15roomTraversableEv, symObjAddr: 0x23DC, symBinAddr: 0x1000040CC, symSize: 0x310 }
  - { offsetInCU: 0x2A4A9, offset: 0x2A4A9, size: 0x8, addend: 0x0, symName: __ZNSt3__16vectorINS0_IcNS_9allocatorIcEEEENS1_IS3_EEE5clearB7v160006Ev, symObjAddr: 0x26EC, symBinAddr: 0x1000043DC, symSize: 0x54 }
  - { offsetInCU: 0x2A4DE, offset: 0x2A4DE, size: 0x8, addend: 0x0, symName: __ZNSt3__16vectorI5PointNS_9allocatorIS1_EEE5clearB7v160006Ev, symObjAddr: 0x2740, symBinAddr: 0x100004430, symSize: 0x54 }
  - { offsetInCU: 0x2A513, offset: 0x2A513, size: 0x8, addend: 0x0, symName: __ZN6Random7betweenEii, symObjAddr: 0x2794, symBinAddr: 0x100004484, symSize: 0x48 }
  - { offsetInCU: 0x2A555, offset: 0x2A555, size: 0x8, addend: 0x0, symName: __ZNSt3__16vectorINS0_IcNS_9allocatorIcEEEENS1_IS3_EEE9push_backB7v160006EOS3_, symObjAddr: 0x27DC, symBinAddr: 0x1000044CC, symSize: 0x6C }
  - { offsetInCU: 0x2A58C, offset: 0x2A58C, size: 0x8, addend: 0x0, symName: __ZNSt3__16vectorIcNS_9allocatorIcEEEC1B7v160006Ev, symObjAddr: 0x2848, symBinAddr: 0x100004538, symSize: 0x2C }
  - { offsetInCU: 0x2A5B6, offset: 0x2A5B6, size: 0x8, addend: 0x0, symName: __ZNSt3__16vectorIcNS_9allocatorIcEEED1B7v160006Ev, symObjAddr: 0x2874, symBinAddr: 0x100004564, symSize: 0x2C }
  - { offsetInCU: 0x2A5E0, offset: 0x2A5E0, size: 0x8, addend: 0x0, symName: __ZNSt3__16vectorINS0_IcNS_9allocatorIcEEEENS1_IS3_EEEixB7v160006Em, symObjAddr: 0x28A0, symBinAddr: 0x100004590, symSize: 0x2C }
  - { offsetInCU: 0x2A617, offset: 0x2A617, size: 0x8, addend: 0x0, symName: __ZNSt3__16vectorIcNS_9allocatorIcEEE9push_backB7v160006EOc, symObjAddr: 0x28CC, symBinAddr: 0x1000045BC, symSize: 0x6C }
  - { offsetInCU: 0x2A64E, offset: 0x2A64E, size: 0x8, addend: 0x0, symName: __ZN6Random6randomEi, symObjAddr: 0x2938, symBinAddr: 0x100004628, symSize: 0x34 }
  - { offsetInCU: 0x2A682, offset: 0x2A682, size: 0x8, addend: 0x0, symName: __ZN5PointC1Eii, symObjAddr: 0x296C, symBinAddr: 0x10000465C, symSize: 0x3C }
  - { offsetInCU: 0x2A6C8, offset: 0x2A6C8, size: 0x8, addend: 0x0, symName: __ZN5Point21getCardinalNeighboursEv, symObjAddr: 0x29A8, symBinAddr: 0x100004698, symSize: 0x1DC }
  - { offsetInCU: 0x2A759, offset: 0x2A759, size: 0x8, addend: 0x0, symName: __ZNSt3__16vectorI5PointNS_9allocatorIS1_EEE5beginB7v160006Ev, symObjAddr: 0x2B84, symBinAddr: 0x100004874, symSize: 0x30 }
  - { offsetInCU: 0x2A781, offset: 0x2A781, size: 0x8, addend: 0x0, symName: __ZNSt3__16vectorI5PointNS_9allocatorIS1_EEE3endB7v160006Ev, symObjAddr: 0x2BB4, symBinAddr: 0x1000048A4, symSize: 0x30 }
  - { offsetInCU: 0x2A7A9, offset: 0x2A7A9, size: 0x8, addend: 0x0, symName: __ZNKSt3__111__wrap_iterIP5PointEdeB7v160006Ev, symObjAddr: 0x2C18, symBinAddr: 0x100004908, symSize: 0x18 }
  - { offsetInCU: 0x2A7CF, offset: 0x2A7CF, size: 0x8, addend: 0x0, symName: __ZN5PointC1ERKS_, symObjAddr: 0x2C30, symBinAddr: 0x100004920, symSize: 0x34 }
  - { offsetInCU: 0x2A807, offset: 0x2A807, size: 0x8, addend: 0x0, symName: __ZN4Room11pointInRoomERK5Point, symObjAddr: 0x2C64, symBinAddr: 0x100004954, symSize: 0xAC }
  - { offsetInCU: 0x2A83B, offset: 0x2A83B, size: 0x8, addend: 0x0, symName: __ZNSt3__16vectorIcNS_9allocatorIcEEEixB7v160006Em, symObjAddr: 0x2D10, symBinAddr: 0x100004A00, symSize: 0x24 }
  - { offsetInCU: 0x2A872, offset: 0x2A872, size: 0x8, addend: 0x0, symName: __ZNSt3__111__wrap_iterIP5PointEppB7v160006Ev, symObjAddr: 0x2D34, symBinAddr: 0x100004A24, symSize: 0x20 }
  - { offsetInCU: 0x2A898, offset: 0x2A898, size: 0x8, addend: 0x0, symName: __ZN5Point3setERKS_, symObjAddr: 0x2D54, symBinAddr: 0x100004A44, symSize: 0x30 }
  - { offsetInCU: 0x2A8CC, offset: 0x2A8CC, size: 0x8, addend: 0x0, symName: __ZN4Room17randomPointOnWallEc, symObjAddr: 0x2D84, symBinAddr: 0x100004A74, symSize: 0x120 }
  - { offsetInCU: 0x2A91C, offset: 0x2A91C, size: 0x8, addend: 0x0, symName: __ZNSt3__16vectorI5PointNS_9allocatorIS1_EEE9push_backB7v160006ERKS1_, symObjAddr: 0x2EA4, symBinAddr: 0x100004B94, symSize: 0x6C }
  - { offsetInCU: 0x2A953, offset: 0x2A953, size: 0x8, addend: 0x0, symName: __ZNSt3__113unordered_mapI5Pointc11PointHasherNS_8equal_toIS1_EENS_9allocatorINS_4pairIKS1_cEEEEEixERS7_, symObjAddr: 0x2F10, symBinAddr: 0x100004C00, symSize: 0x80 }
  - { offsetInCU: 0x2A98A, offset: 0x2A98A, size: 0x8, addend: 0x0, symName: __ZNSt3__16vectorIcNS_9allocatorIcEEEC1B7v160006ESt16initializer_listIcE, symObjAddr: 0x2F90, symBinAddr: 0x100004C80, symSize: 0x3C }
  - { offsetInCU: 0x2A9C4, offset: 0x2A9C4, size: 0x8, addend: 0x0, symName: __Z8containsIcEbRKNSt3__16vectorIT_NS0_9allocatorIS2_EEEERKS2_, symObjAddr: 0x2FCC, symBinAddr: 0x100004CBC, symSize: 0x54 }
  - { offsetInCU: 0x2AA08, offset: 0x2AA08, size: 0x8, addend: 0x0, symName: __Z13popAllOfValueIcEvRNSt3__16vectorIT_NS0_9allocatorIS2_EEEERKS2_, symObjAddr: 0x3020, symBinAddr: 0x100004D10, symSize: 0x98 }
  - { offsetInCU: 0x2AA48, offset: 0x2AA48, size: 0x8, addend: 0x0, symName: __ZNKSt3__16vectorIcNS_9allocatorIcEEE4sizeB7v160006Ev, symObjAddr: 0x30B8, symBinAddr: 0x100004DA8, symSize: 0x20 }
  - { offsetInCU: 0x2AA6E, offset: 0x2AA6E, size: 0x8, addend: 0x0, symName: __ZNKSt3__16vectorINS0_IcNS_9allocatorIcEEEENS1_IS3_EEE4sizeB7v160006Ev, symObjAddr: 0x30D8, symBinAddr: 0x100004DC8, symSize: 0x28 }
  - { offsetInCU: 0x2AA94, offset: 0x2AA94, size: 0x8, addend: 0x0, symName: __ZNSt3__16vectorINS0_IcNS_9allocatorIcEEEENS1_IS3_EEE7__clearB7v160006Ev, symObjAddr: 0x3100, symBinAddr: 0x100004DF0, symSize: 0x28 }
  - { offsetInCU: 0x2AABA, offset: 0x2AABA, size: 0x8, addend: 0x0, symName: __ZNKSt3__16vectorINS0_IcNS_9allocatorIcEEEENS1_IS3_EEE17__annotate_shrinkB7v160006Em, symObjAddr: 0x3128, symBinAddr: 0x100004E18, symSize: 0xD0 }
  - { offsetInCU: 0x2AAEF, offset: 0x2AAEF, size: 0x8, addend: 0x0, symName: __ZNSt3__16vectorINS0_IcNS_9allocatorIcEEEENS1_IS3_EEE22__base_destruct_at_endB7v160006EPS3_, symObjAddr: 0x3208, symBinAddr: 0x100004EF8, symSize: 0x8C }
  - { offsetInCU: 0x2AB33, offset: 0x2AB33, size: 0x8, addend: 0x0, symName: __ZNSt3__116allocator_traitsINS_9allocatorINS_6vectorIcNS1_IcEEEEEEE7destroyB7v160006IS4_vEEvRS5_PT_, symObjAddr: 0x3294, symBinAddr: 0x100004F84, symSize: 0x2C }
  - { offsetInCU: 0x2AB70, offset: 0x2AB70, size: 0x8, addend: 0x0, symName: __ZNSt3__16vectorINS0_IcNS_9allocatorIcEEEENS1_IS3_EEE7__allocB7v160006Ev, symObjAddr: 0x32C0, symBinAddr: 0x100004FB0, symSize: 0x28 }
  - { offsetInCU: 0x2AB96, offset: 0x2AB96, size: 0x8, addend: 0x0, symName: __ZNSt3__19allocatorINS_6vectorIcNS0_IcEEEEE7destroyB7v160006EPS3_, symObjAddr: 0x32FC, symBinAddr: 0x100004FEC, symSize: 0x28 }
  - { offsetInCU: 0x2ABCA, offset: 0x2ABCA, size: 0x8, addend: 0x0, symName: __ZNSt3__117__compressed_pairIPNS_6vectorIcNS_9allocatorIcEEEENS2_IS4_EEE6secondB7v160006Ev, symObjAddr: 0x3324, symBinAddr: 0x100005014, symSize: 0x24 }
  - { offsetInCU: 0x2ABF0, offset: 0x2ABF0, size: 0x8, addend: 0x0, symName: __ZNSt3__122__compressed_pair_elemINS_9allocatorINS_6vectorIcNS1_IcEEEEEELi1ELb1EE5__getB7v160006Ev, symObjAddr: 0x3348, symBinAddr: 0x100005038, symSize: 0x14 }
  - { offsetInCU: 0x2AC16, offset: 0x2AC16, size: 0x8, addend: 0x0, symName: __ZNKSt3__16vectorINS0_IcNS_9allocatorIcEEEENS1_IS3_EEE31__annotate_contiguous_containerB7v160006EPKvS7_S7_S7_, symObjAddr: 0x335C, symBinAddr: 0x10000504C, symSize: 0x20 }
  - { offsetInCU: 0x2AC68, offset: 0x2AC68, size: 0x8, addend: 0x0, symName: __ZNKSt3__16vectorINS0_IcNS_9allocatorIcEEEENS1_IS3_EEE4dataB7v160006Ev, symObjAddr: 0x337C, symBinAddr: 0x10000506C, symSize: 0x28 }
  - { offsetInCU: 0x2AC8E, offset: 0x2AC8E, size: 0x8, addend: 0x0, symName: __ZNKSt3__16vectorINS0_IcNS_9allocatorIcEEEENS1_IS3_EEE8capacityB7v160006Ev, symObjAddr: 0x33A4, symBinAddr: 0x100005094, symSize: 0x40 }
  - { offsetInCU: 0x2ACB4, offset: 0x2ACB4, size: 0x8, addend: 0x0, symName: __ZNKSt3__16vectorINS0_IcNS_9allocatorIcEEEENS1_IS3_EEE9__end_capB7v160006Ev, symObjAddr: 0x33E4, symBinAddr: 0x1000050D4, symSize: 0x28 }
  - { offsetInCU: 0x2ACDA, offset: 0x2ACDA, size: 0x8, addend: 0x0, symName: __ZNKSt3__117__compressed_pairIPNS_6vectorIcNS_9allocatorIcEEEENS2_IS4_EEE5firstB7v160006Ev, symObjAddr: 0x340C, symBinAddr: 0x1000050FC, symSize: 0x24 }
  - { offsetInCU: 0x2AD00, offset: 0x2AD00, size: 0x8, addend: 0x0, symName: __ZNKSt3__122__compressed_pair_elemIPNS_6vectorIcNS_9allocatorIcEEEELi0ELb0EE5__getB7v160006Ev, symObjAddr: 0x3430, symBinAddr: 0x100005120, symSize: 0x14 }
  - { offsetInCU: 0x2AD26, offset: 0x2AD26, size: 0x8, addend: 0x0, symName: __ZNKSt3__16vectorI5PointNS_9allocatorIS1_EEE4sizeB7v160006Ev, symObjAddr: 0x3444, symBinAddr: 0x100005134, symSize: 0x28 }
  - { offsetInCU: 0x2AD4C, offset: 0x2AD4C, size: 0x8, addend: 0x0, symName: __ZNSt3__16vectorI5PointNS_9allocatorIS1_EEE7__clearB7v160006Ev, symObjAddr: 0x346C, symBinAddr: 0x10000515C, symSize: 0x28 }
  - { offsetInCU: 0x2AD72, offset: 0x2AD72, size: 0x8, addend: 0x0, symName: __ZNKSt3__16vectorI5PointNS_9allocatorIS1_EEE17__annotate_shrinkB7v160006Em, symObjAddr: 0x3494, symBinAddr: 0x100005184, symSize: 0xB4 }
  - { offsetInCU: 0x2ADA7, offset: 0x2ADA7, size: 0x8, addend: 0x0, symName: __ZNSt3__16vectorI5PointNS_9allocatorIS1_EEE22__base_destruct_at_endB7v160006EPS1_, symObjAddr: 0x3558, symBinAddr: 0x100005248, symSize: 0x8C }
  - { offsetInCU: 0x2ADEB, offset: 0x2ADEB, size: 0x8, addend: 0x0, symName: __ZNSt3__116allocator_traitsINS_9allocatorI5PointEEE7destroyB7v160006IS2_vEEvRS3_PT_, symObjAddr: 0x35E4, symBinAddr: 0x1000052D4, symSize: 0x2C }
  - { offsetInCU: 0x2AE28, offset: 0x2AE28, size: 0x8, addend: 0x0, symName: __ZNSt3__16vectorI5PointNS_9allocatorIS1_EEE7__allocB7v160006Ev, symObjAddr: 0x3610, symBinAddr: 0x100005300, symSize: 0x28 }
  - { offsetInCU: 0x2AE4E, offset: 0x2AE4E, size: 0x8, addend: 0x0, symName: __ZNSt3__19allocatorI5PointE7destroyB7v160006EPS1_, symObjAddr: 0x364C, symBinAddr: 0x10000533C, symSize: 0x14 }
  - { offsetInCU: 0x2AE82, offset: 0x2AE82, size: 0x8, addend: 0x0, symName: __ZNSt3__117__compressed_pairIP5PointNS_9allocatorIS1_EEE6secondB7v160006Ev, symObjAddr: 0x3660, symBinAddr: 0x100005350, symSize: 0x24 }
  - { offsetInCU: 0x2AEA8, offset: 0x2AEA8, size: 0x8, addend: 0x0, symName: __ZNSt3__122__compressed_pair_elemINS_9allocatorI5PointEELi1ELb1EE5__getB7v160006Ev, symObjAddr: 0x3684, symBinAddr: 0x100005374, symSize: 0x14 }
  - { offsetInCU: 0x2AECE, offset: 0x2AECE, size: 0x8, addend: 0x0, symName: __ZNKSt3__16vectorI5PointNS_9allocatorIS1_EEE31__annotate_contiguous_containerB7v160006EPKvS6_S6_S6_, symObjAddr: 0x3698, symBinAddr: 0x100005388, symSize: 0x20 }
  - { offsetInCU: 0x2AF20, offset: 0x2AF20, size: 0x8, addend: 0x0, symName: __ZNKSt3__16vectorI5PointNS_9allocatorIS1_EEE4dataB7v160006Ev, symObjAddr: 0x36B8, symBinAddr: 0x1000053A8, symSize: 0x28 }
  - { offsetInCU: 0x2AF46, offset: 0x2AF46, size: 0x8, addend: 0x0, symName: __ZNKSt3__16vectorI5PointNS_9allocatorIS1_EEE8capacityB7v160006Ev, symObjAddr: 0x36E0, symBinAddr: 0x1000053D0, symSize: 0x40 }
  - { offsetInCU: 0x2AF6C, offset: 0x2AF6C, size: 0x8, addend: 0x0, symName: __ZNKSt3__16vectorI5PointNS_9allocatorIS1_EEE9__end_capB7v160006Ev, symObjAddr: 0x3720, symBinAddr: 0x100005410, symSize: 0x28 }
  - { offsetInCU: 0x2AF92, offset: 0x2AF92, size: 0x8, addend: 0x0, symName: __ZNKSt3__117__compressed_pairIP5PointNS_9allocatorIS1_EEE5firstB7v160006Ev, symObjAddr: 0x3748, symBinAddr: 0x100005438, symSize: 0x24 }
  - { offsetInCU: 0x2AFB8, offset: 0x2AFB8, size: 0x8, addend: 0x0, symName: __ZNKSt3__122__compressed_pair_elemIP5PointLi0ELb0EE5__getB7v160006Ev, symObjAddr: 0x376C, symBinAddr: 0x10000545C, symSize: 0x14 }
  - { offsetInCU: 0x2AFDE, offset: 0x2AFDE, size: 0x8, addend: 0x0, symName: __ZNSt3__16vectorINS0_IcNS_9allocatorIcEEEENS1_IS3_EEE9__end_capB7v160006Ev, symObjAddr: 0x3780, symBinAddr: 0x100005470, symSize: 0x28 }
  - { offsetInCU: 0x2B004, offset: 0x2B004, size: 0x8, addend: 0x0, symName: __ZNSt3__16vectorINS0_IcNS_9allocatorIcEEEENS1_IS3_EEE22__construct_one_at_endB7v160006IJS3_EEEvDpOT_, symObjAddr: 0x37A8, symBinAddr: 0x100005498, symSize: 0x90 }
  - { offsetInCU: 0x2B053, offset: 0x2B053, size: 0x8, addend: 0x0, symName: __ZNSt3__16vectorINS0_IcNS_9allocatorIcEEEENS1_IS3_EEE21__push_back_slow_pathIS3_EEvOT_, symObjAddr: 0x3838, symBinAddr: 0x100005528, symSize: 0xD8 }
  - { offsetInCU: 0x2B0B1, offset: 0x2B0B1, size: 0x8, addend: 0x0, symName: __ZNSt3__117__compressed_pairIPNS_6vectorIcNS_9allocatorIcEEEENS2_IS4_EEE5firstB7v160006Ev, symObjAddr: 0x3910, symBinAddr: 0x100005600, symSize: 0x24 }
  - { offsetInCU: 0x2B0D7, offset: 0x2B0D7, size: 0x8, addend: 0x0, symName: __ZNSt3__122__compressed_pair_elemIPNS_6vectorIcNS_9allocatorIcEEEELi0ELb0EE5__getB7v160006Ev, symObjAddr: 0x3934, symBinAddr: 0x100005624, symSize: 0x14 }
  - { offsetInCU: 0x2B116, offset: 0x2B116, size: 0x8, addend: 0x0, symName: __ZNSt3__16vectorINS0_IcNS_9allocatorIcEEEENS1_IS3_EEE21_ConstructTransactionC1B7v160006ERS5_m, symObjAddr: 0x3948, symBinAddr: 0x100005638, symSize: 0x3C }
  - { offsetInCU: 0x2B15E, offset: 0x2B15E, size: 0x8, addend: 0x0, symName: __ZNSt3__116allocator_traitsINS_9allocatorINS_6vectorIcNS1_IcEEEEEEE9constructB7v160006IS4_JS4_EvEEvRS5_PT_DpOT0_, symObjAddr: 0x3984, symBinAddr: 0x100005674, symSize: 0x34 }
  - { offsetInCU: 0x2B1B5, offset: 0x2B1B5, size: 0x8, addend: 0x0, symName: __ZNSt3__16vectorINS0_IcNS_9allocatorIcEEEENS1_IS3_EEE21_ConstructTransactionD1B7v160006Ev, symObjAddr: 0x39B8, symBinAddr: 0x1000056A8, symSize: 0x2C }
  - { offsetInCU: 0x2B1DF, offset: 0x2B1DF, size: 0x8, addend: 0x0, symName: __ZNSt3__16vectorINS0_IcNS_9allocatorIcEEEENS1_IS3_EEE21_ConstructTransactionC2B7v160006ERS5_m, symObjAddr: 0x39E4, symBinAddr: 0x1000056D4, symSize: 0x4C }
  - { offsetInCU: 0x2B227, offset: 0x2B227, size: 0x8, addend: 0x0, symName: __ZNSt3__19allocatorINS_6vectorIcNS0_IcEEEEE9constructB7v160006IS3_JS3_EEEvPT_DpOT0_, symObjAddr: 0x3A30, symBinAddr: 0x100005720, symSize: 0x30 }
  - { offsetInCU: 0x2B27D, offset: 0x2B27D, size: 0x8, addend: 0x0, symName: __ZNSt3__16vectorIcNS_9allocatorIcEEEC1B7v160006EOS3_, symObjAddr: 0x3A60, symBinAddr: 0x100005750, symSize: 0x34 }
  - { offsetInCU: 0x2B2B8, offset: 0x2B2B8, size: 0x8, addend: 0x0, symName: __ZNSt3__16vectorIcNS_9allocatorIcEEEC2B7v160006EOS3_, symObjAddr: 0x3A94, symBinAddr: 0x100005784, symSize: 0xE0 }
  - { offsetInCU: 0x2B2F3, offset: 0x2B2F3, size: 0x8, addend: 0x0, symName: __ZNSt3__16vectorIcNS_9allocatorIcEEE7__allocB7v160006Ev, symObjAddr: 0x3B74, symBinAddr: 0x100005864, symSize: 0x28 }
  - { offsetInCU: 0x2B31F, offset: 0x2B31F, size: 0x8, addend: 0x0, symName: __ZNSt3__117__compressed_pairIPcNS_9allocatorIcEEEC1B7v160006IDnS3_EEOT_OT0_, symObjAddr: 0x3B9C, symBinAddr: 0x10000588C, symSize: 0x3C }
  - { offsetInCU: 0x2B377, offset: 0x2B377, size: 0x8, addend: 0x0, symName: __ZNSt3__16vectorIcNS_9allocatorIcEEE9__end_capB7v160006Ev, symObjAddr: 0x3BFC, symBinAddr: 0x1000058EC, symSize: 0x28 }
  - { offsetInCU: 0x2B39D, offset: 0x2B39D, size: 0x8, addend: 0x0, symName: __ZNSt3__117__compressed_pairIPcNS_9allocatorIcEEE6secondB7v160006Ev, symObjAddr: 0x3C24, symBinAddr: 0x100005914, symSize: 0x24 }
  - { offsetInCU: 0x2B3C3, offset: 0x2B3C3, size: 0x8, addend: 0x0, symName: __ZNSt3__122__compressed_pair_elemINS_9allocatorIcEELi1ELb1EE5__getB7v160006Ev, symObjAddr: 0x3C48, symBinAddr: 0x100005938, symSize: 0x14 }
  - { offsetInCU: 0x2B3E9, offset: 0x2B3E9, size: 0x8, addend: 0x0, symName: __ZNSt3__117__compressed_pairIPcNS_9allocatorIcEEEC2B7v160006IDnS3_EEOT_OT0_, symObjAddr: 0x3C5C, symBinAddr: 0x10000594C, symSize: 0x44 }
  - { offsetInCU: 0x2B441, offset: 0x2B441, size: 0x8, addend: 0x0, symName: __ZNSt3__122__compressed_pair_elemIPcLi0ELb0EEC2B7v160006IDnvEEOT_, symObjAddr: 0x3CA0, symBinAddr: 0x100005990, symSize: 0x1C }
  - { offsetInCU: 0x2B483, offset: 0x2B483, size: 0x8, addend: 0x0, symName: __ZNSt3__122__compressed_pair_elemINS_9allocatorIcEELi1ELb1EEC2B7v160006IS2_vEEOT_, symObjAddr: 0x3CBC, symBinAddr: 0x1000059AC, symSize: 0x18 }
  - { offsetInCU: 0x2B4C5, offset: 0x2B4C5, size: 0x8, addend: 0x0, symName: __ZNSt3__117__compressed_pairIPcNS_9allocatorIcEEE5firstB7v160006Ev, symObjAddr: 0x3CD4, symBinAddr: 0x1000059C4, symSize: 0x24 }
  - { offsetInCU: 0x2B4EB, offset: 0x2B4EB, size: 0x8, addend: 0x0, symName: __ZNSt3__122__compressed_pair_elemIPcLi0ELb0EE5__getB7v160006Ev, symObjAddr: 0x3CF8, symBinAddr: 0x1000059E8, symSize: 0x14 }
  - { offsetInCU: 0x2B511, offset: 0x2B511, size: 0x8, addend: 0x0, symName: __ZNSt3__16vectorINS0_IcNS_9allocatorIcEEEENS1_IS3_EEE21_ConstructTransactionD2B7v160006Ev, symObjAddr: 0x3D0C, symBinAddr: 0x1000059FC, symSize: 0x20 }
  - { offsetInCU: 0x2B53B, offset: 0x2B53B, size: 0x8, addend: 0x0, symName: __ZNKSt3__16vectorINS0_IcNS_9allocatorIcEEEENS1_IS3_EEE11__recommendB7v160006Em, symObjAddr: 0x3D2C, symBinAddr: 0x100005A1C, symSize: 0xB4 }
  - { offsetInCU: 0x2B590, offset: 0x2B590, size: 0x8, addend: 0x0, symName: __ZNSt3__114__split_bufferINS_6vectorIcNS_9allocatorIcEEEERNS2_IS4_EEEC1EmmS6_, symObjAddr: 0x3DE0, symBinAddr: 0x100005AD0, symSize: 0x44 }
  - { offsetInCU: 0x2B5E6, offset: 0x2B5E6, size: 0x8, addend: 0x0, symName: __ZNSt3__114__split_bufferINS_6vectorIcNS_9allocatorIcEEEERNS2_IS4_EEED1Ev, symObjAddr: 0x3F3C, symBinAddr: 0x100005C2C, symSize: 0x2C }
  - { offsetInCU: 0x2B612, offset: 0x2B612, size: 0x8, addend: 0x0, symName: __ZNKSt3__16vectorINS0_IcNS_9allocatorIcEEEENS1_IS3_EEE8max_sizeEv, symObjAddr: 0x3F68, symBinAddr: 0x100005C58, symSize: 0x60 }
  - { offsetInCU: 0x2B63A, offset: 0x2B63A, size: 0x8, addend: 0x0, symName: __ZNKSt3__16vectorINS0_IcNS_9allocatorIcEEEENS1_IS3_EEE20__throw_length_errorB7v160006Ev, symObjAddr: 0x3FC8, symBinAddr: 0x100005CB8, symSize: 0x1C }
  - { offsetInCU: 0x2B66A, offset: 0x2B66A, size: 0x8, addend: 0x0, symName: __ZNSt3__116allocator_traitsINS_9allocatorINS_6vectorIcNS1_IcEEEEEEE8max_sizeB7v160006IS5_vEEmRKS5_, symObjAddr: 0x403C, symBinAddr: 0x100005D2C, symSize: 0x24 }
  - { offsetInCU: 0x2B698, offset: 0x2B698, size: 0x8, addend: 0x0, symName: __ZNKSt3__16vectorINS0_IcNS_9allocatorIcEEEENS1_IS3_EEE7__allocB7v160006Ev, symObjAddr: 0x4060, symBinAddr: 0x100005D50, symSize: 0x28 }
  - { offsetInCU: 0x2B6BE, offset: 0x2B6BE, size: 0x8, addend: 0x0, symName: __ZNSt3__114numeric_limitsIlE3maxB7v160006Ev, symObjAddr: 0x4088, symBinAddr: 0x100005D78, symSize: 0x14 }
  - { offsetInCU: 0x2B6DC, offset: 0x2B6DC, size: 0x8, addend: 0x0, symName: __ZNKSt3__16__lessImmEclB7v160006ERKmS3_, symObjAddr: 0x40F0, symBinAddr: 0x100005DE0, symSize: 0x34 }
  - { offsetInCU: 0x2B71E, offset: 0x2B71E, size: 0x8, addend: 0x0, symName: __ZNKSt3__19allocatorINS_6vectorIcNS0_IcEEEEE8max_sizeB7v160006Ev, symObjAddr: 0x4124, symBinAddr: 0x100005E14, symSize: 0x18 }
  - { offsetInCU: 0x2B744, offset: 0x2B744, size: 0x8, addend: 0x0, symName: __ZNKSt3__117__compressed_pairIPNS_6vectorIcNS_9allocatorIcEEEENS2_IS4_EEE6secondB7v160006Ev, symObjAddr: 0x413C, symBinAddr: 0x100005E2C, symSize: 0x24 }
  - { offsetInCU: 0x2B76A, offset: 0x2B76A, size: 0x8, addend: 0x0, symName: __ZNKSt3__122__compressed_pair_elemINS_9allocatorINS_6vectorIcNS1_IcEEEEEELi1ELb1EE5__getB7v160006Ev, symObjAddr: 0x4160, symBinAddr: 0x100005E50, symSize: 0x14 }
  - { offsetInCU: 0x2B790, offset: 0x2B790, size: 0x8, addend: 0x0, symName: __ZNSt3__123__libcpp_numeric_limitsIlLb1EE3maxB7v160006Ev, symObjAddr: 0x4174, symBinAddr: 0x100005E64, symSize: 0x8 }
  - { offsetInCU: 0x2B7A4, offset: 0x2B7A4, size: 0x8, addend: 0x0, symName: __ZNSt12length_errorC1B7v160006EPKc, symObjAddr: 0x41E0, symBinAddr: 0x100005ED0, symSize: 0x34 }
  - { offsetInCU: 0x2B7DC, offset: 0x2B7DC, size: 0x8, addend: 0x0, symName: __ZNSt12length_errorC2B7v160006EPKc, symObjAddr: 0x4214, symBinAddr: 0x100005F04, symSize: 0x4C }
  - { offsetInCU: 0x2B814, offset: 0x2B814, size: 0x8, addend: 0x0, symName: __ZNSt3__114__split_bufferINS_6vectorIcNS_9allocatorIcEEEERNS2_IS4_EEEC2EmmS6_, symObjAddr: 0x42B4, symBinAddr: 0x100005FA4, symSize: 0xE0 }
  - { offsetInCU: 0x2B887, offset: 0x2B887, size: 0x8, addend: 0x0, symName: __ZNSt3__117__compressed_pairIPNS_6vectorIcNS_9allocatorIcEEEERNS2_IS4_EEEC1B7v160006IDnS7_EEOT_OT0_, symObjAddr: 0x4394, symBinAddr: 0x100006084, symSize: 0x3C }
  - { offsetInCU: 0x2B8DF, offset: 0x2B8DF, size: 0x8, addend: 0x0, symName: __ZNSt3__114__split_bufferINS_6vectorIcNS_9allocatorIcEEEERNS2_IS4_EEE7__allocB7v160006Ev, symObjAddr: 0x4410, symBinAddr: 0x100006100, symSize: 0x28 }
  - { offsetInCU: 0x2B905, offset: 0x2B905, size: 0x8, addend: 0x0, symName: __ZNSt3__114__split_bufferINS_6vectorIcNS_9allocatorIcEEEERNS2_IS4_EEE9__end_capB7v160006Ev, symObjAddr: 0x4438, symBinAddr: 0x100006128, symSize: 0x28 }
  - { offsetInCU: 0x2B92B, offset: 0x2B92B, size: 0x8, addend: 0x0, symName: __ZNSt3__117__compressed_pairIPNS_6vectorIcNS_9allocatorIcEEEERNS2_IS4_EEEC2B7v160006IDnS7_EEOT_OT0_, symObjAddr: 0x4460, symBinAddr: 0x100006150, symSize: 0x48 }
  - { offsetInCU: 0x2B983, offset: 0x2B983, size: 0x8, addend: 0x0, symName: __ZNSt3__122__compressed_pair_elemIRNS_9allocatorINS_6vectorIcNS1_IcEEEEEELi1ELb0EEC2B7v160006IS6_vEEOT_, symObjAddr: 0x44A8, symBinAddr: 0x100006198, symSize: 0x20 }
  - { offsetInCU: 0x2B9C5, offset: 0x2B9C5, size: 0x8, addend: 0x0, symName: __ZNSt3__19allocatorINS_6vectorIcNS0_IcEEEEE8allocateB7v160006Em, symObjAddr: 0x44C8, symBinAddr: 0x1000061B8, symSize: 0x5C }
  - { offsetInCU: 0x2B9F9, offset: 0x2B9F9, size: 0x8, addend: 0x0, symName: __ZNSt3__117__compressed_pairIPNS_6vectorIcNS_9allocatorIcEEEERNS2_IS4_EEE6secondB7v160006Ev, symObjAddr: 0x45A4, symBinAddr: 0x100006294, symSize: 0x28 }
  - { offsetInCU: 0x2BA1F, offset: 0x2BA1F, size: 0x8, addend: 0x0, symName: __ZNSt3__122__compressed_pair_elemIRNS_9allocatorINS_6vectorIcNS1_IcEEEEEELi1ELb0EE5__getB7v160006Ev, symObjAddr: 0x45CC, symBinAddr: 0x1000062BC, symSize: 0x18 }
  - { offsetInCU: 0x2BA45, offset: 0x2BA45, size: 0x8, addend: 0x0, symName: __ZNSt3__117__compressed_pairIPNS_6vectorIcNS_9allocatorIcEEEERNS2_IS4_EEE5firstB7v160006Ev, symObjAddr: 0x45E4, symBinAddr: 0x1000062D4, symSize: 0x24 }
  - { offsetInCU: 0x2BA6B, offset: 0x2BA6B, size: 0x8, addend: 0x0, symName: __ZNKSt3__16vectorINS0_IcNS_9allocatorIcEEEENS1_IS3_EEE17__annotate_deleteB7v160006Ev, symObjAddr: 0x4608, symBinAddr: 0x1000062F8, symSize: 0xD4 }
  - { offsetInCU: 0x2BA91, offset: 0x2BA91, size: 0x8, addend: 0x0, symName: __ZNSt3__116reverse_iteratorIPNS_6vectorIcNS_9allocatorIcEEEEEC1B7v160006ES5_, symObjAddr: 0x4808, symBinAddr: 0x1000064F8, symSize: 0x34 }
  - { offsetInCU: 0x2BAC9, offset: 0x2BAC9, size: 0x8, addend: 0x0, symName: __ZNKSt3__116reverse_iteratorIPNS_6vectorIcNS_9allocatorIcEEEEE4baseB7v160006Ev, symObjAddr: 0x483C, symBinAddr: 0x10000652C, symSize: 0x18 }
  - { offsetInCU: 0x2BAEF, offset: 0x2BAEF, size: 0x8, addend: 0x0, symName: __ZNKSt3__16vectorINS0_IcNS_9allocatorIcEEEENS1_IS3_EEE14__annotate_newB7v160006Em, symObjAddr: 0x4890, symBinAddr: 0x100006580, symSize: 0xC8 }
  - { offsetInCU: 0x2BB24, offset: 0x2BB24, size: 0x8, addend: 0x0, symName: __ZNSt3__129_AllocatorDestroyRangeReverseINS_9allocatorINS_6vectorIcNS1_IcEEEEEENS_16reverse_iteratorIPS4_EEEC1B7v160006ERS5_RS8_SB_, symObjAddr: 0x49A4, symBinAddr: 0x100006694, symSize: 0x44 }
  - { offsetInCU: 0x2BB7B, offset: 0x2BB7B, size: 0x8, addend: 0x0, symName: __ZNKSt3__116reverse_iteratorIPNS_6vectorIcNS_9allocatorIcEEEEEdeB7v160006Ev, symObjAddr: 0x4A54, symBinAddr: 0x100006744, symSize: 0x28 }
  - { offsetInCU: 0x2BBAF, offset: 0x2BBAF, size: 0x8, addend: 0x0, symName: __ZNSt3__116reverse_iteratorIPNS_6vectorIcNS_9allocatorIcEEEEEppB7v160006Ev, symObjAddr: 0x4A7C, symBinAddr: 0x10000676C, symSize: 0x20 }
  - { offsetInCU: 0x2BBD5, offset: 0x2BBD5, size: 0x8, addend: 0x0, symName: __ZNSt3__128__exception_guard_exceptionsINS_29_AllocatorDestroyRangeReverseINS_9allocatorINS_6vectorIcNS2_IcEEEEEENS_16reverse_iteratorIPS5_EEEEE10__completeB7v160006Ev, symObjAddr: 0x4A9C, symBinAddr: 0x10000678C, symSize: 0x1C }
  - { offsetInCU: 0x2BBFB, offset: 0x2BBFB, size: 0x8, addend: 0x0, symName: __ZNSt3__128__exception_guard_exceptionsINS_29_AllocatorDestroyRangeReverseINS_9allocatorINS_6vectorIcNS2_IcEEEEEENS_16reverse_iteratorIPS5_EEEEED1B7v160006Ev, symObjAddr: 0x4AB8, symBinAddr: 0x1000067A8, symSize: 0x2C }
  - { offsetInCU: 0x2BC25, offset: 0x2BC25, size: 0x8, addend: 0x0, symName: __ZNSt3__128__exception_guard_exceptionsINS_29_AllocatorDestroyRangeReverseINS_9allocatorINS_6vectorIcNS2_IcEEEEEENS_16reverse_iteratorIPS5_EEEEEC1B7v160006ESA_, symObjAddr: 0x4AE4, symBinAddr: 0x1000067D4, symSize: 0x34 }
  - { offsetInCU: 0x2BC5E, offset: 0x2BC5E, size: 0x8, addend: 0x0, symName: __ZNSt3__128__exception_guard_exceptionsINS_29_AllocatorDestroyRangeReverseINS_9allocatorINS_6vectorIcNS2_IcEEEEEENS_16reverse_iteratorIPS5_EEEEEC2B7v160006ESA_, symObjAddr: 0x4B18, symBinAddr: 0x100006808, symSize: 0x30 }
  - { offsetInCU: 0x2BC97, offset: 0x2BC97, size: 0x8, addend: 0x0, symName: __ZNSt3__129_AllocatorDestroyRangeReverseINS_9allocatorINS_6vectorIcNS1_IcEEEEEENS_16reverse_iteratorIPS4_EEEC2B7v160006ERS5_RS8_SB_, symObjAddr: 0x4B48, symBinAddr: 0x100006838, symSize: 0x38 }
  - { offsetInCU: 0x2BCF3, offset: 0x2BCF3, size: 0x8, addend: 0x0, symName: __ZNSt3__119__to_address_helperINS_16reverse_iteratorIPNS_6vectorIcNS_9allocatorIcEEEEEEvE6__callB7v160006ERKS7_, symObjAddr: 0x4B80, symBinAddr: 0x100006870, symSize: 0x38 }
  - { offsetInCU: 0x2BD16, offset: 0x2BD16, size: 0x8, addend: 0x0, symName: __ZNKSt3__116reverse_iteratorIPNS_6vectorIcNS_9allocatorIcEEEEEptB7v160006Ev, symObjAddr: 0x4BB8, symBinAddr: 0x1000068A8, symSize: 0x24 }
  - { offsetInCU: 0x2BD3C, offset: 0x2BD3C, size: 0x8, addend: 0x0, symName: __ZNSt3__128__exception_guard_exceptionsINS_29_AllocatorDestroyRangeReverseINS_9allocatorINS_6vectorIcNS2_IcEEEEEENS_16reverse_iteratorIPS5_EEEEED2B7v160006Ev, symObjAddr: 0x4BDC, symBinAddr: 0x1000068CC, symSize: 0x50 }
  - { offsetInCU: 0x2BD66, offset: 0x2BD66, size: 0x8, addend: 0x0, symName: __ZNKSt3__129_AllocatorDestroyRangeReverseINS_9allocatorINS_6vectorIcNS1_IcEEEEEENS_16reverse_iteratorIPS4_EEEclB7v160006Ev, symObjAddr: 0x4C2C, symBinAddr: 0x10000691C, symSize: 0xB4 }
  - { offsetInCU: 0x2BD8D, offset: 0x2BD8D, size: 0x8, addend: 0x0, symName: __ZNSt3__116reverse_iteratorINS0_IPNS_6vectorIcNS_9allocatorIcEEEEEEEC1B7v160006ES6_, symObjAddr: 0x4D50, symBinAddr: 0x100006A40, symSize: 0x3C }
  - { offsetInCU: 0x2BDC5, offset: 0x2BDC5, size: 0x8, addend: 0x0, symName: __ZNSt3__116reverse_iteratorINS0_IPNS_6vectorIcNS_9allocatorIcEEEEEEEppB7v160006Ev, symObjAddr: 0x4E10, symBinAddr: 0x100006B00, symSize: 0x30 }
  - { offsetInCU: 0x2BDEB, offset: 0x2BDEB, size: 0x8, addend: 0x0, symName: __ZNKSt3__116reverse_iteratorINS0_IPNS_6vectorIcNS_9allocatorIcEEEEEEE4baseB7v160006Ev, symObjAddr: 0x4E40, symBinAddr: 0x100006B30, symSize: 0x24 }
  - { offsetInCU: 0x2BE16, offset: 0x2BE16, size: 0x8, addend: 0x0, symName: __ZNSt3__119__to_address_helperINS_16reverse_iteratorINS1_IPNS_6vectorIcNS_9allocatorIcEEEEEEEEvE6__callB7v160006ERKS8_, symObjAddr: 0x4E64, symBinAddr: 0x100006B54, symSize: 0x38 }
  - { offsetInCU: 0x2BE39, offset: 0x2BE39, size: 0x8, addend: 0x0, symName: __ZNKSt3__116reverse_iteratorINS0_IPNS_6vectorIcNS_9allocatorIcEEEEEEEptB7v160006Ev, symObjAddr: 0x4E9C, symBinAddr: 0x100006B8C, symSize: 0x24 }
  - { offsetInCU: 0x2BE5F, offset: 0x2BE5F, size: 0x8, addend: 0x0, symName: __ZNKSt3__116reverse_iteratorINS0_IPNS_6vectorIcNS_9allocatorIcEEEEEEEdeB7v160006Ev, symObjAddr: 0x4EC0, symBinAddr: 0x100006BB0, symSize: 0x34 }
  - { offsetInCU: 0x2BE93, offset: 0x2BE93, size: 0x8, addend: 0x0, symName: __ZNSt3__116reverse_iteratorIPNS_6vectorIcNS_9allocatorIcEEEEEmmB7v160006Ev, symObjAddr: 0x4EF4, symBinAddr: 0x100006BE4, symSize: 0x20 }
  - { offsetInCU: 0x2BEB9, offset: 0x2BEB9, size: 0x8, addend: 0x0, symName: __ZNSt3__116reverse_iteratorINS0_IPNS_6vectorIcNS_9allocatorIcEEEEEEEC2B7v160006ES6_, symObjAddr: 0x4F14, symBinAddr: 0x100006C04, symSize: 0x2C }
  - { offsetInCU: 0x2BEF1, offset: 0x2BEF1, size: 0x8, addend: 0x0, symName: __ZNSt3__116reverse_iteratorIPNS_6vectorIcNS_9allocatorIcEEEEEC2B7v160006ES5_, symObjAddr: 0x4F40, symBinAddr: 0x100006C30, symSize: 0x28 }
  - { offsetInCU: 0x2BF29, offset: 0x2BF29, size: 0x8, addend: 0x0, symName: __ZNSt3__114__split_bufferINS_6vectorIcNS_9allocatorIcEEEERNS2_IS4_EEED2Ev, symObjAddr: 0x4F68, symBinAddr: 0x100006C58, symSize: 0x8C }
  - { offsetInCU: 0x2BF55, offset: 0x2BF55, size: 0x8, addend: 0x0, symName: __ZNSt3__114__split_bufferINS_6vectorIcNS_9allocatorIcEEEERNS2_IS4_EEE5clearB7v160006Ev, symObjAddr: 0x4FF4, symBinAddr: 0x100006CE4, symSize: 0x28 }
  - { offsetInCU: 0x2BF7B, offset: 0x2BF7B, size: 0x8, addend: 0x0, symName: __ZNSt3__116allocator_traitsINS_9allocatorINS_6vectorIcNS1_IcEEEEEEE10deallocateB7v160006ERS5_PS4_m, symObjAddr: 0x501C, symBinAddr: 0x100006D0C, symSize: 0x34 }
  - { offsetInCU: 0x2BFBD, offset: 0x2BFBD, size: 0x8, addend: 0x0, symName: __ZNKSt3__114__split_bufferINS_6vectorIcNS_9allocatorIcEEEERNS2_IS4_EEE8capacityB7v160006Ev, symObjAddr: 0x5050, symBinAddr: 0x100006D40, symSize: 0x40 }
  - { offsetInCU: 0x2BFE3, offset: 0x2BFE3, size: 0x8, addend: 0x0, symName: __ZNSt3__114__split_bufferINS_6vectorIcNS_9allocatorIcEEEERNS2_IS4_EEE17__destruct_at_endB7v160006EPS4_, symObjAddr: 0x5090, symBinAddr: 0x100006D80, symSize: 0x2C }
  - { offsetInCU: 0x2C017, offset: 0x2C017, size: 0x8, addend: 0x0, symName: __ZNSt3__114__split_bufferINS_6vectorIcNS_9allocatorIcEEEERNS2_IS4_EEE17__destruct_at_endB7v160006EPS4_NS_17integral_constantIbLb0EEE, symObjAddr: 0x50BC, symBinAddr: 0x100006DAC, symSize: 0x80 }
  - { offsetInCU: 0x2C057, offset: 0x2C057, size: 0x8, addend: 0x0, symName: __ZNSt3__19allocatorINS_6vectorIcNS0_IcEEEEE10deallocateB7v160006EPS3_m, symObjAddr: 0x513C, symBinAddr: 0x100006E2C, symSize: 0x44 }
  - { offsetInCU: 0x2C099, offset: 0x2C099, size: 0x8, addend: 0x0, symName: __ZNKSt3__114__split_bufferINS_6vectorIcNS_9allocatorIcEEEERNS2_IS4_EEE9__end_capB7v160006Ev, symObjAddr: 0x51FC, symBinAddr: 0x100006EEC, symSize: 0x28 }
  - { offsetInCU: 0x2C0BF, offset: 0x2C0BF, size: 0x8, addend: 0x0, symName: __ZNKSt3__117__compressed_pairIPNS_6vectorIcNS_9allocatorIcEEEERNS2_IS4_EEE5firstB7v160006Ev, symObjAddr: 0x5224, symBinAddr: 0x100006F14, symSize: 0x24 }
  - { offsetInCU: 0x2C0E5, offset: 0x2C0E5, size: 0x8, addend: 0x0, symName: __ZNSt3__16vectorIcNS_9allocatorIcEEEC2B7v160006Ev, symObjAddr: 0x5248, symBinAddr: 0x100006F38, symSize: 0x54 }
  - { offsetInCU: 0x2C10F, offset: 0x2C10F, size: 0x8, addend: 0x0, symName: __ZNSt3__117__compressed_pairIPcNS_9allocatorIcEEEC1B7v160006IDnNS_18__default_init_tagEEEOT_OT0_, symObjAddr: 0x529C, symBinAddr: 0x100006F8C, symSize: 0x3C }
  - { offsetInCU: 0x2C167, offset: 0x2C167, size: 0x8, addend: 0x0, symName: __ZNSt3__117__compressed_pairIPcNS_9allocatorIcEEEC2B7v160006IDnNS_18__default_init_tagEEEOT_OT0_, symObjAddr: 0x52D8, symBinAddr: 0x100006FC8, symSize: 0x40 }
  - { offsetInCU: 0x2C1BF, offset: 0x2C1BF, size: 0x8, addend: 0x0, symName: __ZNSt3__122__compressed_pair_elemINS_9allocatorIcEELi1ELb1EEC2B7v160006ENS_18__default_init_tagE, symObjAddr: 0x5318, symBinAddr: 0x100007008, symSize: 0x2C }
  - { offsetInCU: 0x2C1F3, offset: 0x2C1F3, size: 0x8, addend: 0x0, symName: __ZNSt3__19allocatorIcEC2B7v160006Ev, symObjAddr: 0x5344, symBinAddr: 0x100007034, symSize: 0x2C }
  - { offsetInCU: 0x2C21D, offset: 0x2C21D, size: 0x8, addend: 0x0, symName: __ZNSt3__116__non_trivial_ifILb1ENS_9allocatorIcEEEC2B7v160006Ev, symObjAddr: 0x5370, symBinAddr: 0x100007060, symSize: 0x14 }
  - { offsetInCU: 0x2C247, offset: 0x2C247, size: 0x8, addend: 0x0, symName: __ZNSt3__16vectorIcNS_9allocatorIcEEED2B7v160006Ev, symObjAddr: 0x5384, symBinAddr: 0x100007074, symSize: 0x44 }
  - { offsetInCU: 0x2C271, offset: 0x2C271, size: 0x8, addend: 0x0, symName: __ZNSt3__16vectorIcNS_9allocatorIcEEE16__destroy_vectorC1ERS3_, symObjAddr: 0x53C8, symBinAddr: 0x1000070B8, symSize: 0x34 }
  - { offsetInCU: 0x2C2AA, offset: 0x2C2AA, size: 0x8, addend: 0x0, symName: __ZNSt3__16vectorIcNS_9allocatorIcEEE16__destroy_vectorclB7v160006Ev, symObjAddr: 0x53FC, symBinAddr: 0x1000070EC, symSize: 0x9C }
  - { offsetInCU: 0x2C2D0, offset: 0x2C2D0, size: 0x8, addend: 0x0, symName: __ZNSt3__16vectorIcNS_9allocatorIcEEE16__destroy_vectorC2ERS3_, symObjAddr: 0x5498, symBinAddr: 0x100007188, symSize: 0x20 }
  - { offsetInCU: 0x2C309, offset: 0x2C309, size: 0x8, addend: 0x0, symName: __ZNKSt3__16vectorIcNS_9allocatorIcEEE17__annotate_deleteB7v160006Ev, symObjAddr: 0x54B8, symBinAddr: 0x1000071A8, symSize: 0xB8 }
  - { offsetInCU: 0x2C32F, offset: 0x2C32F, size: 0x8, addend: 0x0, symName: __ZNSt3__16vectorIcNS_9allocatorIcEEE7__clearB7v160006Ev, symObjAddr: 0x5580, symBinAddr: 0x100007270, symSize: 0x28 }
  - { offsetInCU: 0x2C355, offset: 0x2C355, size: 0x8, addend: 0x0, symName: __ZNSt3__116allocator_traitsINS_9allocatorIcEEE10deallocateB7v160006ERS2_Pcm, symObjAddr: 0x55A8, symBinAddr: 0x100007298, symSize: 0x34 }
  - { offsetInCU: 0x2C397, offset: 0x2C397, size: 0x8, addend: 0x0, symName: __ZNKSt3__16vectorIcNS_9allocatorIcEEE8capacityB7v160006Ev, symObjAddr: 0x55DC, symBinAddr: 0x1000072CC, symSize: 0x38 }
  - { offsetInCU: 0x2C3BD, offset: 0x2C3BD, size: 0x8, addend: 0x0, symName: __ZNKSt3__16vectorIcNS_9allocatorIcEEE31__annotate_contiguous_containerB7v160006EPKvS5_S5_S5_, symObjAddr: 0x5614, symBinAddr: 0x100007304, symSize: 0x20 }
  - { offsetInCU: 0x2C40F, offset: 0x2C40F, size: 0x8, addend: 0x0, symName: __ZNKSt3__16vectorIcNS_9allocatorIcEEE4dataB7v160006Ev, symObjAddr: 0x5634, symBinAddr: 0x100007324, symSize: 0x28 }
  - { offsetInCU: 0x2C435, offset: 0x2C435, size: 0x8, addend: 0x0, symName: __ZNSt3__16vectorIcNS_9allocatorIcEEE22__base_destruct_at_endB7v160006EPc, symObjAddr: 0x5670, symBinAddr: 0x100007360, symSize: 0x8C }
  - { offsetInCU: 0x2C479, offset: 0x2C479, size: 0x8, addend: 0x0, symName: __ZNSt3__116allocator_traitsINS_9allocatorIcEEE7destroyB7v160006IcvEEvRS2_PT_, symObjAddr: 0x56FC, symBinAddr: 0x1000073EC, symSize: 0x2C }
  - { offsetInCU: 0x2C4B6, offset: 0x2C4B6, size: 0x8, addend: 0x0, symName: __ZNSt3__19allocatorIcE7destroyB7v160006EPc, symObjAddr: 0x5728, symBinAddr: 0x100007418, symSize: 0x14 }
  - { offsetInCU: 0x2C4EA, offset: 0x2C4EA, size: 0x8, addend: 0x0, symName: __ZNSt3__19allocatorIcE10deallocateB7v160006EPcm, symObjAddr: 0x573C, symBinAddr: 0x10000742C, symSize: 0x40 }
  - { offsetInCU: 0x2C52C, offset: 0x2C52C, size: 0x8, addend: 0x0, symName: __ZNKSt3__16vectorIcNS_9allocatorIcEEE9__end_capB7v160006Ev, symObjAddr: 0x577C, symBinAddr: 0x10000746C, symSize: 0x28 }
  - { offsetInCU: 0x2C552, offset: 0x2C552, size: 0x8, addend: 0x0, symName: __ZNKSt3__117__compressed_pairIPcNS_9allocatorIcEEE5firstB7v160006Ev, symObjAddr: 0x57A4, symBinAddr: 0x100007494, symSize: 0x24 }
  - { offsetInCU: 0x2C578, offset: 0x2C578, size: 0x8, addend: 0x0, symName: __ZNKSt3__122__compressed_pair_elemIPcLi0ELb0EE5__getB7v160006Ev, symObjAddr: 0x57C8, symBinAddr: 0x1000074B8, symSize: 0x14 }
  - { offsetInCU: 0x2C5A4, offset: 0x2C5A4, size: 0x8, addend: 0x0, symName: __ZNSt3__16vectorIcNS_9allocatorIcEEE22__construct_one_at_endB7v160006IJcEEEvDpOT_, symObjAddr: 0x57DC, symBinAddr: 0x1000074CC, symSize: 0x90 }
  - { offsetInCU: 0x2C5F3, offset: 0x2C5F3, size: 0x8, addend: 0x0, symName: __ZNSt3__16vectorIcNS_9allocatorIcEEE21__push_back_slow_pathIcEEvOT_, symObjAddr: 0x586C, symBinAddr: 0x10000755C, symSize: 0xD8 }
  - { offsetInCU: 0x2C66A, offset: 0x2C66A, size: 0x8, addend: 0x0, symName: __ZNSt3__16vectorIcNS_9allocatorIcEEE21_ConstructTransactionC1B7v160006ERS3_m, symObjAddr: 0x5944, symBinAddr: 0x100007634, symSize: 0x3C }
  - { offsetInCU: 0x2C6B2, offset: 0x2C6B2, size: 0x8, addend: 0x0, symName: __ZNSt3__116allocator_traitsINS_9allocatorIcEEE9constructB7v160006IcJcEvEEvRS2_PT_DpOT0_, symObjAddr: 0x5980, symBinAddr: 0x100007670, symSize: 0x34 }
  - { offsetInCU: 0x2C709, offset: 0x2C709, size: 0x8, addend: 0x0, symName: __ZNSt3__16vectorIcNS_9allocatorIcEEE21_ConstructTransactionD1B7v160006Ev, symObjAddr: 0x59B4, symBinAddr: 0x1000076A4, symSize: 0x2C }
  - { offsetInCU: 0x2C733, offset: 0x2C733, size: 0x8, addend: 0x0, symName: __ZNSt3__16vectorIcNS_9allocatorIcEEE21_ConstructTransactionC2B7v160006ERS3_m, symObjAddr: 0x59E0, symBinAddr: 0x1000076D0, symSize: 0x44 }
  - { offsetInCU: 0x2C77B, offset: 0x2C77B, size: 0x8, addend: 0x0, symName: __ZNSt3__19allocatorIcE9constructB7v160006IcJcEEEvPT_DpOT0_, symObjAddr: 0x5A24, symBinAddr: 0x100007714, symSize: 0x28 }
  - { offsetInCU: 0x2C7D1, offset: 0x2C7D1, size: 0x8, addend: 0x0, symName: __ZNSt3__16vectorIcNS_9allocatorIcEEE21_ConstructTransactionD2B7v160006Ev, symObjAddr: 0x5A4C, symBinAddr: 0x10000773C, symSize: 0x20 }
  - { offsetInCU: 0x2C7FB, offset: 0x2C7FB, size: 0x8, addend: 0x0, symName: __ZNKSt3__16vectorIcNS_9allocatorIcEEE11__recommendB7v160006Em, symObjAddr: 0x5A6C, symBinAddr: 0x10000775C, symSize: 0xB4 }
  - { offsetInCU: 0x2C850, offset: 0x2C850, size: 0x8, addend: 0x0, symName: __ZNSt3__114__split_bufferIcRNS_9allocatorIcEEEC1EmmS3_, symObjAddr: 0x5B20, symBinAddr: 0x100007810, symSize: 0x44 }
  - { offsetInCU: 0x2C8A6, offset: 0x2C8A6, size: 0x8, addend: 0x0, symName: __ZNSt3__114__split_bufferIcRNS_9allocatorIcEEED1Ev, symObjAddr: 0x5C7C, symBinAddr: 0x10000796C, symSize: 0x2C }
  - { offsetInCU: 0x2C8D2, offset: 0x2C8D2, size: 0x8, addend: 0x0, symName: __ZNKSt3__16vectorIcNS_9allocatorIcEEE8max_sizeEv, symObjAddr: 0x5CA8, symBinAddr: 0x100007998, symSize: 0x60 }
  - { offsetInCU: 0x2C8FA, offset: 0x2C8FA, size: 0x8, addend: 0x0, symName: __ZNKSt3__16vectorIcNS_9allocatorIcEEE20__throw_length_errorB7v160006Ev, symObjAddr: 0x5D08, symBinAddr: 0x1000079F8, symSize: 0x1C }
  - { offsetInCU: 0x2C92A, offset: 0x2C92A, size: 0x8, addend: 0x0, symName: __ZNSt3__116allocator_traitsINS_9allocatorIcEEE8max_sizeB7v160006IS2_vEEmRKS2_, symObjAddr: 0x5D24, symBinAddr: 0x100007A14, symSize: 0x24 }
  - { offsetInCU: 0x2C958, offset: 0x2C958, size: 0x8, addend: 0x0, symName: __ZNKSt3__16vectorIcNS_9allocatorIcEEE7__allocB7v160006Ev, symObjAddr: 0x5D48, symBinAddr: 0x100007A38, symSize: 0x28 }
  - { offsetInCU: 0x2C97E, offset: 0x2C97E, size: 0x8, addend: 0x0, symName: __ZNKSt3__19allocatorIcE8max_sizeB7v160006Ev, symObjAddr: 0x5D70, symBinAddr: 0x100007A60, symSize: 0x14 }
  - { offsetInCU: 0x2C9A4, offset: 0x2C9A4, size: 0x8, addend: 0x0, symName: __ZNKSt3__117__compressed_pairIPcNS_9allocatorIcEEE6secondB7v160006Ev, symObjAddr: 0x5D84, symBinAddr: 0x100007A74, symSize: 0x24 }
  - { offsetInCU: 0x2C9CA, offset: 0x2C9CA, size: 0x8, addend: 0x0, symName: __ZNKSt3__122__compressed_pair_elemINS_9allocatorIcEELi1ELb1EE5__getB7v160006Ev, symObjAddr: 0x5DA8, symBinAddr: 0x100007A98, symSize: 0x14 }
  - { offsetInCU: 0x2C9F0, offset: 0x2C9F0, size: 0x8, addend: 0x0, symName: __ZNSt3__114__split_bufferIcRNS_9allocatorIcEEEC2EmmS3_, symObjAddr: 0x5DBC, symBinAddr: 0x100007AAC, symSize: 0xD4 }
  - { offsetInCU: 0x2CA63, offset: 0x2CA63, size: 0x8, addend: 0x0, symName: __ZNSt3__117__compressed_pairIPcRNS_9allocatorIcEEEC1B7v160006IDnS4_EEOT_OT0_, symObjAddr: 0x5E90, symBinAddr: 0x100007B80, symSize: 0x3C }
  - { offsetInCU: 0x2CABB, offset: 0x2CABB, size: 0x8, addend: 0x0, symName: __ZNSt3__114__split_bufferIcRNS_9allocatorIcEEE7__allocB7v160006Ev, symObjAddr: 0x5F0C, symBinAddr: 0x100007BFC, symSize: 0x28 }
  - { offsetInCU: 0x2CAE1, offset: 0x2CAE1, size: 0x8, addend: 0x0, symName: __ZNSt3__114__split_bufferIcRNS_9allocatorIcEEE9__end_capB7v160006Ev, symObjAddr: 0x5F34, symBinAddr: 0x100007C24, symSize: 0x28 }
  - { offsetInCU: 0x2CB07, offset: 0x2CB07, size: 0x8, addend: 0x0, symName: __ZNSt3__117__compressed_pairIPcRNS_9allocatorIcEEEC2B7v160006IDnS4_EEOT_OT0_, symObjAddr: 0x5F5C, symBinAddr: 0x100007C4C, symSize: 0x48 }
  - { offsetInCU: 0x2CB5F, offset: 0x2CB5F, size: 0x8, addend: 0x0, symName: __ZNSt3__122__compressed_pair_elemIRNS_9allocatorIcEELi1ELb0EEC2B7v160006IS3_vEEOT_, symObjAddr: 0x5FA4, symBinAddr: 0x100007C94, symSize: 0x20 }
  - { offsetInCU: 0x2CBA1, offset: 0x2CBA1, size: 0x8, addend: 0x0, symName: __ZNSt3__19allocatorIcE8allocateB7v160006Em, symObjAddr: 0x5FC4, symBinAddr: 0x100007CB4, symSize: 0x58 }
  - { offsetInCU: 0x2CBD5, offset: 0x2CBD5, size: 0x8, addend: 0x0, symName: __ZNSt3__117__compressed_pairIPcRNS_9allocatorIcEEE6secondB7v160006Ev, symObjAddr: 0x601C, symBinAddr: 0x100007D0C, symSize: 0x28 }
  - { offsetInCU: 0x2CBFB, offset: 0x2CBFB, size: 0x8, addend: 0x0, symName: __ZNSt3__122__compressed_pair_elemIRNS_9allocatorIcEELi1ELb0EE5__getB7v160006Ev, symObjAddr: 0x6044, symBinAddr: 0x100007D34, symSize: 0x18 }
  - { offsetInCU: 0x2CC21, offset: 0x2CC21, size: 0x8, addend: 0x0, symName: __ZNSt3__117__compressed_pairIPcRNS_9allocatorIcEEE5firstB7v160006Ev, symObjAddr: 0x605C, symBinAddr: 0x100007D4C, symSize: 0x24 }
  - { offsetInCU: 0x2CC47, offset: 0x2CC47, size: 0x8, addend: 0x0, symName: __ZNSt3__116reverse_iteratorIPcEC1B7v160006ES1_, symObjAddr: 0x60F8, symBinAddr: 0x100007DE8, symSize: 0x34 }
  - { offsetInCU: 0x2CC7F, offset: 0x2CC7F, size: 0x8, addend: 0x0, symName: __ZNKSt3__116reverse_iteratorIPcE4baseB7v160006Ev, symObjAddr: 0x612C, symBinAddr: 0x100007E1C, symSize: 0x18 }
  - { offsetInCU: 0x2CCA5, offset: 0x2CCA5, size: 0x8, addend: 0x0, symName: __ZNKSt3__16vectorIcNS_9allocatorIcEEE14__annotate_newB7v160006Em, symObjAddr: 0x6180, symBinAddr: 0x100007E70, symSize: 0xAC }
  - { offsetInCU: 0x2CCFE, offset: 0x2CCFE, size: 0x8, addend: 0x0, symName: __ZNKSt3__111__move_loopINS_17_ClassicAlgPolicyEEclB7v160006INS_16reverse_iteratorIPcEES6_S6_EENS_4pairIT_T1_EES8_T0_S9_, symObjAddr: 0x652C, symBinAddr: 0x10000821C, symSize: 0xA0 }
  - { offsetInCU: 0x2CD69, offset: 0x2CD69, size: 0x8, addend: 0x0, symName: __ZNSt3__18_IterOpsINS_17_ClassicAlgPolicyEE11__iter_moveB7v160006IRNS_16reverse_iteratorIPcEEEENS_9enable_ifIXsr12is_referenceIDTdeclsr3stdE7declvalIRT_EEEEE5valueEDTclsr3stdE4movedeclsr3stdE7declvalISA_EEEEE4typeEOS9_, symObjAddr: 0x6760, symBinAddr: 0x100008450, symSize: 0x28 }
  - { offsetInCU: 0x2CD95, offset: 0x2CD95, size: 0x8, addend: 0x0, symName: __ZNKSt3__116reverse_iteratorIPcEdeB7v160006Ev, symObjAddr: 0x6788, symBinAddr: 0x100008478, symSize: 0x28 }
  - { offsetInCU: 0x2CDC9, offset: 0x2CDC9, size: 0x8, addend: 0x0, symName: __ZNSt3__116reverse_iteratorIPcEppB7v160006Ev, symObjAddr: 0x67B0, symBinAddr: 0x1000084A0, symSize: 0x20 }
  - { offsetInCU: 0x2CDEF, offset: 0x2CDEF, size: 0x8, addend: 0x0, symName: __ZNSt3__18_IterOpsINS_17_ClassicAlgPolicyEE25__validate_iter_referenceB7v160006IRNS_16reverse_iteratorIPcEEEEvv, symObjAddr: 0x67D0, symBinAddr: 0x1000084C0, symSize: 0x4 }
  - { offsetInCU: 0x2CE0D, offset: 0x2CE0D, size: 0x8, addend: 0x0, symName: __ZNSt3__118__unwrap_iter_implINS_16reverse_iteratorIPcEELb0EE8__unwrapB7v160006ES3_, symObjAddr: 0x67D4, symBinAddr: 0x1000084C4, symSize: 0x24 }
  - { offsetInCU: 0x2CE36, offset: 0x2CE36, size: 0x8, addend: 0x0, symName: __ZNSt3__14pairINS_16reverse_iteratorIPcEES3_EC1B7v160006IS3_S3_LPv0EEEOT_OT0_, symObjAddr: 0x67F8, symBinAddr: 0x1000084E8, symSize: 0x3C }
  - { offsetInCU: 0x2CE94, offset: 0x2CE94, size: 0x8, addend: 0x0, symName: __ZNSt3__14pairINS_16reverse_iteratorIPcEES3_EC2B7v160006IS3_S3_LPv0EEEOT_OT0_, symObjAddr: 0x6834, symBinAddr: 0x100008524, symSize: 0x34 }
  - { offsetInCU: 0x2CEF2, offset: 0x2CEF2, size: 0x8, addend: 0x0, symName: __ZNSt3__118__unwrap_iter_implINS_16reverse_iteratorIPcEELb0EE8__rewrapB7v160006ES3_S3_, symObjAddr: 0x6868, symBinAddr: 0x100008558, symSize: 0x2C }
  - { offsetInCU: 0x2CF1F, offset: 0x2CF1F, size: 0x8, addend: 0x0, symName: __ZNSt3__116reverse_iteratorIPcEC2B7v160006ES1_, symObjAddr: 0x6894, symBinAddr: 0x100008584, symSize: 0x28 }
  - { offsetInCU: 0x2CF57, offset: 0x2CF57, size: 0x8, addend: 0x0, symName: __ZNSt3__114__split_bufferIcRNS_9allocatorIcEEED2Ev, symObjAddr: 0x68BC, symBinAddr: 0x1000085AC, symSize: 0x8C }
  - { offsetInCU: 0x2CF83, offset: 0x2CF83, size: 0x8, addend: 0x0, symName: __ZNSt3__114__split_bufferIcRNS_9allocatorIcEEE5clearB7v160006Ev, symObjAddr: 0x6948, symBinAddr: 0x100008638, symSize: 0x28 }
  - { offsetInCU: 0x2CFA9, offset: 0x2CFA9, size: 0x8, addend: 0x0, symName: __ZNKSt3__114__split_bufferIcRNS_9allocatorIcEEE8capacityB7v160006Ev, symObjAddr: 0x6970, symBinAddr: 0x100008660, symSize: 0x38 }
  - { offsetInCU: 0x2CFCF, offset: 0x2CFCF, size: 0x8, addend: 0x0, symName: __ZNSt3__114__split_bufferIcRNS_9allocatorIcEEE17__destruct_at_endB7v160006EPc, symObjAddr: 0x69A8, symBinAddr: 0x100008698, symSize: 0x2C }
  - { offsetInCU: 0x2D003, offset: 0x2D003, size: 0x8, addend: 0x0, symName: __ZNSt3__114__split_bufferIcRNS_9allocatorIcEEE17__destruct_at_endB7v160006EPcNS_17integral_constantIbLb0EEE, symObjAddr: 0x69D4, symBinAddr: 0x1000086C4, symSize: 0x80 }
  - { offsetInCU: 0x2D043, offset: 0x2D043, size: 0x8, addend: 0x0, symName: __ZNKSt3__114__split_bufferIcRNS_9allocatorIcEEE9__end_capB7v160006Ev, symObjAddr: 0x6A54, symBinAddr: 0x100008744, symSize: 0x28 }
  - { offsetInCU: 0x2D069, offset: 0x2D069, size: 0x8, addend: 0x0, symName: __ZNKSt3__117__compressed_pairIPcRNS_9allocatorIcEEE5firstB7v160006Ev, symObjAddr: 0x6A7C, symBinAddr: 0x10000876C, symSize: 0x24 }
  - { offsetInCU: 0x2D08F, offset: 0x2D08F, size: 0x8, addend: 0x0, symName: __ZN5PointC2Eii, symObjAddr: 0x6AA0, symBinAddr: 0x100008790, symSize: 0x2C }
  - { offsetInCU: 0x2D0D5, offset: 0x2D0D5, size: 0x8, addend: 0x0, symName: __ZNSt3__16vectorI5PointNS_9allocatorIS1_EEEC1B7v160006ESt16initializer_listIS1_E, symObjAddr: 0x6ACC, symBinAddr: 0x1000087BC, symSize: 0x3C }
  - { offsetInCU: 0x2D110, offset: 0x2D110, size: 0x8, addend: 0x0, symName: __ZNSt3__16vectorI5PointNS_9allocatorIS1_EEE9push_backB7v160006EOS1_, symObjAddr: 0x6B08, symBinAddr: 0x1000087F8, symSize: 0x6C }
  - { offsetInCU: 0x2D147, offset: 0x2D147, size: 0x8, addend: 0x0, symName: __ZN5PointplERKS_, symObjAddr: 0x6B74, symBinAddr: 0x100008864, symSize: 0x5C }
  - { offsetInCU: 0x2D17B, offset: 0x2D17B, size: 0x8, addend: 0x0, symName: __ZNSt3__16vectorI5PointNS_9allocatorIS1_EEEC2B7v160006ESt16initializer_listIS1_E, symObjAddr: 0x6BD0, symBinAddr: 0x1000088C0, symSize: 0x128 }
  - { offsetInCU: 0x2D1CB, offset: 0x2D1CB, size: 0x8, addend: 0x0, symName: __ZNSt3__16vectorI5PointNS_9allocatorIS1_EEE16__destroy_vectorC1ERS4_, symObjAddr: 0x6D38, symBinAddr: 0x100008A28, symSize: 0x34 }
  - { offsetInCU: 0x2D204, offset: 0x2D204, size: 0x8, addend: 0x0, symName: __ZNKSt16initializer_listI5PointE4sizeB7v160006Ev, symObjAddr: 0x6D6C, symBinAddr: 0x100008A5C, symSize: 0x18 }
  - { offsetInCU: 0x2D22A, offset: 0x2D22A, size: 0x8, addend: 0x0, symName: __ZNSt3__16vectorI5PointNS_9allocatorIS1_EEE11__vallocateB7v160006Em, symObjAddr: 0x6D84, symBinAddr: 0x100008A74, symSize: 0xAC }
  - { offsetInCU: 0x2D26E, offset: 0x2D26E, size: 0x8, addend: 0x0, symName: __ZNSt3__16vectorI5PointNS_9allocatorIS1_EEE18__construct_at_endIPKS1_Li0EEEvT_S8_m, symObjAddr: 0x6E30, symBinAddr: 0x100008B20, symSize: 0x8C }
  - { offsetInCU: 0x2D2E1, offset: 0x2D2E1, size: 0x8, addend: 0x0, symName: __ZNKSt16initializer_listI5PointE5beginB7v160006Ev, symObjAddr: 0x6EBC, symBinAddr: 0x100008BAC, symSize: 0x18 }
  - { offsetInCU: 0x2D307, offset: 0x2D307, size: 0x8, addend: 0x0, symName: __ZNKSt16initializer_listI5PointE3endB7v160006Ev, symObjAddr: 0x6ED4, symBinAddr: 0x100008BC4, symSize: 0x20 }
  - { offsetInCU: 0x2D32D, offset: 0x2D32D, size: 0x8, addend: 0x0, symName: __ZNSt3__128__exception_guard_exceptionsINS_6vectorI5PointNS_9allocatorIS2_EEE16__destroy_vectorEE10__completeB7v160006Ev, symObjAddr: 0x6EF4, symBinAddr: 0x100008BE4, symSize: 0x1C }
  - { offsetInCU: 0x2D353, offset: 0x2D353, size: 0x8, addend: 0x0, symName: __ZNSt3__128__exception_guard_exceptionsINS_6vectorI5PointNS_9allocatorIS2_EEE16__destroy_vectorEED1B7v160006Ev, symObjAddr: 0x6F10, symBinAddr: 0x100008C00, symSize: 0x2C }
  - { offsetInCU: 0x2D37D, offset: 0x2D37D, size: 0x8, addend: 0x0, symName: __ZNSt3__128__exception_guard_exceptionsINS_6vectorI5PointNS_9allocatorIS2_EEE16__destroy_vectorEEC1B7v160006ES6_, symObjAddr: 0x6F3C, symBinAddr: 0x100008C2C, symSize: 0x34 }
  - { offsetInCU: 0x2D3B5, offset: 0x2D3B5, size: 0x8, addend: 0x0, symName: __ZNSt3__128__exception_guard_exceptionsINS_6vectorI5PointNS_9allocatorIS2_EEE16__destroy_vectorEEC2B7v160006ES6_, symObjAddr: 0x6F70, symBinAddr: 0x100008C60, symSize: 0x24 }
  - { offsetInCU: 0x2D3ED, offset: 0x2D3ED, size: 0x8, addend: 0x0, symName: __ZNSt3__16vectorI5PointNS_9allocatorIS1_EEE16__destroy_vectorC2ERS4_, symObjAddr: 0x6F94, symBinAddr: 0x100008C84, symSize: 0x20 }
  - { offsetInCU: 0x2D426, offset: 0x2D426, size: 0x8, addend: 0x0, symName: __ZNKSt3__16vectorI5PointNS_9allocatorIS1_EEE8max_sizeEv, symObjAddr: 0x6FB4, symBinAddr: 0x100008CA4, symSize: 0x60 }
  - { offsetInCU: 0x2D44E, offset: 0x2D44E, size: 0x8, addend: 0x0, symName: __ZNKSt3__16vectorI5PointNS_9allocatorIS1_EEE20__throw_length_errorB7v160006Ev, symObjAddr: 0x7014, symBinAddr: 0x100008D04, symSize: 0x1C }
  - { offsetInCU: 0x2D474, offset: 0x2D474, size: 0x8, addend: 0x0, symName: __ZNSt3__16vectorI5PointNS_9allocatorIS1_EEE9__end_capB7v160006Ev, symObjAddr: 0x7070, symBinAddr: 0x100008D60, symSize: 0x28 }
  - { offsetInCU: 0x2D49A, offset: 0x2D49A, size: 0x8, addend: 0x0, symName: __ZNKSt3__16vectorI5PointNS_9allocatorIS1_EEE14__annotate_newB7v160006Em, symObjAddr: 0x7098, symBinAddr: 0x100008D88, symSize: 0xAC }
  - { offsetInCU: 0x2D4D9, offset: 0x2D4D9, size: 0x8, addend: 0x0, symName: __ZNSt3__116allocator_traitsINS_9allocatorI5PointEEE8max_sizeB7v160006IS3_vEEmRKS3_, symObjAddr: 0x7144, symBinAddr: 0x100008E34, symSize: 0x24 }
  - { offsetInCU: 0x2D507, offset: 0x2D507, size: 0x8, addend: 0x0, symName: __ZNKSt3__16vectorI5PointNS_9allocatorIS1_EEE7__allocB7v160006Ev, symObjAddr: 0x7168, symBinAddr: 0x100008E58, symSize: 0x28 }
  - { offsetInCU: 0x2D52D, offset: 0x2D52D, size: 0x8, addend: 0x0, symName: __ZNKSt3__19allocatorI5PointE8max_sizeB7v160006Ev, symObjAddr: 0x7190, symBinAddr: 0x100008E80, symSize: 0x14 }
  - { offsetInCU: 0x2D553, offset: 0x2D553, size: 0x8, addend: 0x0, symName: __ZNKSt3__117__compressed_pairIP5PointNS_9allocatorIS1_EEE6secondB7v160006Ev, symObjAddr: 0x71A4, symBinAddr: 0x100008E94, symSize: 0x24 }
  - { offsetInCU: 0x2D579, offset: 0x2D579, size: 0x8, addend: 0x0, symName: __ZNKSt3__122__compressed_pair_elemINS_9allocatorI5PointEELi1ELb1EE5__getB7v160006Ev, symObjAddr: 0x71C8, symBinAddr: 0x100008EB8, symSize: 0x14 }
  - { offsetInCU: 0x2D59F, offset: 0x2D59F, size: 0x8, addend: 0x0, symName: __ZNSt3__19allocatorI5PointE8allocateB7v160006Em, symObjAddr: 0x71DC, symBinAddr: 0x100008ECC, symSize: 0x58 }
  - { offsetInCU: 0x2D5D3, offset: 0x2D5D3, size: 0x8, addend: 0x0, symName: __ZNSt3__117__compressed_pairIP5PointNS_9allocatorIS1_EEE5firstB7v160006Ev, symObjAddr: 0x7234, symBinAddr: 0x100008F24, symSize: 0x24 }
  - { offsetInCU: 0x2D5F9, offset: 0x2D5F9, size: 0x8, addend: 0x0, symName: __ZNSt3__122__compressed_pair_elemIP5PointLi0ELb0EE5__getB7v160006Ev, symObjAddr: 0x7258, symBinAddr: 0x100008F48, symSize: 0x14 }
  - { offsetInCU: 0x2D638, offset: 0x2D638, size: 0x8, addend: 0x0, symName: __ZNSt3__16vectorI5PointNS_9allocatorIS1_EEE21_ConstructTransactionC1B7v160006ERS4_m, symObjAddr: 0x726C, symBinAddr: 0x100008F5C, symSize: 0x3C }
  - { offsetInCU: 0x2D680, offset: 0x2D680, size: 0x8, addend: 0x0, symName: __ZNSt3__16vectorI5PointNS_9allocatorIS1_EEE21_ConstructTransactionD1B7v160006Ev, symObjAddr: 0x739C, symBinAddr: 0x10000908C, symSize: 0x2C }
  - { offsetInCU: 0x2D6AA, offset: 0x2D6AA, size: 0x8, addend: 0x0, symName: __ZNSt3__16vectorI5PointNS_9allocatorIS1_EEE21_ConstructTransactionC2B7v160006ERS4_m, symObjAddr: 0x73C8, symBinAddr: 0x1000090B8, symSize: 0x44 }
  - { offsetInCU: 0x2D6F2, offset: 0x2D6F2, size: 0x8, addend: 0x0, symName: __ZNSt3__129_AllocatorDestroyRangeReverseINS_9allocatorI5PointEEPS2_EC1B7v160006ERS3_RS4_S7_, symObjAddr: 0x7458, symBinAddr: 0x100009148, symSize: 0x44 }
  - { offsetInCU: 0x2D749, offset: 0x2D749, size: 0x8, addend: 0x0, symName: __ZNSt3__116allocator_traitsINS_9allocatorI5PointEEE9constructB7v160006IS2_JRKS2_EvEEvRS3_PT_DpOT0_, symObjAddr: 0x749C, symBinAddr: 0x10000918C, symSize: 0x34 }
  - { offsetInCU: 0x2D7A0, offset: 0x2D7A0, size: 0x8, addend: 0x0, symName: __ZNSt3__128__exception_guard_exceptionsINS_29_AllocatorDestroyRangeReverseINS_9allocatorI5PointEEPS3_EEE10__completeB7v160006Ev, symObjAddr: 0x74D0, symBinAddr: 0x1000091C0, symSize: 0x1C }
  - { offsetInCU: 0x2D7C6, offset: 0x2D7C6, size: 0x8, addend: 0x0, symName: __ZNSt3__128__exception_guard_exceptionsINS_29_AllocatorDestroyRangeReverseINS_9allocatorI5PointEEPS3_EEED1B7v160006Ev, symObjAddr: 0x74EC, symBinAddr: 0x1000091DC, symSize: 0x2C }
  - { offsetInCU: 0x2D7F0, offset: 0x2D7F0, size: 0x8, addend: 0x0, symName: __ZNSt3__128__exception_guard_exceptionsINS_29_AllocatorDestroyRangeReverseINS_9allocatorI5PointEEPS3_EEEC1B7v160006ES6_, symObjAddr: 0x7518, symBinAddr: 0x100009208, symSize: 0x34 }
  - { offsetInCU: 0x2D829, offset: 0x2D829, size: 0x8, addend: 0x0, symName: __ZNSt3__128__exception_guard_exceptionsINS_29_AllocatorDestroyRangeReverseINS_9allocatorI5PointEEPS3_EEEC2B7v160006ES6_, symObjAddr: 0x754C, symBinAddr: 0x10000923C, symSize: 0x30 }
  - { offsetInCU: 0x2D862, offset: 0x2D862, size: 0x8, addend: 0x0, symName: __ZNSt3__129_AllocatorDestroyRangeReverseINS_9allocatorI5PointEEPS2_EC2B7v160006ERS3_RS4_S7_, symObjAddr: 0x757C, symBinAddr: 0x10000926C, symSize: 0x38 }
  - { offsetInCU: 0x2D8B9, offset: 0x2D8B9, size: 0x8, addend: 0x0, symName: __ZNSt3__19allocatorI5PointE9constructB7v160006IS1_JRKS1_EEEvPT_DpOT0_, symObjAddr: 0x75B4, symBinAddr: 0x1000092A4, symSize: 0x30 }
  - { offsetInCU: 0x2D90F, offset: 0x2D90F, size: 0x8, addend: 0x0, symName: __ZNSt3__128__exception_guard_exceptionsINS_29_AllocatorDestroyRangeReverseINS_9allocatorI5PointEEPS3_EEED2B7v160006Ev, symObjAddr: 0x75E4, symBinAddr: 0x1000092D4, symSize: 0x50 }
  - { offsetInCU: 0x2D939, offset: 0x2D939, size: 0x8, addend: 0x0, symName: __ZNKSt3__129_AllocatorDestroyRangeReverseINS_9allocatorI5PointEEPS2_EclB7v160006Ev, symObjAddr: 0x7634, symBinAddr: 0x100009324, symSize: 0x68 }
  - { offsetInCU: 0x2D95F, offset: 0x2D95F, size: 0x8, addend: 0x0, symName: __ZNSt3__116reverse_iteratorIP5PointEC1B7v160006ES2_, symObjAddr: 0x770C, symBinAddr: 0x1000093FC, symSize: 0x34 }
  - { offsetInCU: 0x2D997, offset: 0x2D997, size: 0x8, addend: 0x0, symName: __ZNSt3__116reverse_iteratorIP5PointEppB7v160006Ev, symObjAddr: 0x77AC, symBinAddr: 0x10000949C, symSize: 0x20 }
  - { offsetInCU: 0x2D9BD, offset: 0x2D9BD, size: 0x8, addend: 0x0, symName: __ZNKSt3__116reverse_iteratorIP5PointE4baseB7v160006Ev, symObjAddr: 0x77CC, symBinAddr: 0x1000094BC, symSize: 0x18 }
  - { offsetInCU: 0x2D9E8, offset: 0x2D9E8, size: 0x8, addend: 0x0, symName: __ZNSt3__119__to_address_helperINS_16reverse_iteratorIP5PointEEvE6__callB7v160006ERKS4_, symObjAddr: 0x77E4, symBinAddr: 0x1000094D4, symSize: 0x38 }
  - { offsetInCU: 0x2DA0B, offset: 0x2DA0B, size: 0x8, addend: 0x0, symName: __ZNKSt3__116reverse_iteratorIP5PointEptB7v160006Ev, symObjAddr: 0x781C, symBinAddr: 0x10000950C, symSize: 0x24 }
  - { offsetInCU: 0x2DA31, offset: 0x2DA31, size: 0x8, addend: 0x0, symName: __ZNKSt3__116reverse_iteratorIP5PointEdeB7v160006Ev, symObjAddr: 0x7840, symBinAddr: 0x100009530, symSize: 0x28 }
  - { offsetInCU: 0x2DA65, offset: 0x2DA65, size: 0x8, addend: 0x0, symName: __ZNSt3__116reverse_iteratorIP5PointEC2B7v160006ES2_, symObjAddr: 0x7868, symBinAddr: 0x100009558, symSize: 0x28 }
  - { offsetInCU: 0x2DA9D, offset: 0x2DA9D, size: 0x8, addend: 0x0, symName: __ZNSt3__16vectorI5PointNS_9allocatorIS1_EEE21_ConstructTransactionD2B7v160006Ev, symObjAddr: 0x7890, symBinAddr: 0x100009580, symSize: 0x20 }
  - { offsetInCU: 0x2DAC7, offset: 0x2DAC7, size: 0x8, addend: 0x0, symName: __ZNSt3__128__exception_guard_exceptionsINS_6vectorI5PointNS_9allocatorIS2_EEE16__destroy_vectorEED2B7v160006Ev, symObjAddr: 0x78B0, symBinAddr: 0x1000095A0, symSize: 0x50 }
  - { offsetInCU: 0x2DAF1, offset: 0x2DAF1, size: 0x8, addend: 0x0, symName: __ZNSt3__16vectorI5PointNS_9allocatorIS1_EEE16__destroy_vectorclB7v160006Ev, symObjAddr: 0x7900, symBinAddr: 0x1000095F0, symSize: 0x9C }
  - { offsetInCU: 0x2DB17, offset: 0x2DB17, size: 0x8, addend: 0x0, symName: __ZNKSt3__16vectorI5PointNS_9allocatorIS1_EEE17__annotate_deleteB7v160006Ev, symObjAddr: 0x799C, symBinAddr: 0x10000968C, symSize: 0xB8 }
  - { offsetInCU: 0x2DB3D, offset: 0x2DB3D, size: 0x8, addend: 0x0, symName: __ZNSt3__116allocator_traitsINS_9allocatorI5PointEEE10deallocateB7v160006ERS3_PS2_m, symObjAddr: 0x7A64, symBinAddr: 0x100009754, symSize: 0x34 }
  - { offsetInCU: 0x2DB7F, offset: 0x2DB7F, size: 0x8, addend: 0x0, symName: __ZNSt3__19allocatorI5PointE10deallocateB7v160006EPS1_m, symObjAddr: 0x7A98, symBinAddr: 0x100009788, symSize: 0x40 }
  - { offsetInCU: 0x2DBC7, offset: 0x2DBC7, size: 0x8, addend: 0x0, symName: __ZNSt3__16vectorI5PointNS_9allocatorIS1_EEE22__construct_one_at_endB7v160006IJS1_EEEvDpOT_, symObjAddr: 0x7AD8, symBinAddr: 0x1000097C8, symSize: 0x90 }
  - { offsetInCU: 0x2DC16, offset: 0x2DC16, size: 0x8, addend: 0x0, symName: __ZNSt3__16vectorI5PointNS_9allocatorIS1_EEE21__push_back_slow_pathIS1_EEvOT_, symObjAddr: 0x7B68, symBinAddr: 0x100009858, symSize: 0xD8 }
  - { offsetInCU: 0x2DC74, offset: 0x2DC74, size: 0x8, addend: 0x0, symName: __ZNSt3__116allocator_traitsINS_9allocatorI5PointEEE9constructB7v160006IS2_JS2_EvEEvRS3_PT_DpOT0_, symObjAddr: 0x7C40, symBinAddr: 0x100009930, symSize: 0x34 }
  - { offsetInCU: 0x2DCCB, offset: 0x2DCCB, size: 0x8, addend: 0x0, symName: __ZNSt3__19allocatorI5PointE9constructB7v160006IS1_JS1_EEEvPT_DpOT0_, symObjAddr: 0x7C74, symBinAddr: 0x100009964, symSize: 0x30 }
  - { offsetInCU: 0x2DD21, offset: 0x2DD21, size: 0x8, addend: 0x0, symName: __ZNKSt3__16vectorI5PointNS_9allocatorIS1_EEE11__recommendB7v160006Em, symObjAddr: 0x7CA4, symBinAddr: 0x100009994, symSize: 0xB4 }
  - { offsetInCU: 0x2DD76, offset: 0x2DD76, size: 0x8, addend: 0x0, symName: __ZNSt3__114__split_bufferI5PointRNS_9allocatorIS1_EEEC1EmmS4_, symObjAddr: 0x7D58, symBinAddr: 0x100009A48, symSize: 0x44 }
  - { offsetInCU: 0x2DDCC, offset: 0x2DDCC, size: 0x8, addend: 0x0, symName: __ZNSt3__114__split_bufferI5PointRNS_9allocatorIS1_EEED1Ev, symObjAddr: 0x7EB4, symBinAddr: 0x100009BA4, symSize: 0x2C }
  - { offsetInCU: 0x2DDF8, offset: 0x2DDF8, size: 0x8, addend: 0x0, symName: __ZNSt3__114__split_bufferI5PointRNS_9allocatorIS1_EEEC2EmmS4_, symObjAddr: 0x7EE0, symBinAddr: 0x100009BD0, symSize: 0xD4 }
  - { offsetInCU: 0x2DE6B, offset: 0x2DE6B, size: 0x8, addend: 0x0, symName: __ZNSt3__117__compressed_pairIP5PointRNS_9allocatorIS1_EEEC1B7v160006IDnS5_EEOT_OT0_, symObjAddr: 0x7FB4, symBinAddr: 0x100009CA4, symSize: 0x3C }
  - { offsetInCU: 0x2DEC3, offset: 0x2DEC3, size: 0x8, addend: 0x0, symName: __ZNSt3__114__split_bufferI5PointRNS_9allocatorIS1_EEE7__allocB7v160006Ev, symObjAddr: 0x7FF0, symBinAddr: 0x100009CE0, symSize: 0x28 }
  - { offsetInCU: 0x2DEE9, offset: 0x2DEE9, size: 0x8, addend: 0x0, symName: __ZNSt3__114__split_bufferI5PointRNS_9allocatorIS1_EEE9__end_capB7v160006Ev, symObjAddr: 0x8018, symBinAddr: 0x100009D08, symSize: 0x28 }
  - { offsetInCU: 0x2DF0F, offset: 0x2DF0F, size: 0x8, addend: 0x0, symName: __ZNSt3__117__compressed_pairIP5PointRNS_9allocatorIS1_EEEC2B7v160006IDnS5_EEOT_OT0_, symObjAddr: 0x8040, symBinAddr: 0x100009D30, symSize: 0x48 }
  - { offsetInCU: 0x2DF67, offset: 0x2DF67, size: 0x8, addend: 0x0, symName: __ZNSt3__122__compressed_pair_elemIRNS_9allocatorI5PointEELi1ELb0EEC2B7v160006IS4_vEEOT_, symObjAddr: 0x8088, symBinAddr: 0x100009D78, symSize: 0x20 }
  - { offsetInCU: 0x2DFA9, offset: 0x2DFA9, size: 0x8, addend: 0x0, symName: __ZNSt3__117__compressed_pairIP5PointRNS_9allocatorIS1_EEE6secondB7v160006Ev, symObjAddr: 0x80A8, symBinAddr: 0x100009D98, symSize: 0x28 }
  - { offsetInCU: 0x2DFCF, offset: 0x2DFCF, size: 0x8, addend: 0x0, symName: __ZNSt3__122__compressed_pair_elemIRNS_9allocatorI5PointEELi1ELb0EE5__getB7v160006Ev, symObjAddr: 0x80D0, symBinAddr: 0x100009DC0, symSize: 0x18 }
  - { offsetInCU: 0x2DFF5, offset: 0x2DFF5, size: 0x8, addend: 0x0, symName: __ZNSt3__117__compressed_pairIP5PointRNS_9allocatorIS1_EEE5firstB7v160006Ev, symObjAddr: 0x80E8, symBinAddr: 0x100009DD8, symSize: 0x24 }
  - { offsetInCU: 0x2E01B, offset: 0x2E01B, size: 0x8, addend: 0x0, symName: __ZNSt3__129_AllocatorDestroyRangeReverseINS_9allocatorI5PointEENS_16reverse_iteratorIPS2_EEEC1B7v160006ERS3_RS6_S9_, symObjAddr: 0x82B0, symBinAddr: 0x100009FA0, symSize: 0x44 }
  - { offsetInCU: 0x2E072, offset: 0x2E072, size: 0x8, addend: 0x0, symName: __ZNSt3__128__exception_guard_exceptionsINS_29_AllocatorDestroyRangeReverseINS_9allocatorI5PointEENS_16reverse_iteratorIPS3_EEEEE10__completeB7v160006Ev, symObjAddr: 0x82F4, symBinAddr: 0x100009FE4, symSize: 0x1C }
  - { offsetInCU: 0x2E098, offset: 0x2E098, size: 0x8, addend: 0x0, symName: __ZNSt3__128__exception_guard_exceptionsINS_29_AllocatorDestroyRangeReverseINS_9allocatorI5PointEENS_16reverse_iteratorIPS3_EEEEED1B7v160006Ev, symObjAddr: 0x8310, symBinAddr: 0x10000A000, symSize: 0x2C }
  - { offsetInCU: 0x2E0C2, offset: 0x2E0C2, size: 0x8, addend: 0x0, symName: __ZNSt3__128__exception_guard_exceptionsINS_29_AllocatorDestroyRangeReverseINS_9allocatorI5PointEENS_16reverse_iteratorIPS3_EEEEEC1B7v160006ES8_, symObjAddr: 0x833C, symBinAddr: 0x10000A02C, symSize: 0x34 }
  - { offsetInCU: 0x2E0FB, offset: 0x2E0FB, size: 0x8, addend: 0x0, symName: __ZNSt3__128__exception_guard_exceptionsINS_29_AllocatorDestroyRangeReverseINS_9allocatorI5PointEENS_16reverse_iteratorIPS3_EEEEEC2B7v160006ES8_, symObjAddr: 0x8370, symBinAddr: 0x10000A060, symSize: 0x30 }
  - { offsetInCU: 0x2E134, offset: 0x2E134, size: 0x8, addend: 0x0, symName: __ZNSt3__129_AllocatorDestroyRangeReverseINS_9allocatorI5PointEENS_16reverse_iteratorIPS2_EEEC2B7v160006ERS3_RS6_S9_, symObjAddr: 0x83A0, symBinAddr: 0x10000A090, symSize: 0x38 }
  - { offsetInCU: 0x2E18B, offset: 0x2E18B, size: 0x8, addend: 0x0, symName: __ZNSt3__128__exception_guard_exceptionsINS_29_AllocatorDestroyRangeReverseINS_9allocatorI5PointEENS_16reverse_iteratorIPS3_EEEEED2B7v160006Ev, symObjAddr: 0x83D8, symBinAddr: 0x10000A0C8, symSize: 0x50 }
  - { offsetInCU: 0x2E1B5, offset: 0x2E1B5, size: 0x8, addend: 0x0, symName: __ZNKSt3__129_AllocatorDestroyRangeReverseINS_9allocatorI5PointEENS_16reverse_iteratorIPS2_EEEclB7v160006Ev, symObjAddr: 0x8428, symBinAddr: 0x10000A118, symSize: 0xB4 }
  - { offsetInCU: 0x2E1DC, offset: 0x2E1DC, size: 0x8, addend: 0x0, symName: __ZNSt3__116reverse_iteratorINS0_IP5PointEEEC1B7v160006ES3_, symObjAddr: 0x854C, symBinAddr: 0x10000A23C, symSize: 0x3C }
  - { offsetInCU: 0x2E214, offset: 0x2E214, size: 0x8, addend: 0x0, symName: __ZNSt3__116reverse_iteratorINS0_IP5PointEEEppB7v160006Ev, symObjAddr: 0x860C, symBinAddr: 0x10000A2FC, symSize: 0x30 }
  - { offsetInCU: 0x2E23A, offset: 0x2E23A, size: 0x8, addend: 0x0, symName: __ZNKSt3__116reverse_iteratorINS0_IP5PointEEE4baseB7v160006Ev, symObjAddr: 0x863C, symBinAddr: 0x10000A32C, symSize: 0x24 }
  - { offsetInCU: 0x2E265, offset: 0x2E265, size: 0x8, addend: 0x0, symName: __ZNSt3__119__to_address_helperINS_16reverse_iteratorINS1_IP5PointEEEEvE6__callB7v160006ERKS5_, symObjAddr: 0x8660, symBinAddr: 0x10000A350, symSize: 0x38 }
  - { offsetInCU: 0x2E288, offset: 0x2E288, size: 0x8, addend: 0x0, symName: __ZNKSt3__116reverse_iteratorINS0_IP5PointEEEptB7v160006Ev, symObjAddr: 0x8698, symBinAddr: 0x10000A388, symSize: 0x24 }
  - { offsetInCU: 0x2E2AE, offset: 0x2E2AE, size: 0x8, addend: 0x0, symName: __ZNKSt3__116reverse_iteratorINS0_IP5PointEEEdeB7v160006Ev, symObjAddr: 0x86BC, symBinAddr: 0x10000A3AC, symSize: 0x34 }
  - { offsetInCU: 0x2E2E2, offset: 0x2E2E2, size: 0x8, addend: 0x0, symName: __ZNSt3__116reverse_iteratorIP5PointEmmB7v160006Ev, symObjAddr: 0x86F0, symBinAddr: 0x10000A3E0, symSize: 0x20 }
  - { offsetInCU: 0x2E308, offset: 0x2E308, size: 0x8, addend: 0x0, symName: __ZNSt3__116reverse_iteratorINS0_IP5PointEEEC2B7v160006ES3_, symObjAddr: 0x8710, symBinAddr: 0x10000A400, symSize: 0x2C }
  - { offsetInCU: 0x2E340, offset: 0x2E340, size: 0x8, addend: 0x0, symName: __ZNSt3__114__split_bufferI5PointRNS_9allocatorIS1_EEED2Ev, symObjAddr: 0x873C, symBinAddr: 0x10000A42C, symSize: 0x8C }
  - { offsetInCU: 0x2E36C, offset: 0x2E36C, size: 0x8, addend: 0x0, symName: __ZNSt3__114__split_bufferI5PointRNS_9allocatorIS1_EEE5clearB7v160006Ev, symObjAddr: 0x87C8, symBinAddr: 0x10000A4B8, symSize: 0x28 }
  - { offsetInCU: 0x2E392, offset: 0x2E392, size: 0x8, addend: 0x0, symName: __ZNKSt3__114__split_bufferI5PointRNS_9allocatorIS1_EEE8capacityB7v160006Ev, symObjAddr: 0x87F0, symBinAddr: 0x10000A4E0, symSize: 0x40 }
  - { offsetInCU: 0x2E3B8, offset: 0x2E3B8, size: 0x8, addend: 0x0, symName: __ZNSt3__114__split_bufferI5PointRNS_9allocatorIS1_EEE17__destruct_at_endB7v160006EPS1_, symObjAddr: 0x8830, symBinAddr: 0x10000A520, symSize: 0x2C }
  - { offsetInCU: 0x2E3EC, offset: 0x2E3EC, size: 0x8, addend: 0x0, symName: __ZNSt3__114__split_bufferI5PointRNS_9allocatorIS1_EEE17__destruct_at_endB7v160006EPS1_NS_17integral_constantIbLb0EEE, symObjAddr: 0x885C, symBinAddr: 0x10000A54C, symSize: 0x80 }
  - { offsetInCU: 0x2E42C, offset: 0x2E42C, size: 0x8, addend: 0x0, symName: __ZNKSt3__114__split_bufferI5PointRNS_9allocatorIS1_EEE9__end_capB7v160006Ev, symObjAddr: 0x88DC, symBinAddr: 0x10000A5CC, symSize: 0x28 }
  - { offsetInCU: 0x2E452, offset: 0x2E452, size: 0x8, addend: 0x0, symName: __ZNKSt3__117__compressed_pairIP5PointRNS_9allocatorIS1_EEE5firstB7v160006Ev, symObjAddr: 0x8904, symBinAddr: 0x10000A5F4, symSize: 0x24 }
  - { offsetInCU: 0x2E478, offset: 0x2E478, size: 0x8, addend: 0x0, symName: __ZNSt3__16vectorI5PointNS_9allocatorIS1_EEE11__make_iterB7v160006EPS1_, symObjAddr: 0x8928, symBinAddr: 0x10000A618, symSize: 0x34 }
  - { offsetInCU: 0x2E4AD, offset: 0x2E4AD, size: 0x8, addend: 0x0, symName: __ZNSt3__111__wrap_iterIP5PointEC1B7v160006EPKvS2_, symObjAddr: 0x895C, symBinAddr: 0x10000A64C, symSize: 0x3C }
  - { offsetInCU: 0x2E4F3, offset: 0x2E4F3, size: 0x8, addend: 0x0, symName: __ZNSt3__111__wrap_iterIP5PointEC2B7v160006EPKvS2_, symObjAddr: 0x8998, symBinAddr: 0x10000A688, symSize: 0x24 }
  - { offsetInCU: 0x2E539, offset: 0x2E539, size: 0x8, addend: 0x0, symName: __ZNKSt3__111__wrap_iterIP5PointE4baseB7v160006Ev, symObjAddr: 0x8A04, symBinAddr: 0x10000A6F4, symSize: 0x18 }
  - { offsetInCU: 0x2E55F, offset: 0x2E55F, size: 0x8, addend: 0x0, symName: __ZN5PointC2ERKS_, symObjAddr: 0x8A1C, symBinAddr: 0x10000A70C, symSize: 0x30 }
  - { offsetInCU: 0x2E597, offset: 0x2E597, size: 0x8, addend: 0x0, symName: __ZN5PointC1Ev, symObjAddr: 0x8A4C, symBinAddr: 0x10000A73C, symSize: 0x2C }
  - { offsetInCU: 0x2E5C1, offset: 0x2E5C1, size: 0x8, addend: 0x0, symName: __ZNSt3__16vectorI5PointNS_9allocatorIS1_EEE22__construct_one_at_endB7v160006IJRKS1_EEEvDpOT_, symObjAddr: 0x8A78, symBinAddr: 0x10000A768, symSize: 0x90 }
  - { offsetInCU: 0x2E610, offset: 0x2E610, size: 0x8, addend: 0x0, symName: __ZNSt3__16vectorI5PointNS_9allocatorIS1_EEE21__push_back_slow_pathIRKS1_EEvOT_, symObjAddr: 0x8B08, symBinAddr: 0x10000A7F8, symSize: 0xD8 }
  - { offsetInCU: 0x2E683, offset: 0x2E683, size: 0x8, addend: 0x0, symName: __ZNSt3__112__hash_tableINS_17__hash_value_typeI5PointcEENS_22__unordered_map_hasherIS2_S3_11PointHasherNS_8equal_toIS2_EELb1EEENS_21__unordered_map_equalIS2_S3_S7_S5_Lb1EEENS_9allocatorIS3_EEE25__emplace_unique_key_argsIS2_JRKNS_21piecewise_construct_tENS_5tupleIJRKS2_EEENSI_IJEEEEEENS_4pairINS_15__hash_iteratorIPNS_11__hash_nodeIS3_PvEEEEbEERKT_DpOT0_, symObjAddr: 0x8BE0, symBinAddr: 0x10000A8D0, symSize: 0x4D0 }
  - { offsetInCU: 0x2E78D, offset: 0x2E78D, size: 0x8, addend: 0x0, symName: __ZNKSt3__115__hash_iteratorIPNS_11__hash_nodeINS_17__hash_value_typeI5PointcEEPvEEEptB7v160006Ev, symObjAddr: 0x90E0, symBinAddr: 0x10000ADD0, symSize: 0x30 }
  - { offsetInCU: 0x2E7B3, offset: 0x2E7B3, size: 0x8, addend: 0x0, symName: __ZNSt3__117__hash_value_typeI5PointcE11__get_valueB7v160006Ev, symObjAddr: 0x9110, symBinAddr: 0x10000AE00, symSize: 0x14 }
  - { offsetInCU: 0x2E7D9, offset: 0x2E7D9, size: 0x8, addend: 0x0, symName: __ZNSt3__112__hash_tableINS_17__hash_value_typeI5PointcEENS_22__unordered_map_hasherIS2_S3_11PointHasherNS_8equal_toIS2_EELb1EEENS_21__unordered_map_equalIS2_S3_S7_S5_Lb1EEENS_9allocatorIS3_EEE13hash_functionB7v160006Ev, symObjAddr: 0x9124, symBinAddr: 0x10000AE14, symSize: 0x28 }
  - { offsetInCU: 0x2E7FF, offset: 0x2E7FF, size: 0x8, addend: 0x0, symName: __ZNKSt3__122__unordered_map_hasherI5PointNS_17__hash_value_typeIS1_cEE11PointHasherNS_8equal_toIS1_EELb1EEclB7v160006ERKS1_, symObjAddr: 0x914C, symBinAddr: 0x10000AE3C, symSize: 0x2C }
  - { offsetInCU: 0x2E834, offset: 0x2E834, size: 0x8, addend: 0x0, symName: __ZNKSt3__112__hash_tableINS_17__hash_value_typeI5PointcEENS_22__unordered_map_hasherIS2_S3_11PointHasherNS_8equal_toIS2_EELb1EEENS_21__unordered_map_equalIS2_S3_S7_S5_Lb1EEENS_9allocatorIS3_EEE12bucket_countB7v160006Ev, symObjAddr: 0x9178, symBinAddr: 0x10000AE68, symSize: 0x28 }
  - { offsetInCU: 0x2E85A, offset: 0x2E85A, size: 0x8, addend: 0x0, symName: __ZNKSt3__110unique_ptrIA_PNS_16__hash_node_baseIPNS_11__hash_nodeINS_17__hash_value_typeI5PointcEEPvEEEENS_25__bucket_list_deallocatorINS_9allocatorISA_EEEEEixB7v160006Em, symObjAddr: 0x9238, symBinAddr: 0x10000AF28, symSize: 0x34 }
  - { offsetInCU: 0x2E88F, offset: 0x2E88F, size: 0x8, addend: 0x0, symName: __ZNKSt3__116__hash_node_baseIPNS_11__hash_nodeINS_17__hash_value_typeI5PointcEEPvEEE6__hashB7v160006Ev, symObjAddr: 0x926C, symBinAddr: 0x10000AF5C, symSize: 0x18 }
  - { offsetInCU: 0x2E8B5, offset: 0x2E8B5, size: 0x8, addend: 0x0, symName: __ZNSt3__112__hash_tableINS_17__hash_value_typeI5PointcEENS_22__unordered_map_hasherIS2_S3_11PointHasherNS_8equal_toIS2_EELb1EEENS_21__unordered_map_equalIS2_S3_S7_S5_Lb1EEENS_9allocatorIS3_EEE6key_eqB7v160006Ev, symObjAddr: 0x9284, symBinAddr: 0x10000AF74, symSize: 0x28 }
  - { offsetInCU: 0x2E8DB, offset: 0x2E8DB, size: 0x8, addend: 0x0, symName: __ZNKSt3__121__unordered_map_equalI5PointNS_17__hash_value_typeIS1_cEENS_8equal_toIS1_EE11PointHasherLb1EEclB7v160006ERKS3_RKS1_, symObjAddr: 0x92AC, symBinAddr: 0x10000AF9C, symSize: 0x48 }
  - { offsetInCU: 0x2E91F, offset: 0x2E91F, size: 0x8, addend: 0x0, symName: __ZNSt3__116__hash_node_baseIPNS_11__hash_nodeINS_17__hash_value_typeI5PointcEEPvEEE8__upcastB7v160006Ev, symObjAddr: 0x92F4, symBinAddr: 0x10000AFE4, symSize: 0x24 }
  - { offsetInCU: 0x2E945, offset: 0x2E945, size: 0x8, addend: 0x0, symName: __ZNSt3__112__hash_tableINS_17__hash_value_typeI5PointcEENS_22__unordered_map_hasherIS2_S3_11PointHasherNS_8equal_toIS2_EELb1EEENS_21__unordered_map_equalIS2_S3_S7_S5_Lb1EEENS_9allocatorIS3_EEE21__construct_node_hashIRKNS_21piecewise_construct_tEJNS_5tupleIJRKS2_EEENSI_IJEEEEEENS_10unique_ptrINS_11__hash_nodeIS3_PvEENS_22__hash_node_destructorINSB_ISQ_EEEEEEmOT_DpOT0_, symObjAddr: 0x9318, symBinAddr: 0x10000B008, symSize: 0x150 }
  - { offsetInCU: 0x2E9E1, offset: 0x2E9E1, size: 0x8, addend: 0x0, symName: __ZNSt3__112__hash_tableINS_17__hash_value_typeI5PointcEENS_22__unordered_map_hasherIS2_S3_11PointHasherNS_8equal_toIS2_EELb1EEENS_21__unordered_map_equalIS2_S3_S7_S5_Lb1EEENS_9allocatorIS3_EEE4sizeB7v160006Ev, symObjAddr: 0x9468, symBinAddr: 0x10000B158, symSize: 0x28 }
  - { offsetInCU: 0x2EA07, offset: 0x2EA07, size: 0x8, addend: 0x0, symName: __ZNSt3__112__hash_tableINS_17__hash_value_typeI5PointcEENS_22__unordered_map_hasherIS2_S3_11PointHasherNS_8equal_toIS2_EELb1EEENS_21__unordered_map_equalIS2_S3_S7_S5_Lb1EEENS_9allocatorIS3_EEE15max_load_factorB7v160006Ev, symObjAddr: 0x9490, symBinAddr: 0x10000B180, symSize: 0x28 }
  - { offsetInCU: 0x2EA2D, offset: 0x2EA2D, size: 0x8, addend: 0x0, symName: __ZNSt3__112__hash_tableINS_17__hash_value_typeI5PointcEENS_22__unordered_map_hasherIS2_S3_11PointHasherNS_8equal_toIS2_EELb1EEENS_21__unordered_map_equalIS2_S3_S7_S5_Lb1EEENS_9allocatorIS3_EEE15__rehash_uniqueB7v160006Em, symObjAddr: 0x94B8, symBinAddr: 0x10000B1A8, symSize: 0x2C }
  - { offsetInCU: 0x2EA61, offset: 0x2EA61, size: 0x8, addend: 0x0, symName: __Z4ceilB7v160006f, symObjAddr: 0x9534, symBinAddr: 0x10000B224, symSize: 0x18 }
  - { offsetInCU: 0x2EA90, offset: 0x2EA90, size: 0x8, addend: 0x0, symName: __ZNSt3__117__compressed_pairINS_16__hash_node_baseIPNS_11__hash_nodeINS_17__hash_value_typeI5PointcEEPvEEEENS_9allocatorIS7_EEE5firstB7v160006Ev, symObjAddr: 0x954C, symBinAddr: 0x10000B23C, symSize: 0x24 }
  - { offsetInCU: 0x2EAB6, offset: 0x2EAB6, size: 0x8, addend: 0x0, symName: __ZNSt3__116__hash_node_baseIPNS_11__hash_nodeINS_17__hash_value_typeI5PointcEEPvEEE5__ptrB7v160006Ev, symObjAddr: 0x9570, symBinAddr: 0x10000B260, symSize: 0x24 }
  - { offsetInCU: 0x2EADC, offset: 0x2EADC, size: 0x8, addend: 0x0, symName: __ZNKSt3__110unique_ptrINS_11__hash_nodeINS_17__hash_value_typeI5PointcEEPvEENS_22__hash_node_destructorINS_9allocatorIS6_EEEEEptB7v160006Ev, symObjAddr: 0x9594, symBinAddr: 0x10000B284, symSize: 0x28 }
  - { offsetInCU: 0x2EB02, offset: 0x2EB02, size: 0x8, addend: 0x0, symName: __ZNKSt3__110unique_ptrINS_11__hash_nodeINS_17__hash_value_typeI5PointcEEPvEENS_22__hash_node_destructorINS_9allocatorIS6_EEEEE3getB7v160006Ev, symObjAddr: 0x95BC, symBinAddr: 0x10000B2AC, symSize: 0x28 }
  - { offsetInCU: 0x2EB28, offset: 0x2EB28, size: 0x8, addend: 0x0, symName: __ZNSt3__110unique_ptrINS_11__hash_nodeINS_17__hash_value_typeI5PointcEEPvEENS_22__hash_node_destructorINS_9allocatorIS6_EEEEE7releaseB7v160006Ev, symObjAddr: 0x95E4, symBinAddr: 0x10000B2D4, symSize: 0x44 }
  - { offsetInCU: 0x2EB5D, offset: 0x2EB5D, size: 0x8, addend: 0x0, symName: __ZNSt3__110unique_ptrINS_11__hash_nodeINS_17__hash_value_typeI5PointcEEPvEENS_22__hash_node_destructorINS_9allocatorIS6_EEEEED1B7v160006Ev, symObjAddr: 0x9628, symBinAddr: 0x10000B318, symSize: 0x2C }
  - { offsetInCU: 0x2EB87, offset: 0x2EB87, size: 0x8, addend: 0x0, symName: __ZNSt3__115__hash_iteratorIPNS_11__hash_nodeINS_17__hash_value_typeI5PointcEEPvEEEC1B7v160006EPNS_16__hash_node_baseIS7_EEPKv, symObjAddr: 0x9654, symBinAddr: 0x10000B344, symSize: 0x3C }
  - { offsetInCU: 0x2EBDA, offset: 0x2EBDA, size: 0x8, addend: 0x0, symName: __ZNSt3__14pairINS_15__hash_iteratorIPNS_11__hash_nodeINS_17__hash_value_typeI5PointcEEPvEEEEbEC1B7v160006IS9_RbLS6_0EEEOT_OT0_, symObjAddr: 0x9690, symBinAddr: 0x10000B380, symSize: 0x3C }
  - { offsetInCU: 0x2EC38, offset: 0x2EC38, size: 0x8, addend: 0x0, symName: __ZNSt3__117__compressed_pairImNS_22__unordered_map_hasherI5PointNS_17__hash_value_typeIS2_cEE11PointHasherNS_8equal_toIS2_EELb1EEEE6secondB7v160006Ev, symObjAddr: 0x96CC, symBinAddr: 0x10000B3BC, symSize: 0x24 }
  - { offsetInCU: 0x2EC5E, offset: 0x2EC5E, size: 0x8, addend: 0x0, symName: __ZNSt3__122__compressed_pair_elemINS_22__unordered_map_hasherI5PointNS_17__hash_value_typeIS2_cEE11PointHasherNS_8equal_toIS2_EELb1EEELi1ELb1EE5__getB7v160006Ev, symObjAddr: 0x96F0, symBinAddr: 0x10000B3E0, symSize: 0x14 }
  - { offsetInCU: 0x2EC84, offset: 0x2EC84, size: 0x8, addend: 0x0, symName: __ZNK11PointHasherclERK5Point, symObjAddr: 0x9704, symBinAddr: 0x10000B3F4, symSize: 0x50 }
  - { offsetInCU: 0x2ECB8, offset: 0x2ECB8, size: 0x8, addend: 0x0, symName: __ZNKSt3__14hashIiEclB7v160006Ei, symObjAddr: 0x9754, symBinAddr: 0x10000B444, symSize: 0x18 }
  - { offsetInCU: 0x2ECED, offset: 0x2ECED, size: 0x8, addend: 0x0, symName: __ZNKSt3__110unique_ptrIA_PNS_16__hash_node_baseIPNS_11__hash_nodeINS_17__hash_value_typeI5PointcEEPvEEEENS_25__bucket_list_deallocatorINS_9allocatorISA_EEEEE11get_deleterB7v160006Ev, symObjAddr: 0x976C, symBinAddr: 0x10000B45C, symSize: 0x24 }
  - { offsetInCU: 0x2ED13, offset: 0x2ED13, size: 0x8, addend: 0x0, symName: __ZNKSt3__125__bucket_list_deallocatorINS_9allocatorIPNS_16__hash_node_baseIPNS_11__hash_nodeINS_17__hash_value_typeI5PointcEEPvEEEEEEE4sizeB7v160006Ev, symObjAddr: 0x9790, symBinAddr: 0x10000B480, symSize: 0x28 }
  - { offsetInCU: 0x2ED39, offset: 0x2ED39, size: 0x8, addend: 0x0, symName: __ZNKSt3__117__compressed_pairIPPNS_16__hash_node_baseIPNS_11__hash_nodeINS_17__hash_value_typeI5PointcEEPvEEEENS_25__bucket_list_deallocatorINS_9allocatorISA_EEEEE6secondB7v160006Ev, symObjAddr: 0x97B8, symBinAddr: 0x10000B4A8, symSize: 0x28 }
  - { offsetInCU: 0x2ED5F, offset: 0x2ED5F, size: 0x8, addend: 0x0, symName: __ZNKSt3__122__compressed_pair_elemINS_25__bucket_list_deallocatorINS_9allocatorIPNS_16__hash_node_baseIPNS_11__hash_nodeINS_17__hash_value_typeI5PointcEEPvEEEEEEEELi1ELb0EE5__getB7v160006Ev, symObjAddr: 0x97E0, symBinAddr: 0x10000B4D0, symSize: 0x14 }
  - { offsetInCU: 0x2ED85, offset: 0x2ED85, size: 0x8, addend: 0x0, symName: __ZNKSt3__117__compressed_pairImNS_9allocatorIPNS_16__hash_node_baseIPNS_11__hash_nodeINS_17__hash_value_typeI5PointcEEPvEEEEEEE5firstB7v160006Ev, symObjAddr: 0x97F4, symBinAddr: 0x10000B4E4, symSize: 0x24 }
  - { offsetInCU: 0x2EDAB, offset: 0x2EDAB, size: 0x8, addend: 0x0, symName: __ZNKSt3__122__compressed_pair_elemImLi0ELb0EE5__getB7v160006Ev, symObjAddr: 0x9818, symBinAddr: 0x10000B508, symSize: 0x14 }
  - { offsetInCU: 0x2EDD1, offset: 0x2EDD1, size: 0x8, addend: 0x0, symName: __ZNKSt3__117__compressed_pairIPPNS_16__hash_node_baseIPNS_11__hash_nodeINS_17__hash_value_typeI5PointcEEPvEEEENS_25__bucket_list_deallocatorINS_9allocatorISA_EEEEE5firstB7v160006Ev, symObjAddr: 0x982C, symBinAddr: 0x10000B51C, symSize: 0x24 }
  - { offsetInCU: 0x2EDF7, offset: 0x2EDF7, size: 0x8, addend: 0x0, symName: __ZNKSt3__122__compressed_pair_elemIPPNS_16__hash_node_baseIPNS_11__hash_nodeINS_17__hash_value_typeI5PointcEEPvEEEELi0ELb0EE5__getB7v160006Ev, symObjAddr: 0x9850, symBinAddr: 0x10000B540, symSize: 0x14 }
  - { offsetInCU: 0x2EE1D, offset: 0x2EE1D, size: 0x8, addend: 0x0, symName: __ZNSt3__117__compressed_pairIfNS_21__unordered_map_equalI5PointNS_17__hash_value_typeIS2_cEENS_8equal_toIS2_EE11PointHasherLb1EEEE6secondB7v160006Ev, symObjAddr: 0x9864, symBinAddr: 0x10000B554, symSize: 0x24 }
  - { offsetInCU: 0x2EE43, offset: 0x2EE43, size: 0x8, addend: 0x0, symName: __ZNSt3__122__compressed_pair_elemINS_21__unordered_map_equalI5PointNS_17__hash_value_typeIS2_cEENS_8equal_toIS2_EE11PointHasherLb1EEELi1ELb1EE5__getB7v160006Ev, symObjAddr: 0x9888, symBinAddr: 0x10000B578, symSize: 0x14 }
  - { offsetInCU: 0x2EE69, offset: 0x2EE69, size: 0x8, addend: 0x0, symName: __ZNKSt3__18equal_toI5PointEclB7v160006ERKS1_S4_, symObjAddr: 0x989C, symBinAddr: 0x10000B58C, symSize: 0x34 }
  - { offsetInCU: 0x2EEAD, offset: 0x2EEAD, size: 0x8, addend: 0x0, symName: __ZNKSt3__117__hash_value_typeI5PointcE11__get_valueB7v160006Ev, symObjAddr: 0x98D0, symBinAddr: 0x10000B5C0, symSize: 0x14 }
  - { offsetInCU: 0x2EED3, offset: 0x2EED3, size: 0x8, addend: 0x0, symName: __ZNSt3__114pointer_traitsIPNS_16__hash_node_baseIPNS_11__hash_nodeINS_17__hash_value_typeI5PointcEEPvEEEEE10pointer_toB7v160006ERS9_, symObjAddr: 0x98E4, symBinAddr: 0x10000B5D4, symSize: 0x14 }
  - { offsetInCU: 0x2EEF6, offset: 0x2EEF6, size: 0x8, addend: 0x0, symName: __ZNSt3__112__hash_tableINS_17__hash_value_typeI5PointcEENS_22__unordered_map_hasherIS2_S3_11PointHasherNS_8equal_toIS2_EELb1EEENS_21__unordered_map_equalIS2_S3_S7_S5_Lb1EEENS_9allocatorIS3_EEE12__node_allocB7v160006Ev, symObjAddr: 0x98F8, symBinAddr: 0x10000B5E8, symSize: 0x28 }
  - { offsetInCU: 0x2EF1C, offset: 0x2EF1C, size: 0x8, addend: 0x0, symName: __ZNSt3__116allocator_traitsINS_9allocatorINS_11__hash_nodeINS_17__hash_value_typeI5PointcEEPvEEEEE8allocateB7v160006ERS8_m, symObjAddr: 0x9920, symBinAddr: 0x10000B610, symSize: 0x2C }
  - { offsetInCU: 0x2EF4F, offset: 0x2EF4F, size: 0x8, addend: 0x0, symName: __ZNSt3__122__hash_node_destructorINS_9allocatorINS_11__hash_nodeINS_17__hash_value_typeI5PointcEEPvEEEEEC1B7v160006ERS8_b, symObjAddr: 0x994C, symBinAddr: 0x10000B63C, symSize: 0x48 }
  - { offsetInCU: 0x2EF9D, offset: 0x2EF9D, size: 0x8, addend: 0x0, symName: __ZNSt3__110unique_ptrINS_11__hash_nodeINS_17__hash_value_typeI5PointcEEPvEENS_22__hash_node_destructorINS_9allocatorIS6_EEEEEC1B7v160006ILb1EvEEPS6_NS_16__dependent_typeINS_27__unique_ptr_deleter_sfinaeISA_EEXT_EE20__good_rval_ref_typeE, symObjAddr: 0x9994, symBinAddr: 0x10000B684, symSize: 0x3C }
  - { offsetInCU: 0x2EFEE, offset: 0x2EFEE, size: 0x8, addend: 0x0, symName: __ZNSt3__116allocator_traitsINS_9allocatorINS_11__hash_nodeINS_17__hash_value_typeI5PointcEEPvEEEEE9constructB7v160006INS_4pairIKS4_cEEJRKNS_21piecewise_construct_tENS_5tupleIJRSC_EEENSH_IJEEEEvEEvRS8_PT_DpOT0_, symObjAddr: 0x99D0, symBinAddr: 0x10000B6C0, symSize: 0x44 }
  - { offsetInCU: 0x2F06D, offset: 0x2F06D, size: 0x8, addend: 0x0, symName: __ZNSt3__122__hash_key_value_typesINS_17__hash_value_typeI5PointcEEE9__get_ptrB7v160006ERS3_, symObjAddr: 0x9A14, symBinAddr: 0x10000B704, symSize: 0x24 }
  - { offsetInCU: 0x2F090, offset: 0x2F090, size: 0x8, addend: 0x0, symName: __ZNSt3__110unique_ptrINS_11__hash_nodeINS_17__hash_value_typeI5PointcEEPvEENS_22__hash_node_destructorINS_9allocatorIS6_EEEEE11get_deleterB7v160006Ev, symObjAddr: 0x9A38, symBinAddr: 0x10000B728, symSize: 0x24 }
  - { offsetInCU: 0x2F0B6, offset: 0x2F0B6, size: 0x8, addend: 0x0, symName: __ZNSt3__117__compressed_pairINS_16__hash_node_baseIPNS_11__hash_nodeINS_17__hash_value_typeI5PointcEEPvEEEENS_9allocatorIS7_EEE6secondB7v160006Ev, symObjAddr: 0x9A5C, symBinAddr: 0x10000B74C, symSize: 0x24 }
  - { offsetInCU: 0x2F0DC, offset: 0x2F0DC, size: 0x8, addend: 0x0, symName: __ZNSt3__122__compressed_pair_elemINS_9allocatorINS_11__hash_nodeINS_17__hash_value_typeI5PointcEEPvEEEELi1ELb1EE5__getB7v160006Ev, symObjAddr: 0x9A80, symBinAddr: 0x10000B770, symSize: 0x14 }
  - { offsetInCU: 0x2F102, offset: 0x2F102, size: 0x8, addend: 0x0, symName: __ZNSt3__19allocatorINS_11__hash_nodeINS_17__hash_value_typeI5PointcEEPvEEE8allocateB7v160006Em, symObjAddr: 0x9A94, symBinAddr: 0x10000B784, symSize: 0x58 }
  - { offsetInCU: 0x2F140, offset: 0x2F140, size: 0x8, addend: 0x0, symName: __ZNSt3__116allocator_traitsINS_9allocatorINS_11__hash_nodeINS_17__hash_value_typeI5PointcEEPvEEEEE8max_sizeB7v160006IS8_vEEmRKS8_, symObjAddr: 0x9AEC, symBinAddr: 0x10000B7DC, symSize: 0x24 }
  - { offsetInCU: 0x2F16E, offset: 0x2F16E, size: 0x8, addend: 0x0, symName: __ZNKSt3__19allocatorINS_11__hash_nodeINS_17__hash_value_typeI5PointcEEPvEEE8max_sizeB7v160006Ev, symObjAddr: 0x9B10, symBinAddr: 0x10000B800, symSize: 0x14 }
  - { offsetInCU: 0x2F194, offset: 0x2F194, size: 0x8, addend: 0x0, symName: __ZNSt3__122__hash_node_destructorINS_9allocatorINS_11__hash_nodeINS_17__hash_value_typeI5PointcEEPvEEEEEC2B7v160006ERS8_b, symObjAddr: 0x9B24, symBinAddr: 0x10000B814, symSize: 0x38 }
  - { offsetInCU: 0x2F1DC, offset: 0x2F1DC, size: 0x8, addend: 0x0, symName: __ZNSt3__110unique_ptrINS_11__hash_nodeINS_17__hash_value_typeI5PointcEEPvEENS_22__hash_node_destructorINS_9allocatorIS6_EEEEEC2B7v160006ILb1EvEEPS6_NS_16__dependent_typeINS_27__unique_ptr_deleter_sfinaeISA_EEXT_EE20__good_rval_ref_typeE, symObjAddr: 0x9B5C, symBinAddr: 0x10000B84C, symSize: 0x48 }
  - { offsetInCU: 0x2F22D, offset: 0x2F22D, size: 0x8, addend: 0x0, symName: __ZNSt3__117__compressed_pairIPNS_11__hash_nodeINS_17__hash_value_typeI5PointcEEPvEENS_22__hash_node_destructorINS_9allocatorIS6_EEEEEC1B7v160006IRS7_SB_EEOT_OT0_, symObjAddr: 0x9BA4, symBinAddr: 0x10000B894, symSize: 0x3C }
  - { offsetInCU: 0x2F285, offset: 0x2F285, size: 0x8, addend: 0x0, symName: __ZNSt3__117__compressed_pairIPNS_11__hash_nodeINS_17__hash_value_typeI5PointcEEPvEENS_22__hash_node_destructorINS_9allocatorIS6_EEEEEC2B7v160006IRS7_SB_EEOT_OT0_, symObjAddr: 0x9BE0, symBinAddr: 0x10000B8D0, symSize: 0x48 }
  - { offsetInCU: 0x2F2DD, offset: 0x2F2DD, size: 0x8, addend: 0x0, symName: __ZNSt3__122__compressed_pair_elemIPNS_11__hash_nodeINS_17__hash_value_typeI5PointcEEPvEELi0ELb0EEC2B7v160006IRS7_vEEOT_, symObjAddr: 0x9C28, symBinAddr: 0x10000B918, symSize: 0x24 }
  - { offsetInCU: 0x2F31F, offset: 0x2F31F, size: 0x8, addend: 0x0, symName: __ZNSt3__122__compressed_pair_elemINS_22__hash_node_destructorINS_9allocatorINS_11__hash_nodeINS_17__hash_value_typeI5PointcEEPvEEEEEELi1ELb0EEC2B7v160006ISA_vEEOT_, symObjAddr: 0x9C4C, symBinAddr: 0x10000B93C, symSize: 0x24 }
  - { offsetInCU: 0x2F361, offset: 0x2F361, size: 0x8, addend: 0x0, symName: __ZNSt3__19allocatorINS_11__hash_nodeINS_17__hash_value_typeI5PointcEEPvEEE9constructB7v160006INS_4pairIKS3_cEEJRKNS_21piecewise_construct_tENS_5tupleIJRSA_EEENSF_IJEEEEEEvPT_DpOT0_, symObjAddr: 0x9C70, symBinAddr: 0x10000B960, symSize: 0x44 }
  - { offsetInCU: 0x2F3DD, offset: 0x2F3DD, size: 0x8, addend: 0x0, symName: __ZNSt3__14pairIK5PointcEC1B7v160006IJRS2_EJEEENS_21piecewise_construct_tENS_5tupleIJDpT_EEENS7_IJDpT0_EEE, symObjAddr: 0x9CB4, symBinAddr: 0x10000B9A4, symSize: 0x3C }
  - { offsetInCU: 0x2F444, offset: 0x2F444, size: 0x8, addend: 0x0, symName: __ZNSt3__14pairIK5PointcEC1B7v160006IJRS2_EJEJLm0EEJEEENS_21piecewise_construct_tERNS_5tupleIJDpT_EEERNS7_IJDpT0_EEENS_15__tuple_indicesIJXspT1_EEEENSG_IJXspT2_EEEE, symObjAddr: 0x9CF0, symBinAddr: 0x10000B9E0, symSize: 0x3C }
  - { offsetInCU: 0x2F4D1, offset: 0x2F4D1, size: 0x8, addend: 0x0, symName: __ZNSt3__14pairIK5PointcEC2B7v160006IJRS2_EJEJLm0EEJEEENS_21piecewise_construct_tERNS_5tupleIJDpT_EEERNS7_IJDpT0_EEENS_15__tuple_indicesIJXspT1_EEEENSG_IJXspT2_EEEE, symObjAddr: 0x9D2C, symBinAddr: 0x10000BA1C, symSize: 0x48 }
  - { offsetInCU: 0x2F55E, offset: 0x2F55E, size: 0x8, addend: 0x0, symName: __ZNSt3__112__tuple_leafILm0ERK5PointLb0EE3getB7v160006Ev, symObjAddr: 0x9D98, symBinAddr: 0x10000BA88, symSize: 0x18 }
  - { offsetInCU: 0x2F584, offset: 0x2F584, size: 0x8, addend: 0x0, symName: __ZNSt3__117__compressed_pairIPNS_11__hash_nodeINS_17__hash_value_typeI5PointcEEPvEENS_22__hash_node_destructorINS_9allocatorIS6_EEEEE6secondB7v160006Ev, symObjAddr: 0x9DB0, symBinAddr: 0x10000BAA0, symSize: 0x28 }
  - { offsetInCU: 0x2F5AA, offset: 0x2F5AA, size: 0x8, addend: 0x0, symName: __ZNSt3__122__compressed_pair_elemINS_22__hash_node_destructorINS_9allocatorINS_11__hash_nodeINS_17__hash_value_typeI5PointcEEPvEEEEEELi1ELb0EE5__getB7v160006Ev, symObjAddr: 0x9DD8, symBinAddr: 0x10000BAC8, symSize: 0x14 }
  - { offsetInCU: 0x2F5D0, offset: 0x2F5D0, size: 0x8, addend: 0x0, symName: __ZNSt3__117__compressed_pairImNS_22__unordered_map_hasherI5PointNS_17__hash_value_typeIS2_cEE11PointHasherNS_8equal_toIS2_EELb1EEEE5firstB7v160006Ev, symObjAddr: 0x9DEC, symBinAddr: 0x10000BADC, symSize: 0x24 }
  - { offsetInCU: 0x2F5F6, offset: 0x2F5F6, size: 0x8, addend: 0x0, symName: __ZNSt3__122__compressed_pair_elemImLi0ELb0EE5__getB7v160006Ev, symObjAddr: 0x9E10, symBinAddr: 0x10000BB00, symSize: 0x14 }
  - { offsetInCU: 0x2F61C, offset: 0x2F61C, size: 0x8, addend: 0x0, symName: __ZNSt3__117__compressed_pairIfNS_21__unordered_map_equalI5PointNS_17__hash_value_typeIS2_cEENS_8equal_toIS2_EE11PointHasherLb1EEEE5firstB7v160006Ev, symObjAddr: 0x9E24, symBinAddr: 0x10000BB14, symSize: 0x24 }
  - { offsetInCU: 0x2F642, offset: 0x2F642, size: 0x8, addend: 0x0, symName: __ZNSt3__122__compressed_pair_elemIfLi0ELb0EE5__getB7v160006Ev, symObjAddr: 0x9E48, symBinAddr: 0x10000BB38, symSize: 0x14 }
  - { offsetInCU: 0x2F668, offset: 0x2F668, size: 0x8, addend: 0x0, symName: __ZNSt3__112__hash_tableINS_17__hash_value_typeI5PointcEENS_22__unordered_map_hasherIS2_S3_11PointHasherNS_8equal_toIS2_EELb1EEENS_21__unordered_map_equalIS2_S3_S7_S5_Lb1EEENS_9allocatorIS3_EEE8__rehashILb1EEEvm, symObjAddr: 0x9E5C, symBinAddr: 0x10000BB4C, symSize: 0x1A8 }
  - { offsetInCU: 0x2F6B8, offset: 0x2F6B8, size: 0x8, addend: 0x0, symName: __ZNSt3__112__hash_tableINS_17__hash_value_typeI5PointcEENS_22__unordered_map_hasherIS2_S3_11PointHasherNS_8equal_toIS2_EELb1EEENS_21__unordered_map_equalIS2_S3_S7_S5_Lb1EEENS_9allocatorIS3_EEE11__do_rehashILb1EEEvm, symObjAddr: 0xA004, symBinAddr: 0x10000BCF4, symSize: 0x290 }
  - { offsetInCU: 0x2F79B, offset: 0x2F79B, size: 0x8, addend: 0x0, symName: __ZNSt3__110unique_ptrIA_PNS_16__hash_node_baseIPNS_11__hash_nodeINS_17__hash_value_typeI5PointcEEPvEEEENS_25__bucket_list_deallocatorINS_9allocatorISA_EEEEE11get_deleterB7v160006Ev, symObjAddr: 0xA310, symBinAddr: 0x10000C000, symSize: 0x24 }
  - { offsetInCU: 0x2F7C1, offset: 0x2F7C1, size: 0x8, addend: 0x0, symName: __ZNSt3__125__bucket_list_deallocatorINS_9allocatorIPNS_16__hash_node_baseIPNS_11__hash_nodeINS_17__hash_value_typeI5PointcEEPvEEEEEEE7__allocB7v160006Ev, symObjAddr: 0xA334, symBinAddr: 0x10000C024, symSize: 0x24 }
  - { offsetInCU: 0x2F7E7, offset: 0x2F7E7, size: 0x8, addend: 0x0, symName: __ZNSt3__110unique_ptrIA_PNS_16__hash_node_baseIPNS_11__hash_nodeINS_17__hash_value_typeI5PointcEEPvEEEENS_25__bucket_list_deallocatorINS_9allocatorISA_EEEEE5resetB7v160006IPSA_EENS_9enable_ifIXsr28_CheckArrayPointerConversionIT_EE5valueEvE4typeESK_, symObjAddr: 0xA358, symBinAddr: 0x10000C048, symSize: 0x78 }
  - { offsetInCU: 0x2F834, offset: 0x2F834, size: 0x8, addend: 0x0, symName: __ZNSt3__116allocator_traitsINS_9allocatorIPNS_16__hash_node_baseIPNS_11__hash_nodeINS_17__hash_value_typeI5PointcEEPvEEEEEEE8allocateB7v160006ERSC_m, symObjAddr: 0xA3D0, symBinAddr: 0x10000C0C0, symSize: 0x2C }
  - { offsetInCU: 0x2F867, offset: 0x2F867, size: 0x8, addend: 0x0, symName: __ZNSt3__125__bucket_list_deallocatorINS_9allocatorIPNS_16__hash_node_baseIPNS_11__hash_nodeINS_17__hash_value_typeI5PointcEEPvEEEEEEE4sizeB7v160006Ev, symObjAddr: 0xA3FC, symBinAddr: 0x10000C0EC, symSize: 0x24 }
  - { offsetInCU: 0x2F88D, offset: 0x2F88D, size: 0x8, addend: 0x0, symName: __ZNSt3__117__compressed_pairIPPNS_16__hash_node_baseIPNS_11__hash_nodeINS_17__hash_value_typeI5PointcEEPvEEEENS_25__bucket_list_deallocatorINS_9allocatorISA_EEEEE6secondB7v160006Ev, symObjAddr: 0xA420, symBinAddr: 0x10000C110, symSize: 0x28 }
  - { offsetInCU: 0x2F8B3, offset: 0x2F8B3, size: 0x8, addend: 0x0, symName: __ZNSt3__122__compressed_pair_elemINS_25__bucket_list_deallocatorINS_9allocatorIPNS_16__hash_node_baseIPNS_11__hash_nodeINS_17__hash_value_typeI5PointcEEPvEEEEEEEELi1ELb0EE5__getB7v160006Ev, symObjAddr: 0xA448, symBinAddr: 0x10000C138, symSize: 0x14 }
  - { offsetInCU: 0x2F8D9, offset: 0x2F8D9, size: 0x8, addend: 0x0, symName: __ZNSt3__117__compressed_pairImNS_9allocatorIPNS_16__hash_node_baseIPNS_11__hash_nodeINS_17__hash_value_typeI5PointcEEPvEEEEEEE6secondB7v160006Ev, symObjAddr: 0xA45C, symBinAddr: 0x10000C14C, symSize: 0x24 }
  - { offsetInCU: 0x2F8FF, offset: 0x2F8FF, size: 0x8, addend: 0x0, symName: __ZNSt3__122__compressed_pair_elemINS_9allocatorIPNS_16__hash_node_baseIPNS_11__hash_nodeINS_17__hash_value_typeI5PointcEEPvEEEEEELi1ELb1EE5__getB7v160006Ev, symObjAddr: 0xA480, symBinAddr: 0x10000C170, symSize: 0x14 }
  - { offsetInCU: 0x2F925, offset: 0x2F925, size: 0x8, addend: 0x0, symName: __ZNSt3__117__compressed_pairIPPNS_16__hash_node_baseIPNS_11__hash_nodeINS_17__hash_value_typeI5PointcEEPvEEEENS_25__bucket_list_deallocatorINS_9allocatorISA_EEEEE5firstB7v160006Ev, symObjAddr: 0xA494, symBinAddr: 0x10000C184, symSize: 0x24 }
  - { offsetInCU: 0x2F94B, offset: 0x2F94B, size: 0x8, addend: 0x0, symName: __ZNSt3__125__bucket_list_deallocatorINS_9allocatorIPNS_16__hash_node_baseIPNS_11__hash_nodeINS_17__hash_value_typeI5PointcEEPvEEEEEEEclB7v160006EPSB_, symObjAddr: 0xA4B8, symBinAddr: 0x10000C1A8, symSize: 0x58 }
  - { offsetInCU: 0x2F980, offset: 0x2F980, size: 0x8, addend: 0x0, symName: __ZNSt3__122__compressed_pair_elemIPPNS_16__hash_node_baseIPNS_11__hash_nodeINS_17__hash_value_typeI5PointcEEPvEEEELi0ELb0EE5__getB7v160006Ev, symObjAddr: 0xA510, symBinAddr: 0x10000C200, symSize: 0x14 }
  - { offsetInCU: 0x2F9A6, offset: 0x2F9A6, size: 0x8, addend: 0x0, symName: __ZNSt3__116allocator_traitsINS_9allocatorIPNS_16__hash_node_baseIPNS_11__hash_nodeINS_17__hash_value_typeI5PointcEEPvEEEEEEE10deallocateB7v160006ERSC_PSB_m, symObjAddr: 0xA524, symBinAddr: 0x10000C214, symSize: 0x34 }
  - { offsetInCU: 0x2F9E8, offset: 0x2F9E8, size: 0x8, addend: 0x0, symName: __ZNSt3__19allocatorIPNS_16__hash_node_baseIPNS_11__hash_nodeINS_17__hash_value_typeI5PointcEEPvEEEEE10deallocateB7v160006EPSA_m, symObjAddr: 0xA558, symBinAddr: 0x10000C248, symSize: 0x40 }
  - { offsetInCU: 0x2FA2A, offset: 0x2FA2A, size: 0x8, addend: 0x0, symName: __ZNSt3__19allocatorIPNS_16__hash_node_baseIPNS_11__hash_nodeINS_17__hash_value_typeI5PointcEEPvEEEEE8allocateB7v160006Em, symObjAddr: 0xA598, symBinAddr: 0x10000C288, symSize: 0x58 }
  - { offsetInCU: 0x2FA68, offset: 0x2FA68, size: 0x8, addend: 0x0, symName: __ZNSt3__116allocator_traitsINS_9allocatorIPNS_16__hash_node_baseIPNS_11__hash_nodeINS_17__hash_value_typeI5PointcEEPvEEEEEEE8max_sizeB7v160006ISC_vEEmRKSC_, symObjAddr: 0xA5F0, symBinAddr: 0x10000C2E0, symSize: 0x24 }
  - { offsetInCU: 0x2FA96, offset: 0x2FA96, size: 0x8, addend: 0x0, symName: __ZNKSt3__19allocatorIPNS_16__hash_node_baseIPNS_11__hash_nodeINS_17__hash_value_typeI5PointcEEPvEEEEE8max_sizeB7v160006Ev, symObjAddr: 0xA614, symBinAddr: 0x10000C304, symSize: 0x14 }
  - { offsetInCU: 0x2FABC, offset: 0x2FABC, size: 0x8, addend: 0x0, symName: __ZNSt3__117__compressed_pairImNS_9allocatorIPNS_16__hash_node_baseIPNS_11__hash_nodeINS_17__hash_value_typeI5PointcEEPvEEEEEEE5firstB7v160006Ev, symObjAddr: 0xA628, symBinAddr: 0x10000C318, symSize: 0x24 }
  - { offsetInCU: 0x2FAE2, offset: 0x2FAE2, size: 0x8, addend: 0x0, symName: __ZNSt3__122__compressed_pair_elemINS_16__hash_node_baseIPNS_11__hash_nodeINS_17__hash_value_typeI5PointcEEPvEEEELi0ELb0EE5__getB7v160006Ev, symObjAddr: 0xA668, symBinAddr: 0x10000C358, symSize: 0x14 }
  - { offsetInCU: 0x2FB08, offset: 0x2FB08, size: 0x8, addend: 0x0, symName: __ZNKSt3__117__compressed_pairIPNS_11__hash_nodeINS_17__hash_value_typeI5PointcEEPvEENS_22__hash_node_destructorINS_9allocatorIS6_EEEEE5firstB7v160006Ev, symObjAddr: 0xA67C, symBinAddr: 0x10000C36C, symSize: 0x24 }
  - { offsetInCU: 0x2FB2E, offset: 0x2FB2E, size: 0x8, addend: 0x0, symName: __ZNKSt3__122__compressed_pair_elemIPNS_11__hash_nodeINS_17__hash_value_typeI5PointcEEPvEELi0ELb0EE5__getB7v160006Ev, symObjAddr: 0xA6A0, symBinAddr: 0x10000C390, symSize: 0x14 }
  - { offsetInCU: 0x2FB54, offset: 0x2FB54, size: 0x8, addend: 0x0, symName: __ZNSt3__117__compressed_pairIPNS_11__hash_nodeINS_17__hash_value_typeI5PointcEEPvEENS_22__hash_node_destructorINS_9allocatorIS6_EEEEE5firstB7v160006Ev, symObjAddr: 0xA6B4, symBinAddr: 0x10000C3A4, symSize: 0x24 }
  - { offsetInCU: 0x2FB7A, offset: 0x2FB7A, size: 0x8, addend: 0x0, symName: __ZNSt3__122__compressed_pair_elemIPNS_11__hash_nodeINS_17__hash_value_typeI5PointcEEPvEELi0ELb0EE5__getB7v160006Ev, symObjAddr: 0xA6D8, symBinAddr: 0x10000C3C8, symSize: 0x14 }
  - { offsetInCU: 0x2FBA0, offset: 0x2FBA0, size: 0x8, addend: 0x0, symName: __ZNSt3__110unique_ptrINS_11__hash_nodeINS_17__hash_value_typeI5PointcEEPvEENS_22__hash_node_destructorINS_9allocatorIS6_EEEEED2B7v160006Ev, symObjAddr: 0xA6EC, symBinAddr: 0x10000C3DC, symSize: 0x30 }
  - { offsetInCU: 0x2FBCA, offset: 0x2FBCA, size: 0x8, addend: 0x0, symName: __ZNSt3__110unique_ptrINS_11__hash_nodeINS_17__hash_value_typeI5PointcEEPvEENS_22__hash_node_destructorINS_9allocatorIS6_EEEEE5resetB7v160006EPS6_, symObjAddr: 0xA71C, symBinAddr: 0x10000C40C, symSize: 0x78 }
  - { offsetInCU: 0x2FC0E, offset: 0x2FC0E, size: 0x8, addend: 0x0, symName: __ZNSt3__122__hash_node_destructorINS_9allocatorINS_11__hash_nodeINS_17__hash_value_typeI5PointcEEPvEEEEEclB7v160006EPS7_, symObjAddr: 0xA794, symBinAddr: 0x10000C484, symSize: 0x98 }
  - { offsetInCU: 0x2FC43, offset: 0x2FC43, size: 0x8, addend: 0x0, symName: __ZNSt3__116allocator_traitsINS_9allocatorINS_11__hash_nodeINS_17__hash_value_typeI5PointcEEPvEEEEE7destroyB7v160006INS_4pairIKS4_cEEvvEEvRS8_PT_, symObjAddr: 0xA82C, symBinAddr: 0x10000C51C, symSize: 0x14 }
  - { offsetInCU: 0x2FC7D, offset: 0x2FC7D, size: 0x8, addend: 0x0, symName: __ZNSt3__116allocator_traitsINS_9allocatorINS_11__hash_nodeINS_17__hash_value_typeI5PointcEEPvEEEEE10deallocateB7v160006ERS8_PS7_m, symObjAddr: 0xA840, symBinAddr: 0x10000C530, symSize: 0x34 }
  - { offsetInCU: 0x2FCBF, offset: 0x2FCBF, size: 0x8, addend: 0x0, symName: __ZNSt3__19allocatorINS_11__hash_nodeINS_17__hash_value_typeI5PointcEEPvEEE10deallocateB7v160006EPS6_m, symObjAddr: 0xA874, symBinAddr: 0x10000C564, symSize: 0x40 }
  - { offsetInCU: 0x2FD01, offset: 0x2FD01, size: 0x8, addend: 0x0, symName: __ZNSt3__115__hash_iteratorIPNS_11__hash_nodeINS_17__hash_value_typeI5PointcEEPvEEEC2B7v160006EPNS_16__hash_node_baseIS7_EEPKv, symObjAddr: 0xA8B4, symBinAddr: 0x10000C5A4, symSize: 0x24 }
  - { offsetInCU: 0x2FD49, offset: 0x2FD49, size: 0x8, addend: 0x0, symName: __ZNSt3__14pairINS_15__hash_iteratorIPNS_11__hash_nodeINS_17__hash_value_typeI5PointcEEPvEEEEbEC2B7v160006IS9_RbLS6_0EEEOT_OT0_, symObjAddr: 0xA8D8, symBinAddr: 0x10000C5C8, symSize: 0x38 }
  - { offsetInCU: 0x2FDA7, offset: 0x2FDA7, size: 0x8, addend: 0x0, symName: __ZNSt3__15tupleIJRK5PointEEC1B7v160006INS_4_AndELi0EEES3_, symObjAddr: 0xA910, symBinAddr: 0x10000C600, symSize: 0x34 }
  - { offsetInCU: 0x2FDEF, offset: 0x2FDEF, size: 0x8, addend: 0x0, symName: __ZNSt3__15tupleIJRK5PointEEC2B7v160006INS_4_AndELi0EEES3_, symObjAddr: 0xA944, symBinAddr: 0x10000C634, symSize: 0x34 }
  - { offsetInCU: 0x2FE37, offset: 0x2FE37, size: 0x8, addend: 0x0, symName: __ZNSt3__112__tuple_implINS_15__tuple_indicesIJLm0EEEEJRK5PointEEC1B7v160006IJLm0EEJS5_EJEJEJS5_EEENS1_IJXspT_EEEENS_13__tuple_typesIJDpT0_EEENS1_IJXspT1_EEEENS9_IJDpT2_EEEDpOT3_, symObjAddr: 0xA978, symBinAddr: 0x10000C668, symSize: 0x34 }
  - { offsetInCU: 0x2FEC8, offset: 0x2FEC8, size: 0x8, addend: 0x0, symName: __ZNSt3__112__tuple_implINS_15__tuple_indicesIJLm0EEEEJRK5PointEEC2B7v160006IJLm0EEJS5_EJEJEJS5_EEENS1_IJXspT_EEEENS_13__tuple_typesIJDpT0_EEENS1_IJXspT1_EEEENS9_IJDpT2_EEEDpOT3_, symObjAddr: 0xA9AC, symBinAddr: 0x10000C69C, symSize: 0x34 }
  - { offsetInCU: 0x2FF59, offset: 0x2FF59, size: 0x8, addend: 0x0, symName: __ZNSt3__112__tuple_leafILm0ERK5PointLb0EEC2B7v160006IS3_vEEOT_, symObjAddr: 0xA9E0, symBinAddr: 0x10000C6D0, symSize: 0x20 }
  - { offsetInCU: 0x2FF9C, offset: 0x2FF9C, size: 0x8, addend: 0x0, symName: __ZNSt3__114pointer_traitsIPNS_17__hash_value_typeI5PointcEEE10pointer_toB7v160006ERS3_, symObjAddr: 0xAA00, symBinAddr: 0x10000C6F0, symSize: 0x14 }
  - { offsetInCU: 0x2FFBF, offset: 0x2FFBF, size: 0x8, addend: 0x0, symName: __ZNSt3__16vectorIcNS_9allocatorIcEEEC2B7v160006ESt16initializer_listIcE, symObjAddr: 0xAA14, symBinAddr: 0x10000C704, symSize: 0x128 }
  - { offsetInCU: 0x3000F, offset: 0x3000F, size: 0x8, addend: 0x0, symName: __ZNKSt16initializer_listIcE4sizeB7v160006Ev, symObjAddr: 0xAB7C, symBinAddr: 0x10000C86C, symSize: 0x18 }
  - { offsetInCU: 0x30035, offset: 0x30035, size: 0x8, addend: 0x0, symName: __ZNSt3__16vectorIcNS_9allocatorIcEEE11__vallocateB7v160006Em, symObjAddr: 0xAB94, symBinAddr: 0x10000C884, symSize: 0xAC }
  - { offsetInCU: 0x30079, offset: 0x30079, size: 0x8, addend: 0x0, symName: __ZNSt3__16vectorIcNS_9allocatorIcEEE18__construct_at_endIPKcLi0EEEvT_S7_m, symObjAddr: 0xAC40, symBinAddr: 0x10000C930, symSize: 0x8C }
  - { offsetInCU: 0x300EC, offset: 0x300EC, size: 0x8, addend: 0x0, symName: __ZNKSt16initializer_listIcE5beginB7v160006Ev, symObjAddr: 0xACCC, symBinAddr: 0x10000C9BC, symSize: 0x18 }
  - { offsetInCU: 0x30112, offset: 0x30112, size: 0x8, addend: 0x0, symName: __ZNKSt16initializer_listIcE3endB7v160006Ev, symObjAddr: 0xACE4, symBinAddr: 0x10000C9D4, symSize: 0x20 }
  - { offsetInCU: 0x30138, offset: 0x30138, size: 0x8, addend: 0x0, symName: __ZNSt3__128__exception_guard_exceptionsINS_6vectorIcNS_9allocatorIcEEE16__destroy_vectorEE10__completeB7v160006Ev, symObjAddr: 0xAD04, symBinAddr: 0x10000C9F4, symSize: 0x1C }
  - { offsetInCU: 0x3015E, offset: 0x3015E, size: 0x8, addend: 0x0, symName: __ZNSt3__128__exception_guard_exceptionsINS_6vectorIcNS_9allocatorIcEEE16__destroy_vectorEED1B7v160006Ev, symObjAddr: 0xAD20, symBinAddr: 0x10000CA10, symSize: 0x2C }
  - { offsetInCU: 0x30188, offset: 0x30188, size: 0x8, addend: 0x0, symName: __ZNSt3__128__exception_guard_exceptionsINS_6vectorIcNS_9allocatorIcEEE16__destroy_vectorEEC1B7v160006ES5_, symObjAddr: 0xAD4C, symBinAddr: 0x10000CA3C, symSize: 0x34 }
  - { offsetInCU: 0x301C0, offset: 0x301C0, size: 0x8, addend: 0x0, symName: __ZNSt3__128__exception_guard_exceptionsINS_6vectorIcNS_9allocatorIcEEE16__destroy_vectorEEC2B7v160006ES5_, symObjAddr: 0xAD80, symBinAddr: 0x10000CA70, symSize: 0x24 }
  - { offsetInCU: 0x3021C, offset: 0x3021C, size: 0x8, addend: 0x0, symName: __ZNKSt3__114__copy_trivialclB7v160006IKccLi0EEENS_4pairIPT_PT0_EES5_S5_S7_, symObjAddr: 0xAFB8, symBinAddr: 0x10000CCA8, symSize: 0x48 }
  - { offsetInCU: 0x302A4, offset: 0x302A4, size: 0x8, addend: 0x0, symName: __ZNSt3__14pairIPKcS2_EC1B7v160006IS2_S2_LPv0EEEOT_OT0_, symObjAddr: 0xB120, symBinAddr: 0x10000CE10, symSize: 0x3C }
  - { offsetInCU: 0x30302, offset: 0x30302, size: 0x8, addend: 0x0, symName: __ZNSt3__14pairIPKcS2_EC2B7v160006IS2_S2_LPv0EEEOT_OT0_, symObjAddr: 0xB15C, symBinAddr: 0x10000CE4C, symSize: 0x34 }
  - { offsetInCU: 0x30360, offset: 0x30360, size: 0x8, addend: 0x0, symName: __ZNSt3__118__unwrap_iter_implIPKcLb1EE8__unwrapB7v160006ES2_, symObjAddr: 0xB190, symBinAddr: 0x10000CE80, symSize: 0x24 }
  - { offsetInCU: 0x3038E, offset: 0x3038E, size: 0x8, addend: 0x0, symName: __ZNSt3__14pairIPKcPcEC1B7v160006IRS2_S3_LPv0EEEOT_OT0_, symObjAddr: 0xB27C, symBinAddr: 0x10000CF6C, symSize: 0x3C }
  - { offsetInCU: 0x303EC, offset: 0x303EC, size: 0x8, addend: 0x0, symName: __ZNSt3__14pairIPKcPcEC2B7v160006IRS2_S3_LPv0EEEOT_OT0_, symObjAddr: 0xB2B8, symBinAddr: 0x10000CFA8, symSize: 0x34 }
  - { offsetInCU: 0x3044A, offset: 0x3044A, size: 0x8, addend: 0x0, symName: __ZNSt3__118__unwrap_iter_implIPcLb1EE8__unwrapB7v160006ES1_, symObjAddr: 0xB2EC, symBinAddr: 0x10000CFDC, symSize: 0x24 }
  - { offsetInCU: 0x3046D, offset: 0x3046D, size: 0x8, addend: 0x0, symName: __ZNSt3__14pairIPKcPcEC1B7v160006IS2_S3_LPv0EEEOT_OT0_, symObjAddr: 0xB310, symBinAddr: 0x10000D000, symSize: 0x3C }
  - { offsetInCU: 0x304CB, offset: 0x304CB, size: 0x8, addend: 0x0, symName: __ZNSt3__14pairIPKcPcEC2B7v160006IS2_S3_LPv0EEEOT_OT0_, symObjAddr: 0xB34C, symBinAddr: 0x10000D03C, symSize: 0x34 }
  - { offsetInCU: 0x30529, offset: 0x30529, size: 0x8, addend: 0x0, symName: __ZNSt3__118__unwrap_iter_implIPKcLb1EE8__rewrapB7v160006ES2_S2_, symObjAddr: 0xB3BC, symBinAddr: 0x10000D0AC, symSize: 0x48 }
  - { offsetInCU: 0x3055A, offset: 0x3055A, size: 0x8, addend: 0x0, symName: __ZNSt3__118__unwrap_iter_implIPcLb1EE8__rewrapB7v160006ES1_S1_, symObjAddr: 0xB404, symBinAddr: 0x10000D0F4, symSize: 0x48 }
  - { offsetInCU: 0x3058B, offset: 0x3058B, size: 0x8, addend: 0x0, symName: __ZNSt3__128__exception_guard_exceptionsINS_6vectorIcNS_9allocatorIcEEE16__destroy_vectorEED2B7v160006Ev, symObjAddr: 0xB44C, symBinAddr: 0x10000D13C, symSize: 0x50 }
  - { offsetInCU: 0x305B5, offset: 0x305B5, size: 0x8, addend: 0x0, symName: __ZNKSt3__16vectorIcNS_9allocatorIcEEE5beginB7v160006Ev, symObjAddr: 0xB524, symBinAddr: 0x10000D214, symSize: 0x30 }
  - { offsetInCU: 0x305DD, offset: 0x305DD, size: 0x8, addend: 0x0, symName: __ZNKSt3__16vectorIcNS_9allocatorIcEEE3endB7v160006Ev, symObjAddr: 0xB554, symBinAddr: 0x10000D244, symSize: 0x30 }
  - { offsetInCU: 0x30605, offset: 0x30605, size: 0x8, addend: 0x0, symName: __ZNKSt3__111__wrap_iterIPKcEdeB7v160006Ev, symObjAddr: 0xB5B8, symBinAddr: 0x10000D2A8, symSize: 0x18 }
  - { offsetInCU: 0x3062B, offset: 0x3062B, size: 0x8, addend: 0x0, symName: __ZNSt3__111__wrap_iterIPKcEppB7v160006Ev, symObjAddr: 0xB5D0, symBinAddr: 0x10000D2C0, symSize: 0x20 }
  - { offsetInCU: 0x30651, offset: 0x30651, size: 0x8, addend: 0x0, symName: __ZNKSt3__111__wrap_iterIPKcE4baseB7v160006Ev, symObjAddr: 0xB638, symBinAddr: 0x10000D328, symSize: 0x18 }
  - { offsetInCU: 0x30677, offset: 0x30677, size: 0x8, addend: 0x0, symName: __ZNKSt3__16vectorIcNS_9allocatorIcEEE11__make_iterB7v160006EPKc, symObjAddr: 0xB650, symBinAddr: 0x10000D340, symSize: 0x34 }
  - { offsetInCU: 0x306AC, offset: 0x306AC, size: 0x8, addend: 0x0, symName: __ZNSt3__111__wrap_iterIPKcEC1B7v160006EPKvS2_, symObjAddr: 0xB684, symBinAddr: 0x10000D374, symSize: 0x3C }
  - { offsetInCU: 0x306F2, offset: 0x306F2, size: 0x8, addend: 0x0, symName: __ZNSt3__111__wrap_iterIPKcEC2B7v160006EPKvS2_, symObjAddr: 0xB6C0, symBinAddr: 0x10000D3B0, symSize: 0x24 }
  - { offsetInCU: 0x30738, offset: 0x30738, size: 0x8, addend: 0x0, symName: __ZNSt3__16vectorIcNS_9allocatorIcEEE5eraseENS_11__wrap_iterIPKcEES7_, symObjAddr: 0xB6E4, symBinAddr: 0x10000D3D4, symSize: 0xE0 }
  - { offsetInCU: 0x3078D, offset: 0x3078D, size: 0x8, addend: 0x0, symName: __ZNSt3__16vectorIcNS_9allocatorIcEEE5beginB7v160006Ev, symObjAddr: 0xB8CC, symBinAddr: 0x10000D5BC, symSize: 0x30 }
  - { offsetInCU: 0x307B5, offset: 0x307B5, size: 0x8, addend: 0x0, symName: __ZNSt3__16vectorIcNS_9allocatorIcEEE3endB7v160006Ev, symObjAddr: 0xB8FC, symBinAddr: 0x10000D5EC, symSize: 0x30 }
  - { offsetInCU: 0x307E7, offset: 0x307E7, size: 0x8, addend: 0x0, symName: __ZNSt3__111__wrap_iterIPKcEC1B7v160006IPcEERKNS0_IT_EEPNS_9enable_ifIXsr14is_convertibleIS6_S2_EE5valueEvE4typeE, symObjAddr: 0xB92C, symBinAddr: 0x10000D61C, symSize: 0x3C }
  - { offsetInCU: 0x30832, offset: 0x30832, size: 0x8, addend: 0x0, symName: __ZNSt3__16vectorIcNS_9allocatorIcEEE17__destruct_at_endB7v160006EPc, symObjAddr: 0xB9A8, symBinAddr: 0x10000D698, symSize: 0x60 }
  - { offsetInCU: 0x30876, offset: 0x30876, size: 0x8, addend: 0x0, symName: __ZNSt3__16vectorIcNS_9allocatorIcEEE27__invalidate_iterators_pastB7v160006EPc, symObjAddr: 0xBA88, symBinAddr: 0x10000D778, symSize: 0x14 }
  - { offsetInCU: 0x308AD, offset: 0x308AD, size: 0x8, addend: 0x0, symName: __ZNSt3__16vectorIcNS_9allocatorIcEEE11__make_iterB7v160006EPc, symObjAddr: 0xBA9C, symBinAddr: 0x10000D78C, symSize: 0x34 }
  - { offsetInCU: 0x308E2, offset: 0x308E2, size: 0x8, addend: 0x0, symName: __ZNKSt3__111__wrap_iterIPcE4baseB7v160006Ev, symObjAddr: 0xBAD0, symBinAddr: 0x10000D7C0, symSize: 0x18 }
  - { offsetInCU: 0x30908, offset: 0x30908, size: 0x8, addend: 0x0, symName: __ZNKSt3__16vectorIcNS_9allocatorIcEEE17__annotate_shrinkB7v160006Em, symObjAddr: 0xBAE8, symBinAddr: 0x10000D7D8, symSize: 0xB4 }
  - { offsetInCU: 0x30961, offset: 0x30961, size: 0x8, addend: 0x0, symName: __ZNKSt3__114__move_trivialclB7v160006IccLi0EEENS_4pairIPT_PT0_EES4_S4_S6_, symObjAddr: 0xBD38, symBinAddr: 0x10000DA28, symSize: 0x48 }
  - { offsetInCU: 0x309C9, offset: 0x309C9, size: 0x8, addend: 0x0, symName: __ZNSt3__14pairIPcS1_EC1B7v160006IRS1_S1_LPv0EEEOT_OT0_, symObjAddr: 0xBE98, symBinAddr: 0x10000DB88, symSize: 0x3C }
  - { offsetInCU: 0x30A27, offset: 0x30A27, size: 0x8, addend: 0x0, symName: __ZNSt3__14pairIPcS1_EC2B7v160006IRS1_S1_LPv0EEEOT_OT0_, symObjAddr: 0xBED4, symBinAddr: 0x10000DBC4, symSize: 0x34 }
  - { offsetInCU: 0x30A85, offset: 0x30A85, size: 0x8, addend: 0x0, symName: __ZNSt3__14pairIPcS1_EC1B7v160006IS1_S1_LPv0EEEOT_OT0_, symObjAddr: 0xBF08, symBinAddr: 0x10000DBF8, symSize: 0x3C }
  - { offsetInCU: 0x30AE3, offset: 0x30AE3, size: 0x8, addend: 0x0, symName: __ZNSt3__14pairIPcS1_EC2B7v160006IS1_S1_LPv0EEEOT_OT0_, symObjAddr: 0xBF44, symBinAddr: 0x10000DC34, symSize: 0x34 }
  - { offsetInCU: 0x30B41, offset: 0x30B41, size: 0x8, addend: 0x0, symName: __ZNSt3__111__wrap_iterIPcEC1B7v160006EPKvS1_, symObjAddr: 0xBF78, symBinAddr: 0x10000DC68, symSize: 0x3C }
  - { offsetInCU: 0x30B87, offset: 0x30B87, size: 0x8, addend: 0x0, symName: __ZNSt3__111__wrap_iterIPcEC2B7v160006EPKvS1_, symObjAddr: 0xBFB4, symBinAddr: 0x10000DCA4, symSize: 0x24 }
  - { offsetInCU: 0x30BCD, offset: 0x30BCD, size: 0x8, addend: 0x0, symName: __ZNSt3__111__wrap_iterIPcEppB7v160006Ev, symObjAddr: 0xC08C, symBinAddr: 0x10000DD7C, symSize: 0x20 }
  - { offsetInCU: 0x30BF3, offset: 0x30BF3, size: 0x8, addend: 0x0, symName: __ZNKSt3__111__wrap_iterIPcEdeB7v160006Ev, symObjAddr: 0xC0AC, symBinAddr: 0x10000DD9C, symSize: 0x18 }
  - { offsetInCU: 0x30C19, offset: 0x30C19, size: 0x8, addend: 0x0, symName: __ZNSt3__111__wrap_iterIPKcEC2B7v160006IPcEERKNS0_IT_EEPNS_9enable_ifIXsr14is_convertibleIS6_S2_EE5valueEvE4typeE, symObjAddr: 0xC10C, symBinAddr: 0x10000DDFC, symSize: 0x40 }
  - { offsetInCU: 0x30CA3, offset: 0x30CA3, size: 0x8, addend: 0x0, symName: __ZNSt3__15queueI5PointNS_5dequeIS1_NS_9allocatorIS1_EEEEEC1B7v160006Ev, symObjAddr: 0xC14C, symBinAddr: 0x10000DE3C, symSize: 0x2C }
  - { offsetInCU: 0x30D57, offset: 0x30D57, size: 0x8, addend: 0x0, symName: __ZNSt3__113unordered_mapI5Pointb11PointHasherNS_8equal_toIS1_EENS_9allocatorINS_4pairIKS1_bEEEEEC1B7v160006Ev, symObjAddr: 0xC178, symBinAddr: 0x10000DE68, symSize: 0x2C }
  - { offsetInCU: 0x30D81, offset: 0x30D81, size: 0x8, addend: 0x0, symName: __ZNSt3__15queueI5PointNS_5dequeIS1_NS_9allocatorIS1_EEEEE4pushB7v160006ERKS1_, symObjAddr: 0xC1A4, symBinAddr: 0x10000DE94, symSize: 0x2C }
  - { offsetInCU: 0x30DB6, offset: 0x30DB6, size: 0x8, addend: 0x0, symName: __ZNSt3__113unordered_mapI5Pointb11PointHasherNS_8equal_toIS1_EENS_9allocatorINS_4pairIKS1_bEEEEEixERS7_, symObjAddr: 0xC1D0, symBinAddr: 0x10000DEC0, symSize: 0x80 }
  - { offsetInCU: 0x30DED, offset: 0x30DED, size: 0x8, addend: 0x0, symName: __ZNKSt3__15queueI5PointNS_5dequeIS1_NS_9allocatorIS1_EEEEE5emptyB7v160006Ev, symObjAddr: 0xC250, symBinAddr: 0x10000DF40, symSize: 0x28 }
  - { offsetInCU: 0x30E13, offset: 0x30E13, size: 0x8, addend: 0x0, symName: __ZNSt3__15queueI5PointNS_5dequeIS1_NS_9allocatorIS1_EEEEE5frontB7v160006Ev, symObjAddr: 0xC278, symBinAddr: 0x10000DF68, symSize: 0x24 }
  - { offsetInCU: 0x30E38, offset: 0x30E38, size: 0x8, addend: 0x0, symName: __Z8containsI5PointEbRKNSt3__16vectorIT_NS1_9allocatorIS3_EEEERKS3_, symObjAddr: 0xC29C, symBinAddr: 0x10000DF8C, symSize: 0x54 }
  - { offsetInCU: 0x30E7C, offset: 0x30E7C, size: 0x8, addend: 0x0, symName: __ZNSt3__15queueI5PointNS_5dequeIS1_NS_9allocatorIS1_EEEEE3popB7v160006Ev, symObjAddr: 0xC2F0, symBinAddr: 0x10000DFE0, symSize: 0x24 }
  - { offsetInCU: 0x30EA2, offset: 0x30EA2, size: 0x8, addend: 0x0, symName: __ZNSt3__113unordered_mapI5Pointb11PointHasherNS_8equal_toIS1_EENS_9allocatorINS_4pairIKS1_bEEEEED1B7v160006Ev, symObjAddr: 0xC314, symBinAddr: 0x10000E004, symSize: 0x2C }
  - { offsetInCU: 0x30ECC, offset: 0x30ECC, size: 0x8, addend: 0x0, symName: __ZNSt3__15queueI5PointNS_5dequeIS1_NS_9allocatorIS1_EEEEED1Ev, symObjAddr: 0xC340, symBinAddr: 0x10000E030, symSize: 0x2C }
  - { offsetInCU: 0x30EF9, offset: 0x30EF9, size: 0x8, addend: 0x0, symName: __ZNSt3__15queueI5PointNS_5dequeIS1_NS_9allocatorIS1_EEEEEC2B7v160006Ev, symObjAddr: 0xC36C, symBinAddr: 0x10000E05C, symSize: 0x2C }
  - { offsetInCU: 0x30F23, offset: 0x30F23, size: 0x8, addend: 0x0, symName: __ZNSt3__15dequeI5PointNS_9allocatorIS1_EEEC1B7v160006Ev, symObjAddr: 0xC398, symBinAddr: 0x10000E088, symSize: 0x2C }
  - { offsetInCU: 0x30F4D, offset: 0x30F4D, size: 0x8, addend: 0x0, symName: __ZNSt3__15dequeI5PointNS_9allocatorIS1_EEEC2B7v160006Ev, symObjAddr: 0xC3C4, symBinAddr: 0x10000E0B4, symSize: 0x50 }
  - { offsetInCU: 0x30F77, offset: 0x30F77, size: 0x8, addend: 0x0, symName: __ZNSt3__114__split_bufferIP5PointNS_9allocatorIS2_EEEC1Ev, symObjAddr: 0xC414, symBinAddr: 0x10000E104, symSize: 0x2C }
  - { offsetInCU: 0x30FA3, offset: 0x30FA3, size: 0x8, addend: 0x0, symName: __ZNSt3__117__compressed_pairImNS_9allocatorI5PointEEEC1B7v160006IiNS_18__default_init_tagEEEOT_OT0_, symObjAddr: 0xC440, symBinAddr: 0x10000E130, symSize: 0x3C }
  - { offsetInCU: 0x30FFB, offset: 0x30FFB, size: 0x8, addend: 0x0, symName: __ZNSt3__114__split_bufferIP5PointNS_9allocatorIS2_EEEC2Ev, symObjAddr: 0xC47C, symBinAddr: 0x10000E16C, symSize: 0x50 }
  - { offsetInCU: 0x31027, offset: 0x31027, size: 0x8, addend: 0x0, symName: __ZNSt3__117__compressed_pairIPP5PointNS_9allocatorIS2_EEEC1B7v160006IDnNS_18__default_init_tagEEEOT_OT0_, symObjAddr: 0xC4CC, symBinAddr: 0x10000E1BC, symSize: 0x3C }
  - { offsetInCU: 0x3107F, offset: 0x3107F, size: 0x8, addend: 0x0, symName: __ZNSt3__117__compressed_pairIPP5PointNS_9allocatorIS2_EEEC2B7v160006IDnNS_18__default_init_tagEEEOT_OT0_, symObjAddr: 0xC508, symBinAddr: 0x10000E1F8, symSize: 0x40 }
  - { offsetInCU: 0x310D7, offset: 0x310D7, size: 0x8, addend: 0x0, symName: __ZNSt3__122__compressed_pair_elemIPP5PointLi0ELb0EEC2B7v160006IDnvEEOT_, symObjAddr: 0xC548, symBinAddr: 0x10000E238, symSize: 0x1C }
  - { offsetInCU: 0x31119, offset: 0x31119, size: 0x8, addend: 0x0, symName: __ZNSt3__122__compressed_pair_elemINS_9allocatorIP5PointEELi1ELb1EEC2B7v160006ENS_18__default_init_tagE, symObjAddr: 0xC564, symBinAddr: 0x10000E254, symSize: 0x2C }
  - { offsetInCU: 0x3114D, offset: 0x3114D, size: 0x8, addend: 0x0, symName: __ZNSt3__19allocatorIP5PointEC2B7v160006Ev, symObjAddr: 0xC590, symBinAddr: 0x10000E280, symSize: 0x2C }
  - { offsetInCU: 0x31177, offset: 0x31177, size: 0x8, addend: 0x0, symName: __ZNSt3__116__non_trivial_ifILb1ENS_9allocatorIP5PointEEEC2B7v160006Ev, symObjAddr: 0xC5BC, symBinAddr: 0x10000E2AC, symSize: 0x14 }
  - { offsetInCU: 0x311A1, offset: 0x311A1, size: 0x8, addend: 0x0, symName: __ZNSt3__117__compressed_pairImNS_9allocatorI5PointEEEC2B7v160006IiNS_18__default_init_tagEEEOT_OT0_, symObjAddr: 0xC5D0, symBinAddr: 0x10000E2C0, symSize: 0x40 }
  - { offsetInCU: 0x311F9, offset: 0x311F9, size: 0x8, addend: 0x0, symName: __ZNSt3__113unordered_mapI5Pointb11PointHasherNS_8equal_toIS1_EENS_9allocatorINS_4pairIKS1_bEEEEEC2B7v160006Ev, symObjAddr: 0xC610, symBinAddr: 0x10000E300, symSize: 0x3C }
  - { offsetInCU: 0x31223, offset: 0x31223, size: 0x8, addend: 0x0, symName: __ZNSt3__112__hash_tableINS_17__hash_value_typeI5PointbEENS_22__unordered_map_hasherIS2_S3_11PointHasherNS_8equal_toIS2_EELb1EEENS_21__unordered_map_equalIS2_S3_S7_S5_Lb1EEENS_9allocatorIS3_EEEC1Ev, symObjAddr: 0xC64C, symBinAddr: 0x10000E33C, symSize: 0x2C }
  - { offsetInCU: 0x3124F, offset: 0x3124F, size: 0x8, addend: 0x0, symName: __ZNSt3__112__hash_tableINS_17__hash_value_typeI5PointbEENS_22__unordered_map_hasherIS2_S3_11PointHasherNS_8equal_toIS2_EELb1EEENS_21__unordered_map_equalIS2_S3_S7_S5_Lb1EEENS_9allocatorIS3_EEEC2Ev, symObjAddr: 0xC688, symBinAddr: 0x10000E378, symSize: 0x7C }
  - { offsetInCU: 0x3127B, offset: 0x3127B, size: 0x8, addend: 0x0, symName: __ZNSt3__110unique_ptrIA_PNS_16__hash_node_baseIPNS_11__hash_nodeINS_17__hash_value_typeI5PointbEEPvEEEENS_25__bucket_list_deallocatorINS_9allocatorISA_EEEEEC1B7v160006ILb1EvEEv, symObjAddr: 0xC704, symBinAddr: 0x10000E3F4, symSize: 0x2C }
  - { offsetInCU: 0x312B0, offset: 0x312B0, size: 0x8, addend: 0x0, symName: __ZNSt3__117__compressed_pairINS_16__hash_node_baseIPNS_11__hash_nodeINS_17__hash_value_typeI5PointbEEPvEEEENS_9allocatorIS7_EEEC1B7v160006ILb1EvEEv, symObjAddr: 0xC730, symBinAddr: 0x10000E420, symSize: 0x2C }
  - { offsetInCU: 0x312E5, offset: 0x312E5, size: 0x8, addend: 0x0, symName: __ZNSt3__117__compressed_pairImNS_22__unordered_map_hasherI5PointNS_17__hash_value_typeIS2_bEE11PointHasherNS_8equal_toIS2_EELb1EEEEC1B7v160006IiNS_18__default_init_tagEEEOT_OT0_, symObjAddr: 0xC75C, symBinAddr: 0x10000E44C, symSize: 0x3C }
  - { offsetInCU: 0x3133D, offset: 0x3133D, size: 0x8, addend: 0x0, symName: __ZNSt3__117__compressed_pairIfNS_21__unordered_map_equalI5PointNS_17__hash_value_typeIS2_bEENS_8equal_toIS2_EE11PointHasherLb1EEEEC1B7v160006IfNS_18__default_init_tagEEEOT_OT0_, symObjAddr: 0xC798, symBinAddr: 0x10000E488, symSize: 0x3C }
  - { offsetInCU: 0x31395, offset: 0x31395, size: 0x8, addend: 0x0, symName: __ZNSt3__110unique_ptrIA_PNS_16__hash_node_baseIPNS_11__hash_nodeINS_17__hash_value_typeI5PointbEEPvEEEENS_25__bucket_list_deallocatorINS_9allocatorISA_EEEEEC2B7v160006ILb1EvEEv, symObjAddr: 0xC7D4, symBinAddr: 0x10000E4C4, symSize: 0x3C }
  - { offsetInCU: 0x313CA, offset: 0x313CA, size: 0x8, addend: 0x0, symName: __ZNSt3__117__compressed_pairIPPNS_16__hash_node_baseIPNS_11__hash_nodeINS_17__hash_value_typeI5PointbEEPvEEEENS_25__bucket_list_deallocatorINS_9allocatorISA_EEEEEC1B7v160006INS_16__value_init_tagESI_EEOT_OT0_, symObjAddr: 0xC810, symBinAddr: 0x10000E500, symSize: 0x3C }
  - { offsetInCU: 0x31422, offset: 0x31422, size: 0x8, addend: 0x0, symName: __ZNSt3__117__compressed_pairIPPNS_16__hash_node_baseIPNS_11__hash_nodeINS_17__hash_value_typeI5PointbEEPvEEEENS_25__bucket_list_deallocatorINS_9allocatorISA_EEEEEC2B7v160006INS_16__value_init_tagESI_EEOT_OT0_, symObjAddr: 0xC84C, symBinAddr: 0x10000E53C, symSize: 0x40 }
  - { offsetInCU: 0x3147A, offset: 0x3147A, size: 0x8, addend: 0x0, symName: __ZNSt3__122__compressed_pair_elemIPPNS_16__hash_node_baseIPNS_11__hash_nodeINS_17__hash_value_typeI5PointbEEPvEEEELi0ELb0EEC2B7v160006ENS_16__value_init_tagE, symObjAddr: 0xC88C, symBinAddr: 0x10000E57C, symSize: 0x18 }
  - { offsetInCU: 0x314AE, offset: 0x314AE, size: 0x8, addend: 0x0, symName: __ZNSt3__122__compressed_pair_elemINS_25__bucket_list_deallocatorINS_9allocatorIPNS_16__hash_node_baseIPNS_11__hash_nodeINS_17__hash_value_typeI5PointbEEPvEEEEEEEELi1ELb0EEC2B7v160006ENS_16__value_init_tagE, symObjAddr: 0xC8A4, symBinAddr: 0x10000E594, symSize: 0x2C }
  - { offsetInCU: 0x314E2, offset: 0x314E2, size: 0x8, addend: 0x0, symName: __ZNSt3__125__bucket_list_deallocatorINS_9allocatorIPNS_16__hash_node_baseIPNS_11__hash_nodeINS_17__hash_value_typeI5PointbEEPvEEEEEEEC1B7v160006Ev, symObjAddr: 0xC8D0, symBinAddr: 0x10000E5C0, symSize: 0x2C }
  - { offsetInCU: 0x3150C, offset: 0x3150C, size: 0x8, addend: 0x0, symName: __ZNSt3__125__bucket_list_deallocatorINS_9allocatorIPNS_16__hash_node_baseIPNS_11__hash_nodeINS_17__hash_value_typeI5PointbEEPvEEEEEEEC2B7v160006Ev, symObjAddr: 0xC8FC, symBinAddr: 0x10000E5EC, symSize: 0x40 }
  - { offsetInCU: 0x31536, offset: 0x31536, size: 0x8, addend: 0x0, symName: __ZNSt3__117__compressed_pairImNS_9allocatorIPNS_16__hash_node_baseIPNS_11__hash_nodeINS_17__hash_value_typeI5PointbEEPvEEEEEEEC1B7v160006IiNS_18__default_init_tagEEEOT_OT0_, symObjAddr: 0xC93C, symBinAddr: 0x10000E62C, symSize: 0x3C }
  - { offsetInCU: 0x3158E, offset: 0x3158E, size: 0x8, addend: 0x0, symName: __ZNSt3__117__compressed_pairImNS_9allocatorIPNS_16__hash_node_baseIPNS_11__hash_nodeINS_17__hash_value_typeI5PointbEEPvEEEEEEEC2B7v160006IiNS_18__default_init_tagEEEOT_OT0_, symObjAddr: 0xC978, symBinAddr: 0x10000E668, symSize: 0x40 }
  - { offsetInCU: 0x315E6, offset: 0x315E6, size: 0x8, addend: 0x0, symName: __ZNSt3__122__compressed_pair_elemINS_9allocatorIPNS_16__hash_node_baseIPNS_11__hash_nodeINS_17__hash_value_typeI5PointbEEPvEEEEEELi1ELb1EEC2B7v160006ENS_18__default_init_tagE, symObjAddr: 0xC9B8, symBinAddr: 0x10000E6A8, symSize: 0x2C }
  - { offsetInCU: 0x3161A, offset: 0x3161A, size: 0x8, addend: 0x0, symName: __ZNSt3__19allocatorIPNS_16__hash_node_baseIPNS_11__hash_nodeINS_17__hash_value_typeI5PointbEEPvEEEEEC2B7v160006Ev, symObjAddr: 0xC9E4, symBinAddr: 0x10000E6D4, symSize: 0x2C }
  - { offsetInCU: 0x31644, offset: 0x31644, size: 0x8, addend: 0x0, symName: __ZNSt3__116__non_trivial_ifILb1ENS_9allocatorIPNS_16__hash_node_baseIPNS_11__hash_nodeINS_17__hash_value_typeI5PointbEEPvEEEEEEEC2B7v160006Ev, symObjAddr: 0xCA10, symBinAddr: 0x10000E700, symSize: 0x14 }
  - { offsetInCU: 0x3166E, offset: 0x3166E, size: 0x8, addend: 0x0, symName: __ZNSt3__117__compressed_pairINS_16__hash_node_baseIPNS_11__hash_nodeINS_17__hash_value_typeI5PointbEEPvEEEENS_9allocatorIS7_EEEC2B7v160006ILb1EvEEv, symObjAddr: 0xCA24, symBinAddr: 0x10000E714, symSize: 0x34 }
  - { offsetInCU: 0x316A3, offset: 0x316A3, size: 0x8, addend: 0x0, symName: __ZNSt3__122__compressed_pair_elemINS_16__hash_node_baseIPNS_11__hash_nodeINS_17__hash_value_typeI5PointbEEPvEEEELi0ELb0EEC2B7v160006ENS_16__value_init_tagE, symObjAddr: 0xCA58, symBinAddr: 0x10000E748, symSize: 0x2C }
  - { offsetInCU: 0x316D7, offset: 0x316D7, size: 0x8, addend: 0x0, symName: __ZNSt3__122__compressed_pair_elemINS_9allocatorINS_11__hash_nodeINS_17__hash_value_typeI5PointbEEPvEEEELi1ELb1EEC2B7v160006ENS_16__value_init_tagE, symObjAddr: 0xCA84, symBinAddr: 0x10000E774, symSize: 0x2C }
  - { offsetInCU: 0x3170B, offset: 0x3170B, size: 0x8, addend: 0x0, symName: __ZNSt3__116__hash_node_baseIPNS_11__hash_nodeINS_17__hash_value_typeI5PointbEEPvEEEC1B7v160006Ev, symObjAddr: 0xCAB0, symBinAddr: 0x10000E7A0, symSize: 0x2C }
  - { offsetInCU: 0x31735, offset: 0x31735, size: 0x8, addend: 0x0, symName: __ZNSt3__116__hash_node_baseIPNS_11__hash_nodeINS_17__hash_value_typeI5PointbEEPvEEEC2B7v160006Ev, symObjAddr: 0xCADC, symBinAddr: 0x10000E7CC, symSize: 0x18 }
  - { offsetInCU: 0x3175F, offset: 0x3175F, size: 0x8, addend: 0x0, symName: __ZNSt3__19allocatorINS_11__hash_nodeINS_17__hash_value_typeI5PointbEEPvEEEC2B7v160006Ev, symObjAddr: 0xCAF4, symBinAddr: 0x10000E7E4, symSize: 0x2C }
  - { offsetInCU: 0x31789, offset: 0x31789, size: 0x8, addend: 0x0, symName: __ZNSt3__116__non_trivial_ifILb1ENS_9allocatorINS_11__hash_nodeINS_17__hash_value_typeI5PointbEEPvEEEEEC2B7v160006Ev, symObjAddr: 0xCB20, symBinAddr: 0x10000E810, symSize: 0x14 }
  - { offsetInCU: 0x317B3, offset: 0x317B3, size: 0x8, addend: 0x0, symName: __ZNSt3__117__compressed_pairImNS_22__unordered_map_hasherI5PointNS_17__hash_value_typeIS2_bEE11PointHasherNS_8equal_toIS2_EELb1EEEEC2B7v160006IiNS_18__default_init_tagEEEOT_OT0_, symObjAddr: 0xCB34, symBinAddr: 0x10000E824, symSize: 0x40 }
  - { offsetInCU: 0x3180B, offset: 0x3180B, size: 0x8, addend: 0x0, symName: __ZNSt3__122__compressed_pair_elemINS_22__unordered_map_hasherI5PointNS_17__hash_value_typeIS2_bEE11PointHasherNS_8equal_toIS2_EELb1EEELi1ELb1EEC2B7v160006ENS_18__default_init_tagE, symObjAddr: 0xCB74, symBinAddr: 0x10000E864, symSize: 0x2C }
  - { offsetInCU: 0x3183F, offset: 0x3183F, size: 0x8, addend: 0x0, symName: __ZNSt3__122__unordered_map_hasherI5PointNS_17__hash_value_typeIS1_bEE11PointHasherNS_8equal_toIS1_EELb1EEC2B7v160006Ev, symObjAddr: 0xCBA0, symBinAddr: 0x10000E890, symSize: 0x14 }
  - { offsetInCU: 0x31869, offset: 0x31869, size: 0x8, addend: 0x0, symName: __ZNSt3__117__compressed_pairIfNS_21__unordered_map_equalI5PointNS_17__hash_value_typeIS2_bEENS_8equal_toIS2_EE11PointHasherLb1EEEEC2B7v160006IfNS_18__default_init_tagEEEOT_OT0_, symObjAddr: 0xCBB4, symBinAddr: 0x10000E8A4, symSize: 0x40 }
  - { offsetInCU: 0x318C1, offset: 0x318C1, size: 0x8, addend: 0x0, symName: __ZNSt3__122__compressed_pair_elemINS_21__unordered_map_equalI5PointNS_17__hash_value_typeIS2_bEENS_8equal_toIS2_EE11PointHasherLb1EEELi1ELb1EEC2B7v160006ENS_18__default_init_tagE, symObjAddr: 0xCBF4, symBinAddr: 0x10000E8E4, symSize: 0x2C }
  - { offsetInCU: 0x318F5, offset: 0x318F5, size: 0x8, addend: 0x0, symName: __ZNSt3__121__unordered_map_equalI5PointNS_17__hash_value_typeIS1_bEENS_8equal_toIS1_EE11PointHasherLb1EEC2B7v160006Ev, symObjAddr: 0xCC20, symBinAddr: 0x10000E910, symSize: 0x14 }
  - { offsetInCU: 0x3191F, offset: 0x3191F, size: 0x8, addend: 0x0, symName: __ZNSt3__15dequeI5PointNS_9allocatorIS1_EEE9push_backERKS1_, symObjAddr: 0xCC34, symBinAddr: 0x10000E924, symSize: 0xA0 }
  - { offsetInCU: 0x31965, offset: 0x31965, size: 0x8, addend: 0x0, symName: __ZNSt3__15dequeI5PointNS_9allocatorIS1_EEE7__allocB7v160006Ev, symObjAddr: 0xCCD4, symBinAddr: 0x10000E9C4, symSize: 0x28 }
  - { offsetInCU: 0x3198B, offset: 0x3198B, size: 0x8, addend: 0x0, symName: __ZNKSt3__15dequeI5PointNS_9allocatorIS1_EEE12__back_spareB7v160006Ev, symObjAddr: 0xCCFC, symBinAddr: 0x10000E9EC, symSize: 0x54 }
  - { offsetInCU: 0x319B1, offset: 0x319B1, size: 0x8, addend: 0x0, symName: __ZNSt3__15dequeI5PointNS_9allocatorIS1_EEE19__add_back_capacityEv, symObjAddr: 0xCD50, symBinAddr: 0x10000EA40, symSize: 0x314 }
  - { offsetInCU: 0x31A66, offset: 0x31A66, size: 0x8, addend: 0x0, symName: __ZNSt3__15dequeI5PointNS_9allocatorIS1_EEE3endB7v160006Ev, symObjAddr: 0xD064, symBinAddr: 0x10000ED54, symSize: 0xCC }
  - { offsetInCU: 0x31AAA, offset: 0x31AAA, size: 0x8, addend: 0x0, symName: __ZNKSt3__116__deque_iteratorI5PointPS1_RS1_PS2_lLl512EEdeB7v160006Ev, symObjAddr: 0xD130, symBinAddr: 0x10000EE20, symSize: 0x18 }
  - { offsetInCU: 0x31AD0, offset: 0x31AD0, size: 0x8, addend: 0x0, symName: __ZNSt3__15dequeI5PointNS_9allocatorIS1_EEE6__sizeB7v160006Ev, symObjAddr: 0xD148, symBinAddr: 0x10000EE38, symSize: 0x28 }
  - { offsetInCU: 0x31AF6, offset: 0x31AF6, size: 0x8, addend: 0x0, symName: __ZNSt3__117__compressed_pairImNS_9allocatorI5PointEEE6secondB7v160006Ev, symObjAddr: 0xD170, symBinAddr: 0x10000EE60, symSize: 0x24 }
  - { offsetInCU: 0x31B1C, offset: 0x31B1C, size: 0x8, addend: 0x0, symName: __ZNKSt3__15dequeI5PointNS_9allocatorIS1_EEE10__capacityB7v160006Ev, symObjAddr: 0xD194, symBinAddr: 0x10000EE84, symSize: 0x60 }
  - { offsetInCU: 0x31B42, offset: 0x31B42, size: 0x8, addend: 0x0, symName: __ZNKSt3__15dequeI5PointNS_9allocatorIS1_EEE4sizeB7v160006Ev, symObjAddr: 0xD1F4, symBinAddr: 0x10000EEE4, symSize: 0x28 }
  - { offsetInCU: 0x31B68, offset: 0x31B68, size: 0x8, addend: 0x0, symName: __ZNKSt3__114__split_bufferIP5PointNS_9allocatorIS2_EEE4sizeB7v160006Ev, symObjAddr: 0xD21C, symBinAddr: 0x10000EF0C, symSize: 0x28 }
  - { offsetInCU: 0x31B8E, offset: 0x31B8E, size: 0x8, addend: 0x0, symName: __ZNKSt3__15dequeI5PointNS_9allocatorIS1_EEE6__sizeB7v160006Ev, symObjAddr: 0xD244, symBinAddr: 0x10000EF34, symSize: 0x28 }
  - { offsetInCU: 0x31BB4, offset: 0x31BB4, size: 0x8, addend: 0x0, symName: __ZNKSt3__117__compressed_pairImNS_9allocatorI5PointEEE5firstB7v160006Ev, symObjAddr: 0xD26C, symBinAddr: 0x10000EF5C, symSize: 0x24 }
  - { offsetInCU: 0x31BDA, offset: 0x31BDA, size: 0x8, addend: 0x0, symName: __ZNKSt3__15dequeI5PointNS_9allocatorIS1_EEE13__front_spareB7v160006Ev, symObjAddr: 0xD290, symBinAddr: 0x10000EF80, symSize: 0x18 }
  - { offsetInCU: 0x31C00, offset: 0x31C00, size: 0x8, addend: 0x0, symName: __ZNSt3__114__split_bufferIP5PointNS_9allocatorIS2_EEE5frontB7v160006Ev, symObjAddr: 0xD2A8, symBinAddr: 0x10000EF98, symSize: 0x18 }
  - { offsetInCU: 0x31C26, offset: 0x31C26, size: 0x8, addend: 0x0, symName: __ZNSt3__114__split_bufferIP5PointNS_9allocatorIS2_EEE9pop_frontB7v160006Ev, symObjAddr: 0xD2C0, symBinAddr: 0x10000EFB0, symSize: 0x2C }
  - { offsetInCU: 0x31C4C, offset: 0x31C4C, size: 0x8, addend: 0x0, symName: __ZNSt3__114__split_bufferIP5PointNS_9allocatorIS2_EEE9push_backB7v160006ERKS2_, symObjAddr: 0xD2EC, symBinAddr: 0x10000EFDC, symSize: 0x260 }
  - { offsetInCU: 0x31CC4, offset: 0x31CC4, size: 0x8, addend: 0x0, symName: __ZNKSt3__114__split_bufferIP5PointNS_9allocatorIS2_EEE8capacityB7v160006Ev, symObjAddr: 0xD54C, symBinAddr: 0x10000F23C, symSize: 0x40 }
  - { offsetInCU: 0x31CEA, offset: 0x31CEA, size: 0x8, addend: 0x0, symName: __ZNKSt3__114__split_bufferIP5PointNS_9allocatorIS2_EEE12__back_spareB7v160006Ev, symObjAddr: 0xD58C, symBinAddr: 0x10000F27C, symSize: 0x40 }
  - { offsetInCU: 0x31D10, offset: 0x31D10, size: 0x8, addend: 0x0, symName: __ZNSt3__114__split_bufferIP5PointNS_9allocatorIS2_EEE9push_backEOS2_, symObjAddr: 0xD5CC, symBinAddr: 0x10000F2BC, symSize: 0x260 }
  - { offsetInCU: 0x31D88, offset: 0x31D88, size: 0x8, addend: 0x0, symName: __ZNSt3__116allocator_traitsINS_9allocatorI5PointEEE8allocateB7v160006ERS3_m, symObjAddr: 0xD82C, symBinAddr: 0x10000F51C, symSize: 0x2C }
  - { offsetInCU: 0x31DBB, offset: 0x31DBB, size: 0x8, addend: 0x0, symName: __ZNSt3__114__split_bufferIP5PointNS_9allocatorIS2_EEE10push_frontEOS2_, symObjAddr: 0xD858, symBinAddr: 0x10000F548, symSize: 0x25C }
  - { offsetInCU: 0x31E33, offset: 0x31E33, size: 0x8, addend: 0x0, symName: __ZNSt3__114__split_bufferIP5PointNS_9allocatorIS2_EEE7__allocB7v160006Ev, symObjAddr: 0xDAB4, symBinAddr: 0x10000F7A4, symSize: 0x28 }
  - { offsetInCU: 0x31E59, offset: 0x31E59, size: 0x8, addend: 0x0, symName: __ZNSt3__114__split_bufferIP5PointRNS_9allocatorIS2_EEEC1EmmS5_, symObjAddr: 0xDADC, symBinAddr: 0x10000F7CC, symSize: 0x44 }
  - { offsetInCU: 0x31EB4, offset: 0x31EB4, size: 0x8, addend: 0x0, symName: __ZNSt3__122__allocator_destructorINS_9allocatorI5PointEEEC1B7v160006ERS3_m, symObjAddr: 0xDB20, symBinAddr: 0x10000F810, symSize: 0x3C }
  - { offsetInCU: 0x31F65, offset: 0x31F65, size: 0x8, addend: 0x0, symName: __ZNSt3__110unique_ptrIP5PointNS_22__allocator_destructorINS_9allocatorIS1_EEEEEC1B7v160006ILb1EvEES2_NS_16__dependent_typeINS_27__unique_ptr_deleter_sfinaeIS6_EEXT_EE20__good_rval_ref_typeE, symObjAddr: 0xDB5C, symBinAddr: 0x10000F84C, symSize: 0x3C }
  - { offsetInCU: 0x31FB6, offset: 0x31FB6, size: 0x8, addend: 0x0, symName: __ZNSt3__114__split_bufferIP5PointRNS_9allocatorIS2_EEE9push_backEOS2_, symObjAddr: 0xDB98, symBinAddr: 0x10000F888, symSize: 0x260 }
  - { offsetInCU: 0x3202E, offset: 0x3202E, size: 0x8, addend: 0x0, symName: __ZNKSt3__110unique_ptrIP5PointNS_22__allocator_destructorINS_9allocatorIS1_EEEEE3getB7v160006Ev, symObjAddr: 0xDDF8, symBinAddr: 0x10000FAE8, symSize: 0x28 }
  - { offsetInCU: 0x32054, offset: 0x32054, size: 0x8, addend: 0x0, symName: __ZNSt3__110unique_ptrIP5PointNS_22__allocator_destructorINS_9allocatorIS1_EEEEE7releaseB7v160006Ev, symObjAddr: 0xDE20, symBinAddr: 0x10000FB10, symSize: 0x44 }
  - { offsetInCU: 0x32089, offset: 0x32089, size: 0x8, addend: 0x0, symName: __ZNSt3__114__split_bufferIP5PointNS_9allocatorIS2_EEE3endB7v160006Ev, symObjAddr: 0xDE64, symBinAddr: 0x10000FB54, symSize: 0x18 }
  - { offsetInCU: 0x320AF, offset: 0x320AF, size: 0x8, addend: 0x0, symName: __ZNSt3__114__split_bufferIP5PointNS_9allocatorIS2_EEE5beginB7v160006Ev, symObjAddr: 0xDE7C, symBinAddr: 0x10000FB6C, symSize: 0x18 }
  - { offsetInCU: 0x320D5, offset: 0x320D5, size: 0x8, addend: 0x0, symName: __ZNSt3__114__split_bufferIP5PointRNS_9allocatorIS2_EEE10push_frontERKS2_, symObjAddr: 0xDE94, symBinAddr: 0x10000FB84, symSize: 0x25C }
  - { offsetInCU: 0x3214D, offset: 0x3214D, size: 0x8, addend: 0x0, symName: __ZNSt3__114__split_bufferIP5PointNS_9allocatorIS2_EEE9__end_capB7v160006Ev, symObjAddr: 0xE12C, symBinAddr: 0x10000FE1C, symSize: 0x28 }
  - { offsetInCU: 0x32173, offset: 0x32173, size: 0x8, addend: 0x0, symName: __ZNSt3__114__split_bufferIP5PointRNS_9allocatorIS2_EEE9__end_capB7v160006Ev, symObjAddr: 0xE154, symBinAddr: 0x10000FE44, symSize: 0x28 }
  - { offsetInCU: 0x32199, offset: 0x32199, size: 0x8, addend: 0x0, symName: __ZNSt3__110unique_ptrIP5PointNS_22__allocator_destructorINS_9allocatorIS1_EEEEED1B7v160006Ev, symObjAddr: 0xE17C, symBinAddr: 0x10000FE6C, symSize: 0x2C }
  - { offsetInCU: 0x321C3, offset: 0x321C3, size: 0x8, addend: 0x0, symName: __ZNSt3__114__split_bufferIP5PointRNS_9allocatorIS2_EEED1Ev, symObjAddr: 0xE1A8, symBinAddr: 0x10000FE98, symSize: 0x2C }
  - { offsetInCU: 0x321EF, offset: 0x321EF, size: 0x8, addend: 0x0, symName: __ZNSt3__114__split_bufferIP5PointNS_9allocatorIS2_EEE19__destruct_at_beginB7v160006EPS2_, symObjAddr: 0xE1D4, symBinAddr: 0x10000FEC4, symSize: 0x2C }
  - { offsetInCU: 0x32223, offset: 0x32223, size: 0x8, addend: 0x0, symName: __ZNSt3__114__split_bufferIP5PointNS_9allocatorIS2_EEE19__destruct_at_beginEPS2_NS_17integral_constantIbLb1EEE, symObjAddr: 0xE200, symBinAddr: 0x10000FEF0, symSize: 0x20 }
  - { offsetInCU: 0x32263, offset: 0x32263, size: 0x8, addend: 0x0, symName: __ZNSt3__114__split_bufferIP5PointRNS_9allocatorIS2_EEE18__construct_at_endINS_13move_iteratorIPS2_EEEENS_9enable_ifIXsr27__is_cpp17_forward_iteratorIT_EE5valueEvE4typeESC_SC_, symObjAddr: 0xE260, symBinAddr: 0x10000FF50, symSize: 0xFC }
  - { offsetInCU: 0x322BF, offset: 0x322BF, size: 0x8, addend: 0x0, symName: __ZNSt3__113move_iteratorIPP5PointEC1B7v160006ES3_, symObjAddr: 0xE35C, symBinAddr: 0x10001004C, symSize: 0x34 }
  - { offsetInCU: 0x322F7, offset: 0x322F7, size: 0x8, addend: 0x0, symName: __ZNSt3__116allocator_traitsINS_9allocatorIP5PointEEE9constructB7v160006IS3_JRKS3_EvEEvRS4_PT_DpOT0_, symObjAddr: 0xE390, symBinAddr: 0x100010080, symSize: 0x34 }
  - { offsetInCU: 0x32368, offset: 0x32368, size: 0x8, addend: 0x0, symName: __ZNKSt3__114__move_trivialclB7v160006IP5PointS3_Li0EEENS_4pairIPT_PT0_EES6_S6_S8_, symObjAddr: 0xE574, symBinAddr: 0x100010264, symSize: 0x48 }
  - { offsetInCU: 0x323D6, offset: 0x323D6, size: 0x8, addend: 0x0, symName: __ZNSt3__14pairIPP5PointS3_EC1B7v160006IRS3_S3_LPv0EEEOT_OT0_, symObjAddr: 0xE73C, symBinAddr: 0x10001042C, symSize: 0x3C }
  - { offsetInCU: 0x32434, offset: 0x32434, size: 0x8, addend: 0x0, symName: __ZNSt3__14pairIPP5PointS3_EC2B7v160006IRS3_S3_LPv0EEEOT_OT0_, symObjAddr: 0xE778, symBinAddr: 0x100010468, symSize: 0x34 }
  - { offsetInCU: 0x32492, offset: 0x32492, size: 0x8, addend: 0x0, symName: __ZNSt3__118__unwrap_iter_implIPP5PointLb1EE8__unwrapB7v160006ES3_, symObjAddr: 0xE7AC, symBinAddr: 0x10001049C, symSize: 0x24 }
  - { offsetInCU: 0x324B5, offset: 0x324B5, size: 0x8, addend: 0x0, symName: __ZNSt3__14pairIPP5PointS3_EC1B7v160006IS3_S3_LPv0EEEOT_OT0_, symObjAddr: 0xE7D0, symBinAddr: 0x1000104C0, symSize: 0x3C }
  - { offsetInCU: 0x32513, offset: 0x32513, size: 0x8, addend: 0x0, symName: __ZNSt3__14pairIPP5PointS3_EC2B7v160006IS3_S3_LPv0EEEOT_OT0_, symObjAddr: 0xE80C, symBinAddr: 0x1000104FC, symSize: 0x34 }
  - { offsetInCU: 0x32571, offset: 0x32571, size: 0x8, addend: 0x0, symName: __ZNSt3__118__unwrap_iter_implIPP5PointLb1EE8__rewrapB7v160006ES3_S3_, symObjAddr: 0xE840, symBinAddr: 0x100010530, symSize: 0x50 }
  - { offsetInCU: 0x325AC, offset: 0x325AC, size: 0x8, addend: 0x0, symName: __ZNSt3__114__split_bufferIP5PointRNS_9allocatorIS2_EEE21_ConstructTransactionC1B7v160006EPPS2_m, symObjAddr: 0xE8CC, symBinAddr: 0x1000105BC, symSize: 0x3C }
  - { offsetInCU: 0x325F2, offset: 0x325F2, size: 0x8, addend: 0x0, symName: __ZNSt3__116allocator_traitsINS_9allocatorIP5PointEEE9constructB7v160006IS3_JS3_EvEEvRS4_PT_DpOT0_, symObjAddr: 0xE908, symBinAddr: 0x1000105F8, symSize: 0x34 }
  - { offsetInCU: 0x32649, offset: 0x32649, size: 0x8, addend: 0x0, symName: __ZNSt3__114__split_bufferIP5PointRNS_9allocatorIS2_EEE7__allocB7v160006Ev, symObjAddr: 0xE93C, symBinAddr: 0x10001062C, symSize: 0x28 }
  - { offsetInCU: 0x3266F, offset: 0x3266F, size: 0x8, addend: 0x0, symName: __ZNKSt3__113move_iteratorIPP5PointEdeB7v160006Ev, symObjAddr: 0xE964, symBinAddr: 0x100010654, symSize: 0x18 }
  - { offsetInCU: 0x32695, offset: 0x32695, size: 0x8, addend: 0x0, symName: __ZNSt3__113move_iteratorIPP5PointEppB7v160006Ev, symObjAddr: 0xE97C, symBinAddr: 0x10001066C, symSize: 0x20 }
  - { offsetInCU: 0x326BB, offset: 0x326BB, size: 0x8, addend: 0x0, symName: __ZNSt3__114__split_bufferIP5PointRNS_9allocatorIS2_EEE21_ConstructTransactionD1B7v160006Ev, symObjAddr: 0xE99C, symBinAddr: 0x10001068C, symSize: 0x2C }
  - { offsetInCU: 0x326E5, offset: 0x326E5, size: 0x8, addend: 0x0, symName: __ZNKSt3__113move_iteratorIPP5PointE4baseB7v160006Ev, symObjAddr: 0xEA40, symBinAddr: 0x100010730, symSize: 0x18 }
  - { offsetInCU: 0x3270B, offset: 0x3270B, size: 0x8, addend: 0x0, symName: __ZNSt3__114__split_bufferIP5PointRNS_9allocatorIS2_EEE21_ConstructTransactionC2B7v160006EPPS2_m, symObjAddr: 0xEA58, symBinAddr: 0x100010748, symSize: 0x44 }
  - { offsetInCU: 0x32751, offset: 0x32751, size: 0x8, addend: 0x0, symName: __ZNSt3__19allocatorIP5PointE9constructB7v160006IS2_JS2_EEEvPT_DpOT0_, symObjAddr: 0xEA9C, symBinAddr: 0x10001078C, symSize: 0x28 }
  - { offsetInCU: 0x327A7, offset: 0x327A7, size: 0x8, addend: 0x0, symName: __ZNSt3__117__compressed_pairIPP5PointRNS_9allocatorIS2_EEE6secondB7v160006Ev, symObjAddr: 0xEAC4, symBinAddr: 0x1000107B4, symSize: 0x28 }
  - { offsetInCU: 0x327CD, offset: 0x327CD, size: 0x8, addend: 0x0, symName: __ZNSt3__122__compressed_pair_elemIRNS_9allocatorIP5PointEELi1ELb0EE5__getB7v160006Ev, symObjAddr: 0xEAEC, symBinAddr: 0x1000107DC, symSize: 0x18 }
  - { offsetInCU: 0x327F3, offset: 0x327F3, size: 0x8, addend: 0x0, symName: __ZNSt3__114__split_bufferIP5PointRNS_9allocatorIS2_EEE21_ConstructTransactionD2B7v160006Ev, symObjAddr: 0xEB04, symBinAddr: 0x1000107F4, symSize: 0x20 }
  - { offsetInCU: 0x3281D, offset: 0x3281D, size: 0x8, addend: 0x0, symName: __ZNSt3__113move_iteratorIPP5PointEC2B7v160006ES3_, symObjAddr: 0xEB24, symBinAddr: 0x100010814, symSize: 0x20 }
  - { offsetInCU: 0x32855, offset: 0x32855, size: 0x8, addend: 0x0, symName: __ZNSt3__19allocatorIP5PointE9constructB7v160006IS2_JRKS2_EEEvPT_DpOT0_, symObjAddr: 0xEB44, symBinAddr: 0x100010834, symSize: 0x28 }
  - { offsetInCU: 0x328AB, offset: 0x328AB, size: 0x8, addend: 0x0, symName: __ZNKSt3__114__split_bufferIP5PointNS_9allocatorIS2_EEE9__end_capB7v160006Ev, symObjAddr: 0xEB6C, symBinAddr: 0x10001085C, symSize: 0x28 }
  - { offsetInCU: 0x328D1, offset: 0x328D1, size: 0x8, addend: 0x0, symName: __ZNKSt3__117__compressed_pairIPP5PointNS_9allocatorIS2_EEE5firstB7v160006Ev, symObjAddr: 0xEB94, symBinAddr: 0x100010884, symSize: 0x24 }
  - { offsetInCU: 0x328F7, offset: 0x328F7, size: 0x8, addend: 0x0, symName: __ZNKSt3__122__compressed_pair_elemIPP5PointLi0ELb0EE5__getB7v160006Ev, symObjAddr: 0xEBB8, symBinAddr: 0x1000108A8, symSize: 0x14 }
  - { offsetInCU: 0x32927, offset: 0x32927, size: 0x8, addend: 0x0, symName: __ZNKSt3__123__move_backward_trivialclB7v160006IP5PointS3_Li0EEENS_4pairIPT_PT0_EES6_S6_S8_, symObjAddr: 0xED48, symBinAddr: 0x100010A38, symSize: 0x48 }
  - { offsetInCU: 0x3298F, offset: 0x3298F, size: 0x8, addend: 0x0, symName: __ZNSt3__14pairIPP5PointS3_EC1B7v160006IRS3_S6_LPv0EEEOT_OT0_, symObjAddr: 0xEE5C, symBinAddr: 0x100010B4C, symSize: 0x3C }
  - { offsetInCU: 0x329ED, offset: 0x329ED, size: 0x8, addend: 0x0, symName: __ZNSt3__14pairIPP5PointS3_EC2B7v160006IRS3_S6_LPv0EEEOT_OT0_, symObjAddr: 0xEE98, symBinAddr: 0x100010B88, symSize: 0x34 }
  - { offsetInCU: 0x32A4B, offset: 0x32A4B, size: 0x8, addend: 0x0, symName: __ZNSt3__117__compressed_pairIPP5PointNS_9allocatorIS2_EEE6secondB7v160006Ev, symObjAddr: 0xEECC, symBinAddr: 0x100010BBC, symSize: 0x24 }
  - { offsetInCU: 0x32A71, offset: 0x32A71, size: 0x8, addend: 0x0, symName: __ZNSt3__122__compressed_pair_elemINS_9allocatorIP5PointEELi1ELb1EE5__getB7v160006Ev, symObjAddr: 0xEEF0, symBinAddr: 0x100010BE0, symSize: 0x14 }
  - { offsetInCU: 0x32A97, offset: 0x32A97, size: 0x8, addend: 0x0, symName: __ZNSt3__114__split_bufferIP5PointRNS_9allocatorIS2_EEEC2EmmS5_, symObjAddr: 0xEF04, symBinAddr: 0x100010BF4, symSize: 0xD4 }
  - { offsetInCU: 0x32B0A, offset: 0x32B0A, size: 0x8, addend: 0x0, symName: __ZNSt3__117__compressed_pairIPP5PointRNS_9allocatorIS2_EEEC1B7v160006IDnS6_EEOT_OT0_, symObjAddr: 0xEFD8, symBinAddr: 0x100010CC8, symSize: 0x3C }
  - { offsetInCU: 0x32B62, offset: 0x32B62, size: 0x8, addend: 0x0, symName: __ZNSt3__117__compressed_pairIPP5PointRNS_9allocatorIS2_EEEC2B7v160006IDnS6_EEOT_OT0_, symObjAddr: 0xF054, symBinAddr: 0x100010D44, symSize: 0x48 }
  - { offsetInCU: 0x32BBA, offset: 0x32BBA, size: 0x8, addend: 0x0, symName: __ZNSt3__122__compressed_pair_elemIRNS_9allocatorIP5PointEELi1ELb0EEC2B7v160006IS5_vEEOT_, symObjAddr: 0xF09C, symBinAddr: 0x100010D8C, symSize: 0x20 }
  - { offsetInCU: 0x32BFC, offset: 0x32BFC, size: 0x8, addend: 0x0, symName: __ZNSt3__19allocatorIP5PointE8allocateB7v160006Em, symObjAddr: 0xF0BC, symBinAddr: 0x100010DAC, symSize: 0x58 }
  - { offsetInCU: 0x32C3A, offset: 0x32C3A, size: 0x8, addend: 0x0, symName: __ZNSt3__116allocator_traitsINS_9allocatorIP5PointEEE8max_sizeB7v160006IS4_vEEmRKS4_, symObjAddr: 0xF114, symBinAddr: 0x100010E04, symSize: 0x24 }
  - { offsetInCU: 0x32C68, offset: 0x32C68, size: 0x8, addend: 0x0, symName: __ZNKSt3__19allocatorIP5PointE8max_sizeB7v160006Ev, symObjAddr: 0xF138, symBinAddr: 0x100010E28, symSize: 0x14 }
  - { offsetInCU: 0x32C8E, offset: 0x32C8E, size: 0x8, addend: 0x0, symName: __ZNSt3__122__allocator_destructorINS_9allocatorI5PointEEEC2B7v160006ERS3_m, symObjAddr: 0xF14C, symBinAddr: 0x100010E3C, symSize: 0x2C }
  - { offsetInCU: 0x32CD4, offset: 0x32CD4, size: 0x8, addend: 0x0, symName: __ZNSt3__110unique_ptrIP5PointNS_22__allocator_destructorINS_9allocatorIS1_EEEEEC2B7v160006ILb1EvEES2_NS_16__dependent_typeINS_27__unique_ptr_deleter_sfinaeIS6_EEXT_EE20__good_rval_ref_typeE, symObjAddr: 0xF178, symBinAddr: 0x100010E68, symSize: 0x48 }
  - { offsetInCU: 0x32D25, offset: 0x32D25, size: 0x8, addend: 0x0, symName: __ZNSt3__117__compressed_pairIP5PointNS_22__allocator_destructorINS_9allocatorIS1_EEEEEC1B7v160006IRS2_S6_EEOT_OT0_, symObjAddr: 0xF1C0, symBinAddr: 0x100010EB0, symSize: 0x3C }
  - { offsetInCU: 0x32D7D, offset: 0x32D7D, size: 0x8, addend: 0x0, symName: __ZNSt3__117__compressed_pairIP5PointNS_22__allocator_destructorINS_9allocatorIS1_EEEEEC2B7v160006IRS2_S6_EEOT_OT0_, symObjAddr: 0xF1FC, symBinAddr: 0x100010EEC, symSize: 0x48 }
  - { offsetInCU: 0x32DD5, offset: 0x32DD5, size: 0x8, addend: 0x0, symName: __ZNSt3__122__compressed_pair_elemIP5PointLi0ELb0EEC2B7v160006IRS2_vEEOT_, symObjAddr: 0xF244, symBinAddr: 0x100010F34, symSize: 0x24 }
  - { offsetInCU: 0x32E17, offset: 0x32E17, size: 0x8, addend: 0x0, symName: __ZNSt3__122__compressed_pair_elemINS_22__allocator_destructorINS_9allocatorI5PointEEEELi1ELb0EEC2B7v160006IS5_vEEOT_, symObjAddr: 0xF268, symBinAddr: 0x100010F58, symSize: 0x24 }
  - { offsetInCU: 0x32E59, offset: 0x32E59, size: 0x8, addend: 0x0, symName: __ZNKSt3__117__compressed_pairIP5PointNS_22__allocator_destructorINS_9allocatorIS1_EEEEE5firstB7v160006Ev, symObjAddr: 0xF28C, symBinAddr: 0x100010F7C, symSize: 0x24 }
  - { offsetInCU: 0x32E7F, offset: 0x32E7F, size: 0x8, addend: 0x0, symName: __ZNSt3__117__compressed_pairIP5PointNS_22__allocator_destructorINS_9allocatorIS1_EEEEE5firstB7v160006Ev, symObjAddr: 0xF2B0, symBinAddr: 0x100010FA0, symSize: 0x24 }
  - { offsetInCU: 0x32EA5, offset: 0x32EA5, size: 0x8, addend: 0x0, symName: __ZNSt3__117__compressed_pairIPP5PointNS_9allocatorIS2_EEE5firstB7v160006Ev, symObjAddr: 0xF2D4, symBinAddr: 0x100010FC4, symSize: 0x24 }
  - { offsetInCU: 0x32ECB, offset: 0x32ECB, size: 0x8, addend: 0x0, symName: __ZNSt3__122__compressed_pair_elemIPP5PointLi0ELb0EE5__getB7v160006Ev, symObjAddr: 0xF2F8, symBinAddr: 0x100010FE8, symSize: 0x14 }
  - { offsetInCU: 0x32EF1, offset: 0x32EF1, size: 0x8, addend: 0x0, symName: __ZNSt3__117__compressed_pairIPP5PointRNS_9allocatorIS2_EEE5firstB7v160006Ev, symObjAddr: 0xF30C, symBinAddr: 0x100010FFC, symSize: 0x24 }
  - { offsetInCU: 0x32F17, offset: 0x32F17, size: 0x8, addend: 0x0, symName: __ZNSt3__110unique_ptrIP5PointNS_22__allocator_destructorINS_9allocatorIS1_EEEEED2B7v160006Ev, symObjAddr: 0xF330, symBinAddr: 0x100011020, symSize: 0x30 }
  - { offsetInCU: 0x32F41, offset: 0x32F41, size: 0x8, addend: 0x0, symName: __ZNSt3__110unique_ptrIP5PointNS_22__allocator_destructorINS_9allocatorIS1_EEEEE5resetB7v160006ES2_, symObjAddr: 0xF360, symBinAddr: 0x100011050, symSize: 0x78 }
  - { offsetInCU: 0x32F85, offset: 0x32F85, size: 0x8, addend: 0x0, symName: __ZNSt3__117__compressed_pairIP5PointNS_22__allocator_destructorINS_9allocatorIS1_EEEEE6secondB7v160006Ev, symObjAddr: 0xF3D8, symBinAddr: 0x1000110C8, symSize: 0x28 }
  - { offsetInCU: 0x32FAB, offset: 0x32FAB, size: 0x8, addend: 0x0, symName: __ZNSt3__122__allocator_destructorINS_9allocatorI5PointEEEclB7v160006EPS2_, symObjAddr: 0xF400, symBinAddr: 0x1000110F0, symSize: 0x34 }
  - { offsetInCU: 0x32FDF, offset: 0x32FDF, size: 0x8, addend: 0x0, symName: __ZNSt3__122__compressed_pair_elemINS_22__allocator_destructorINS_9allocatorI5PointEEEELi1ELb0EE5__getB7v160006Ev, symObjAddr: 0xF434, symBinAddr: 0x100011124, symSize: 0x14 }
  - { offsetInCU: 0x33005, offset: 0x33005, size: 0x8, addend: 0x0, symName: __ZNSt3__114__split_bufferIP5PointRNS_9allocatorIS2_EEED2Ev, symObjAddr: 0xF448, symBinAddr: 0x100011138, symSize: 0x8C }
  - { offsetInCU: 0x33031, offset: 0x33031, size: 0x8, addend: 0x0, symName: __ZNSt3__114__split_bufferIP5PointRNS_9allocatorIS2_EEE5clearB7v160006Ev, symObjAddr: 0xF4D4, symBinAddr: 0x1000111C4, symSize: 0x28 }
  - { offsetInCU: 0x33057, offset: 0x33057, size: 0x8, addend: 0x0, symName: __ZNSt3__116allocator_traitsINS_9allocatorIP5PointEEE10deallocateB7v160006ERS4_PS3_m, symObjAddr: 0xF4FC, symBinAddr: 0x1000111EC, symSize: 0x34 }
  - { offsetInCU: 0x33099, offset: 0x33099, size: 0x8, addend: 0x0, symName: __ZNKSt3__114__split_bufferIP5PointRNS_9allocatorIS2_EEE8capacityB7v160006Ev, symObjAddr: 0xF530, symBinAddr: 0x100011220, symSize: 0x40 }
  - { offsetInCU: 0x330BF, offset: 0x330BF, size: 0x8, addend: 0x0, symName: __ZNSt3__114__split_bufferIP5PointRNS_9allocatorIS2_EEE17__destruct_at_endB7v160006EPS2_, symObjAddr: 0xF570, symBinAddr: 0x100011260, symSize: 0x2C }
  - { offsetInCU: 0x330F3, offset: 0x330F3, size: 0x8, addend: 0x0, symName: __ZNSt3__114__split_bufferIP5PointRNS_9allocatorIS2_EEE17__destruct_at_endB7v160006EPS2_NS_17integral_constantIbLb0EEE, symObjAddr: 0xF59C, symBinAddr: 0x10001128C, symSize: 0x80 }
  - { offsetInCU: 0x33133, offset: 0x33133, size: 0x8, addend: 0x0, symName: __ZNSt3__116allocator_traitsINS_9allocatorIP5PointEEE7destroyB7v160006IS3_vEEvRS4_PT_, symObjAddr: 0xF61C, symBinAddr: 0x10001130C, symSize: 0x2C }
  - { offsetInCU: 0x33170, offset: 0x33170, size: 0x8, addend: 0x0, symName: __ZNSt3__19allocatorIP5PointE7destroyB7v160006EPS2_, symObjAddr: 0xF648, symBinAddr: 0x100011338, symSize: 0x14 }
  - { offsetInCU: 0x331A4, offset: 0x331A4, size: 0x8, addend: 0x0, symName: __ZNSt3__19allocatorIP5PointE10deallocateB7v160006EPS2_m, symObjAddr: 0xF65C, symBinAddr: 0x10001134C, symSize: 0x40 }
  - { offsetInCU: 0x331E6, offset: 0x331E6, size: 0x8, addend: 0x0, symName: __ZNKSt3__114__split_bufferIP5PointRNS_9allocatorIS2_EEE9__end_capB7v160006Ev, symObjAddr: 0xF69C, symBinAddr: 0x10001138C, symSize: 0x28 }
  - { offsetInCU: 0x3320C, offset: 0x3320C, size: 0x8, addend: 0x0, symName: __ZNKSt3__117__compressed_pairIPP5PointRNS_9allocatorIS2_EEE5firstB7v160006Ev, symObjAddr: 0xF6C4, symBinAddr: 0x1000113B4, symSize: 0x24 }
  - { offsetInCU: 0x33232, offset: 0x33232, size: 0x8, addend: 0x0, symName: __ZNKSt3__114__split_bufferIP5PointNS_9allocatorIS2_EEE5emptyB7v160006Ev, symObjAddr: 0xF6E8, symBinAddr: 0x1000113D8, symSize: 0x28 }
  - { offsetInCU: 0x33258, offset: 0x33258, size: 0x8, addend: 0x0, symName: __ZNSt3__116__deque_iteratorI5PointPS1_RS1_PS2_lLl512EEC1B7v160006ES4_S2_, symObjAddr: 0xF710, symBinAddr: 0x100011400, symSize: 0x3C }
  - { offsetInCU: 0x332A0, offset: 0x332A0, size: 0x8, addend: 0x0, symName: __ZNSt3__116__deque_iteratorI5PointPS1_RS1_PS2_lLl512EEC2B7v160006ES4_S2_, symObjAddr: 0xF74C, symBinAddr: 0x10001143C, symSize: 0x2C }
  - { offsetInCU: 0x332E8, offset: 0x332E8, size: 0x8, addend: 0x0, symName: __ZNSt3__117__compressed_pairImNS_9allocatorI5PointEEE5firstB7v160006Ev, symObjAddr: 0xF778, symBinAddr: 0x100011468, symSize: 0x24 }
  - { offsetInCU: 0x3330E, offset: 0x3330E, size: 0x8, addend: 0x0, symName: __ZNSt3__112__hash_tableINS_17__hash_value_typeI5PointbEENS_22__unordered_map_hasherIS2_S3_11PointHasherNS_8equal_toIS2_EELb1EEENS_21__unordered_map_equalIS2_S3_S7_S5_Lb1EEENS_9allocatorIS3_EEE25__emplace_unique_key_argsIS2_JRKNS_21piecewise_construct_tENS_5tupleIJRKS2_EEENSI_IJEEEEEENS_4pairINS_15__hash_iteratorIPNS_11__hash_nodeIS3_PvEEEEbEERKT_DpOT0_, symObjAddr: 0xF79C, symBinAddr: 0x10001148C, symSize: 0x4B4 }
  - { offsetInCU: 0x33418, offset: 0x33418, size: 0x8, addend: 0x0, symName: __ZNKSt3__115__hash_iteratorIPNS_11__hash_nodeINS_17__hash_value_typeI5PointbEEPvEEEptB7v160006Ev, symObjAddr: 0xFC50, symBinAddr: 0x100011940, symSize: 0x30 }
  - { offsetInCU: 0x3343E, offset: 0x3343E, size: 0x8, addend: 0x0, symName: __ZNSt3__117__hash_value_typeI5PointbE11__get_valueB7v160006Ev, symObjAddr: 0xFC80, symBinAddr: 0x100011970, symSize: 0x14 }
  - { offsetInCU: 0x33464, offset: 0x33464, size: 0x8, addend: 0x0, symName: __ZNSt3__112__hash_tableINS_17__hash_value_typeI5PointbEENS_22__unordered_map_hasherIS2_S3_11PointHasherNS_8equal_toIS2_EELb1EEENS_21__unordered_map_equalIS2_S3_S7_S5_Lb1EEENS_9allocatorIS3_EEE13hash_functionB7v160006Ev, symObjAddr: 0xFC94, symBinAddr: 0x100011984, symSize: 0x28 }
  - { offsetInCU: 0x3348A, offset: 0x3348A, size: 0x8, addend: 0x0, symName: __ZNKSt3__122__unordered_map_hasherI5PointNS_17__hash_value_typeIS1_bEE11PointHasherNS_8equal_toIS1_EELb1EEclB7v160006ERKS1_, symObjAddr: 0xFCBC, symBinAddr: 0x1000119AC, symSize: 0x2C }
  - { offsetInCU: 0x334BF, offset: 0x334BF, size: 0x8, addend: 0x0, symName: __ZNKSt3__112__hash_tableINS_17__hash_value_typeI5PointbEENS_22__unordered_map_hasherIS2_S3_11PointHasherNS_8equal_toIS2_EELb1EEENS_21__unordered_map_equalIS2_S3_S7_S5_Lb1EEENS_9allocatorIS3_EEE12bucket_countB7v160006Ev, symObjAddr: 0xFCE8, symBinAddr: 0x1000119D8, symSize: 0x28 }
  - { offsetInCU: 0x334E5, offset: 0x334E5, size: 0x8, addend: 0x0, symName: __ZNKSt3__110unique_ptrIA_PNS_16__hash_node_baseIPNS_11__hash_nodeINS_17__hash_value_typeI5PointbEEPvEEEENS_25__bucket_list_deallocatorINS_9allocatorISA_EEEEEixB7v160006Em, symObjAddr: 0xFD10, symBinAddr: 0x100011A00, symSize: 0x34 }
  - { offsetInCU: 0x3351A, offset: 0x3351A, size: 0x8, addend: 0x0, symName: __ZNKSt3__116__hash_node_baseIPNS_11__hash_nodeINS_17__hash_value_typeI5PointbEEPvEEE6__hashB7v160006Ev, symObjAddr: 0xFD44, symBinAddr: 0x100011A34, symSize: 0x18 }
  - { offsetInCU: 0x33540, offset: 0x33540, size: 0x8, addend: 0x0, symName: __ZNSt3__112__hash_tableINS_17__hash_value_typeI5PointbEENS_22__unordered_map_hasherIS2_S3_11PointHasherNS_8equal_toIS2_EELb1EEENS_21__unordered_map_equalIS2_S3_S7_S5_Lb1EEENS_9allocatorIS3_EEE6key_eqB7v160006Ev, symObjAddr: 0xFD5C, symBinAddr: 0x100011A4C, symSize: 0x28 }
  - { offsetInCU: 0x33566, offset: 0x33566, size: 0x8, addend: 0x0, symName: __ZNKSt3__121__unordered_map_equalI5PointNS_17__hash_value_typeIS1_bEENS_8equal_toIS1_EE11PointHasherLb1EEclB7v160006ERKS3_RKS1_, symObjAddr: 0xFD84, symBinAddr: 0x100011A74, symSize: 0x48 }
  - { offsetInCU: 0x335AA, offset: 0x335AA, size: 0x8, addend: 0x0, symName: __ZNSt3__116__hash_node_baseIPNS_11__hash_nodeINS_17__hash_value_typeI5PointbEEPvEEE8__upcastB7v160006Ev, symObjAddr: 0xFDCC, symBinAddr: 0x100011ABC, symSize: 0x24 }
  - { offsetInCU: 0x335D0, offset: 0x335D0, size: 0x8, addend: 0x0, symName: __ZNSt3__112__hash_tableINS_17__hash_value_typeI5PointbEENS_22__unordered_map_hasherIS2_S3_11PointHasherNS_8equal_toIS2_EELb1EEENS_21__unordered_map_equalIS2_S3_S7_S5_Lb1EEENS_9allocatorIS3_EEE21__construct_node_hashIRKNS_21piecewise_construct_tEJNS_5tupleIJRKS2_EEENSI_IJEEEEEENS_10unique_ptrINS_11__hash_nodeIS3_PvEENS_22__hash_node_destructorINSB_ISQ_EEEEEEmOT_DpOT0_, symObjAddr: 0xFDF0, symBinAddr: 0x100011AE0, symSize: 0x150 }
  - { offsetInCU: 0x3366C, offset: 0x3366C, size: 0x8, addend: 0x0, symName: __ZNSt3__112__hash_tableINS_17__hash_value_typeI5PointbEENS_22__unordered_map_hasherIS2_S3_11PointHasherNS_8equal_toIS2_EELb1EEENS_21__unordered_map_equalIS2_S3_S7_S5_Lb1EEENS_9allocatorIS3_EEE4sizeB7v160006Ev, symObjAddr: 0xFF40, symBinAddr: 0x100011C30, symSize: 0x28 }
  - { offsetInCU: 0x33692, offset: 0x33692, size: 0x8, addend: 0x0, symName: __ZNSt3__112__hash_tableINS_17__hash_value_typeI5PointbEENS_22__unordered_map_hasherIS2_S3_11PointHasherNS_8equal_toIS2_EELb1EEENS_21__unordered_map_equalIS2_S3_S7_S5_Lb1EEENS_9allocatorIS3_EEE15max_load_factorB7v160006Ev, symObjAddr: 0xFF68, symBinAddr: 0x100011C58, symSize: 0x28 }
  - { offsetInCU: 0x336B8, offset: 0x336B8, size: 0x8, addend: 0x0, symName: __ZNSt3__112__hash_tableINS_17__hash_value_typeI5PointbEENS_22__unordered_map_hasherIS2_S3_11PointHasherNS_8equal_toIS2_EELb1EEENS_21__unordered_map_equalIS2_S3_S7_S5_Lb1EEENS_9allocatorIS3_EEE15__rehash_uniqueB7v160006Em, symObjAddr: 0xFF90, symBinAddr: 0x100011C80, symSize: 0x2C }
  - { offsetInCU: 0x336ED, offset: 0x336ED, size: 0x8, addend: 0x0, symName: __ZNSt3__117__compressed_pairINS_16__hash_node_baseIPNS_11__hash_nodeINS_17__hash_value_typeI5PointbEEPvEEEENS_9allocatorIS7_EEE5firstB7v160006Ev, symObjAddr: 0xFFBC, symBinAddr: 0x100011CAC, symSize: 0x24 }
  - { offsetInCU: 0x33713, offset: 0x33713, size: 0x8, addend: 0x0, symName: __ZNSt3__116__hash_node_baseIPNS_11__hash_nodeINS_17__hash_value_typeI5PointbEEPvEEE5__ptrB7v160006Ev, symObjAddr: 0xFFE0, symBinAddr: 0x100011CD0, symSize: 0x24 }
  - { offsetInCU: 0x33739, offset: 0x33739, size: 0x8, addend: 0x0, symName: __ZNKSt3__110unique_ptrINS_11__hash_nodeINS_17__hash_value_typeI5PointbEEPvEENS_22__hash_node_destructorINS_9allocatorIS6_EEEEEptB7v160006Ev, symObjAddr: 0x10004, symBinAddr: 0x100011CF4, symSize: 0x28 }
  - { offsetInCU: 0x3375F, offset: 0x3375F, size: 0x8, addend: 0x0, symName: __ZNKSt3__110unique_ptrINS_11__hash_nodeINS_17__hash_value_typeI5PointbEEPvEENS_22__hash_node_destructorINS_9allocatorIS6_EEEEE3getB7v160006Ev, symObjAddr: 0x1002C, symBinAddr: 0x100011D1C, symSize: 0x28 }
  - { offsetInCU: 0x33785, offset: 0x33785, size: 0x8, addend: 0x0, symName: __ZNSt3__110unique_ptrINS_11__hash_nodeINS_17__hash_value_typeI5PointbEEPvEENS_22__hash_node_destructorINS_9allocatorIS6_EEEEE7releaseB7v160006Ev, symObjAddr: 0x10054, symBinAddr: 0x100011D44, symSize: 0x44 }
  - { offsetInCU: 0x337BA, offset: 0x337BA, size: 0x8, addend: 0x0, symName: __ZNSt3__110unique_ptrINS_11__hash_nodeINS_17__hash_value_typeI5PointbEEPvEENS_22__hash_node_destructorINS_9allocatorIS6_EEEEED1B7v160006Ev, symObjAddr: 0x10098, symBinAddr: 0x100011D88, symSize: 0x2C }
  - { offsetInCU: 0x337E4, offset: 0x337E4, size: 0x8, addend: 0x0, symName: __ZNSt3__115__hash_iteratorIPNS_11__hash_nodeINS_17__hash_value_typeI5PointbEEPvEEEC1B7v160006EPNS_16__hash_node_baseIS7_EEPKv, symObjAddr: 0x100C4, symBinAddr: 0x100011DB4, symSize: 0x3C }
  - { offsetInCU: 0x33832, offset: 0x33832, size: 0x8, addend: 0x0, symName: __ZNSt3__14pairINS_15__hash_iteratorIPNS_11__hash_nodeINS_17__hash_value_typeI5PointbEEPvEEEEbEC1B7v160006IS9_RbLS6_0EEEOT_OT0_, symObjAddr: 0x10100, symBinAddr: 0x100011DF0, symSize: 0x3C }
  - { offsetInCU: 0x33890, offset: 0x33890, size: 0x8, addend: 0x0, symName: __ZNSt3__117__compressed_pairImNS_22__unordered_map_hasherI5PointNS_17__hash_value_typeIS2_bEE11PointHasherNS_8equal_toIS2_EELb1EEEE6secondB7v160006Ev, symObjAddr: 0x1013C, symBinAddr: 0x100011E2C, symSize: 0x24 }
  - { offsetInCU: 0x338B6, offset: 0x338B6, size: 0x8, addend: 0x0, symName: __ZNSt3__122__compressed_pair_elemINS_22__unordered_map_hasherI5PointNS_17__hash_value_typeIS2_bEE11PointHasherNS_8equal_toIS2_EELb1EEELi1ELb1EE5__getB7v160006Ev, symObjAddr: 0x10160, symBinAddr: 0x100011E50, symSize: 0x14 }
  - { offsetInCU: 0x338DC, offset: 0x338DC, size: 0x8, addend: 0x0, symName: __ZNKSt3__110unique_ptrIA_PNS_16__hash_node_baseIPNS_11__hash_nodeINS_17__hash_value_typeI5PointbEEPvEEEENS_25__bucket_list_deallocatorINS_9allocatorISA_EEEEE11get_deleterB7v160006Ev, symObjAddr: 0x10174, symBinAddr: 0x100011E64, symSize: 0x24 }
  - { offsetInCU: 0x33902, offset: 0x33902, size: 0x8, addend: 0x0, symName: __ZNKSt3__125__bucket_list_deallocatorINS_9allocatorIPNS_16__hash_node_baseIPNS_11__hash_nodeINS_17__hash_value_typeI5PointbEEPvEEEEEEE4sizeB7v160006Ev, symObjAddr: 0x10198, symBinAddr: 0x100011E88, symSize: 0x28 }
  - { offsetInCU: 0x33928, offset: 0x33928, size: 0x8, addend: 0x0, symName: __ZNKSt3__117__compressed_pairIPPNS_16__hash_node_baseIPNS_11__hash_nodeINS_17__hash_value_typeI5PointbEEPvEEEENS_25__bucket_list_deallocatorINS_9allocatorISA_EEEEE6secondB7v160006Ev, symObjAddr: 0x101C0, symBinAddr: 0x100011EB0, symSize: 0x28 }
  - { offsetInCU: 0x3394E, offset: 0x3394E, size: 0x8, addend: 0x0, symName: __ZNKSt3__122__compressed_pair_elemINS_25__bucket_list_deallocatorINS_9allocatorIPNS_16__hash_node_baseIPNS_11__hash_nodeINS_17__hash_value_typeI5PointbEEPvEEEEEEEELi1ELb0EE5__getB7v160006Ev, symObjAddr: 0x101E8, symBinAddr: 0x100011ED8, symSize: 0x14 }
  - { offsetInCU: 0x33974, offset: 0x33974, size: 0x8, addend: 0x0, symName: __ZNKSt3__117__compressed_pairImNS_9allocatorIPNS_16__hash_node_baseIPNS_11__hash_nodeINS_17__hash_value_typeI5PointbEEPvEEEEEEE5firstB7v160006Ev, symObjAddr: 0x101FC, symBinAddr: 0x100011EEC, symSize: 0x24 }
  - { offsetInCU: 0x3399A, offset: 0x3399A, size: 0x8, addend: 0x0, symName: __ZNKSt3__117__compressed_pairIPPNS_16__hash_node_baseIPNS_11__hash_nodeINS_17__hash_value_typeI5PointbEEPvEEEENS_25__bucket_list_deallocatorINS_9allocatorISA_EEEEE5firstB7v160006Ev, symObjAddr: 0x10220, symBinAddr: 0x100011F10, symSize: 0x24 }
  - { offsetInCU: 0x339C0, offset: 0x339C0, size: 0x8, addend: 0x0, symName: __ZNKSt3__122__compressed_pair_elemIPPNS_16__hash_node_baseIPNS_11__hash_nodeINS_17__hash_value_typeI5PointbEEPvEEEELi0ELb0EE5__getB7v160006Ev, symObjAddr: 0x10244, symBinAddr: 0x100011F34, symSize: 0x14 }
  - { offsetInCU: 0x339E6, offset: 0x339E6, size: 0x8, addend: 0x0, symName: __ZNSt3__117__compressed_pairIfNS_21__unordered_map_equalI5PointNS_17__hash_value_typeIS2_bEENS_8equal_toIS2_EE11PointHasherLb1EEEE6secondB7v160006Ev, symObjAddr: 0x10258, symBinAddr: 0x100011F48, symSize: 0x24 }
  - { offsetInCU: 0x33A0C, offset: 0x33A0C, size: 0x8, addend: 0x0, symName: __ZNSt3__122__compressed_pair_elemINS_21__unordered_map_equalI5PointNS_17__hash_value_typeIS2_bEENS_8equal_toIS2_EE11PointHasherLb1EEELi1ELb1EE5__getB7v160006Ev, symObjAddr: 0x1027C, symBinAddr: 0x100011F6C, symSize: 0x14 }
  - { offsetInCU: 0x33A32, offset: 0x33A32, size: 0x8, addend: 0x0, symName: __ZNKSt3__117__hash_value_typeI5PointbE11__get_valueB7v160006Ev, symObjAddr: 0x10290, symBinAddr: 0x100011F80, symSize: 0x14 }
  - { offsetInCU: 0x33A58, offset: 0x33A58, size: 0x8, addend: 0x0, symName: __ZNSt3__114pointer_traitsIPNS_16__hash_node_baseIPNS_11__hash_nodeINS_17__hash_value_typeI5PointbEEPvEEEEE10pointer_toB7v160006ERS9_, symObjAddr: 0x102A4, symBinAddr: 0x100011F94, symSize: 0x14 }
  - { offsetInCU: 0x33A7B, offset: 0x33A7B, size: 0x8, addend: 0x0, symName: __ZNSt3__112__hash_tableINS_17__hash_value_typeI5PointbEENS_22__unordered_map_hasherIS2_S3_11PointHasherNS_8equal_toIS2_EELb1EEENS_21__unordered_map_equalIS2_S3_S7_S5_Lb1EEENS_9allocatorIS3_EEE12__node_allocB7v160006Ev, symObjAddr: 0x102B8, symBinAddr: 0x100011FA8, symSize: 0x28 }
  - { offsetInCU: 0x33AA1, offset: 0x33AA1, size: 0x8, addend: 0x0, symName: __ZNSt3__116allocator_traitsINS_9allocatorINS_11__hash_nodeINS_17__hash_value_typeI5PointbEEPvEEEEE8allocateB7v160006ERS8_m, symObjAddr: 0x102E0, symBinAddr: 0x100011FD0, symSize: 0x2C }
  - { offsetInCU: 0x33AD4, offset: 0x33AD4, size: 0x8, addend: 0x0, symName: __ZNSt3__122__hash_node_destructorINS_9allocatorINS_11__hash_nodeINS_17__hash_value_typeI5PointbEEPvEEEEEC1B7v160006ERS8_b, symObjAddr: 0x1030C, symBinAddr: 0x100011FFC, symSize: 0x48 }
  - { offsetInCU: 0x33B22, offset: 0x33B22, size: 0x8, addend: 0x0, symName: __ZNSt3__110unique_ptrINS_11__hash_nodeINS_17__hash_value_typeI5PointbEEPvEENS_22__hash_node_destructorINS_9allocatorIS6_EEEEEC1B7v160006ILb1EvEEPS6_NS_16__dependent_typeINS_27__unique_ptr_deleter_sfinaeISA_EEXT_EE20__good_rval_ref_typeE, symObjAddr: 0x10354, symBinAddr: 0x100012044, symSize: 0x3C }
  - { offsetInCU: 0x33B73, offset: 0x33B73, size: 0x8, addend: 0x0, symName: __ZNSt3__116allocator_traitsINS_9allocatorINS_11__hash_nodeINS_17__hash_value_typeI5PointbEEPvEEEEE9constructB7v160006INS_4pairIKS4_bEEJRKNS_21piecewise_construct_tENS_5tupleIJRSC_EEENSH_IJEEEEvEEvRS8_PT_DpOT0_, symObjAddr: 0x10390, symBinAddr: 0x100012080, symSize: 0x44 }
  - { offsetInCU: 0x33BF2, offset: 0x33BF2, size: 0x8, addend: 0x0, symName: __ZNSt3__122__hash_key_value_typesINS_17__hash_value_typeI5PointbEEE9__get_ptrB7v160006ERS3_, symObjAddr: 0x103D4, symBinAddr: 0x1000120C4, symSize: 0x24 }
  - { offsetInCU: 0x33C15, offset: 0x33C15, size: 0x8, addend: 0x0, symName: __ZNSt3__110unique_ptrINS_11__hash_nodeINS_17__hash_value_typeI5PointbEEPvEENS_22__hash_node_destructorINS_9allocatorIS6_EEEEE11get_deleterB7v160006Ev, symObjAddr: 0x103F8, symBinAddr: 0x1000120E8, symSize: 0x24 }
  - { offsetInCU: 0x33C3B, offset: 0x33C3B, size: 0x8, addend: 0x0, symName: __ZNSt3__117__compressed_pairINS_16__hash_node_baseIPNS_11__hash_nodeINS_17__hash_value_typeI5PointbEEPvEEEENS_9allocatorIS7_EEE6secondB7v160006Ev, symObjAddr: 0x1041C, symBinAddr: 0x10001210C, symSize: 0x24 }
  - { offsetInCU: 0x33C61, offset: 0x33C61, size: 0x8, addend: 0x0, symName: __ZNSt3__122__compressed_pair_elemINS_9allocatorINS_11__hash_nodeINS_17__hash_value_typeI5PointbEEPvEEEELi1ELb1EE5__getB7v160006Ev, symObjAddr: 0x10440, symBinAddr: 0x100012130, symSize: 0x14 }
  - { offsetInCU: 0x33C87, offset: 0x33C87, size: 0x8, addend: 0x0, symName: __ZNSt3__19allocatorINS_11__hash_nodeINS_17__hash_value_typeI5PointbEEPvEEE8allocateB7v160006Em, symObjAddr: 0x10454, symBinAddr: 0x100012144, symSize: 0x58 }
  - { offsetInCU: 0x33CC5, offset: 0x33CC5, size: 0x8, addend: 0x0, symName: __ZNSt3__116allocator_traitsINS_9allocatorINS_11__hash_nodeINS_17__hash_value_typeI5PointbEEPvEEEEE8max_sizeB7v160006IS8_vEEmRKS8_, symObjAddr: 0x104AC, symBinAddr: 0x10001219C, symSize: 0x24 }
  - { offsetInCU: 0x33CF3, offset: 0x33CF3, size: 0x8, addend: 0x0, symName: __ZNKSt3__19allocatorINS_11__hash_nodeINS_17__hash_value_typeI5PointbEEPvEEE8max_sizeB7v160006Ev, symObjAddr: 0x104D0, symBinAddr: 0x1000121C0, symSize: 0x14 }
  - { offsetInCU: 0x33D19, offset: 0x33D19, size: 0x8, addend: 0x0, symName: __ZNSt3__122__hash_node_destructorINS_9allocatorINS_11__hash_nodeINS_17__hash_value_typeI5PointbEEPvEEEEEC2B7v160006ERS8_b, symObjAddr: 0x104E4, symBinAddr: 0x1000121D4, symSize: 0x38 }
  - { offsetInCU: 0x33D61, offset: 0x33D61, size: 0x8, addend: 0x0, symName: __ZNSt3__110unique_ptrINS_11__hash_nodeINS_17__hash_value_typeI5PointbEEPvEENS_22__hash_node_destructorINS_9allocatorIS6_EEEEEC2B7v160006ILb1EvEEPS6_NS_16__dependent_typeINS_27__unique_ptr_deleter_sfinaeISA_EEXT_EE20__good_rval_ref_typeE, symObjAddr: 0x1051C, symBinAddr: 0x10001220C, symSize: 0x48 }
  - { offsetInCU: 0x33DB2, offset: 0x33DB2, size: 0x8, addend: 0x0, symName: __ZNSt3__117__compressed_pairIPNS_11__hash_nodeINS_17__hash_value_typeI5PointbEEPvEENS_22__hash_node_destructorINS_9allocatorIS6_EEEEEC1B7v160006IRS7_SB_EEOT_OT0_, symObjAddr: 0x10564, symBinAddr: 0x100012254, symSize: 0x3C }
  - { offsetInCU: 0x33E0A, offset: 0x33E0A, size: 0x8, addend: 0x0, symName: __ZNSt3__117__compressed_pairIPNS_11__hash_nodeINS_17__hash_value_typeI5PointbEEPvEENS_22__hash_node_destructorINS_9allocatorIS6_EEEEEC2B7v160006IRS7_SB_EEOT_OT0_, symObjAddr: 0x105A0, symBinAddr: 0x100012290, symSize: 0x48 }
  - { offsetInCU: 0x33E62, offset: 0x33E62, size: 0x8, addend: 0x0, symName: __ZNSt3__122__compressed_pair_elemIPNS_11__hash_nodeINS_17__hash_value_typeI5PointbEEPvEELi0ELb0EEC2B7v160006IRS7_vEEOT_, symObjAddr: 0x105E8, symBinAddr: 0x1000122D8, symSize: 0x24 }
  - { offsetInCU: 0x33EA4, offset: 0x33EA4, size: 0x8, addend: 0x0, symName: __ZNSt3__122__compressed_pair_elemINS_22__hash_node_destructorINS_9allocatorINS_11__hash_nodeINS_17__hash_value_typeI5PointbEEPvEEEEEELi1ELb0EEC2B7v160006ISA_vEEOT_, symObjAddr: 0x1060C, symBinAddr: 0x1000122FC, symSize: 0x24 }
  - { offsetInCU: 0x33EE6, offset: 0x33EE6, size: 0x8, addend: 0x0, symName: __ZNSt3__19allocatorINS_11__hash_nodeINS_17__hash_value_typeI5PointbEEPvEEE9constructB7v160006INS_4pairIKS3_bEEJRKNS_21piecewise_construct_tENS_5tupleIJRSA_EEENSF_IJEEEEEEvPT_DpOT0_, symObjAddr: 0x10630, symBinAddr: 0x100012320, symSize: 0x44 }
  - { offsetInCU: 0x33F62, offset: 0x33F62, size: 0x8, addend: 0x0, symName: __ZNSt3__14pairIK5PointbEC1B7v160006IJRS2_EJEEENS_21piecewise_construct_tENS_5tupleIJDpT_EEENS7_IJDpT0_EEE, symObjAddr: 0x10674, symBinAddr: 0x100012364, symSize: 0x3C }
  - { offsetInCU: 0x33FC9, offset: 0x33FC9, size: 0x8, addend: 0x0, symName: __ZNSt3__14pairIK5PointbEC1B7v160006IJRS2_EJEJLm0EEJEEENS_21piecewise_construct_tERNS_5tupleIJDpT_EEERNS7_IJDpT0_EEENS_15__tuple_indicesIJXspT1_EEEENSG_IJXspT2_EEEE, symObjAddr: 0x106B0, symBinAddr: 0x1000123A0, symSize: 0x3C }
  - { offsetInCU: 0x34056, offset: 0x34056, size: 0x8, addend: 0x0, symName: __ZNSt3__14pairIK5PointbEC2B7v160006IJRS2_EJEJLm0EEJEEENS_21piecewise_construct_tERNS_5tupleIJDpT_EEERNS7_IJDpT0_EEENS_15__tuple_indicesIJXspT1_EEEENSG_IJXspT2_EEEE, symObjAddr: 0x106EC, symBinAddr: 0x1000123DC, symSize: 0x48 }
  - { offsetInCU: 0x340E3, offset: 0x340E3, size: 0x8, addend: 0x0, symName: __ZNSt3__117__compressed_pairIPNS_11__hash_nodeINS_17__hash_value_typeI5PointbEEPvEENS_22__hash_node_destructorINS_9allocatorIS6_EEEEE6secondB7v160006Ev, symObjAddr: 0x10734, symBinAddr: 0x100012424, symSize: 0x28 }
  - { offsetInCU: 0x34109, offset: 0x34109, size: 0x8, addend: 0x0, symName: __ZNSt3__122__compressed_pair_elemINS_22__hash_node_destructorINS_9allocatorINS_11__hash_nodeINS_17__hash_value_typeI5PointbEEPvEEEEEELi1ELb0EE5__getB7v160006Ev, symObjAddr: 0x1075C, symBinAddr: 0x10001244C, symSize: 0x14 }
  - { offsetInCU: 0x3412F, offset: 0x3412F, size: 0x8, addend: 0x0, symName: __ZNSt3__117__compressed_pairImNS_22__unordered_map_hasherI5PointNS_17__hash_value_typeIS2_bEE11PointHasherNS_8equal_toIS2_EELb1EEEE5firstB7v160006Ev, symObjAddr: 0x10770, symBinAddr: 0x100012460, symSize: 0x24 }
  - { offsetInCU: 0x34155, offset: 0x34155, size: 0x8, addend: 0x0, symName: __ZNSt3__117__compressed_pairIfNS_21__unordered_map_equalI5PointNS_17__hash_value_typeIS2_bEENS_8equal_toIS2_EE11PointHasherLb1EEEE5firstB7v160006Ev, symObjAddr: 0x10794, symBinAddr: 0x100012484, symSize: 0x24 }
  - { offsetInCU: 0x3417B, offset: 0x3417B, size: 0x8, addend: 0x0, symName: __ZNSt3__112__hash_tableINS_17__hash_value_typeI5PointbEENS_22__unordered_map_hasherIS2_S3_11PointHasherNS_8equal_toIS2_EELb1EEENS_21__unordered_map_equalIS2_S3_S7_S5_Lb1EEENS_9allocatorIS3_EEE8__rehashILb1EEEvm, symObjAddr: 0x107B8, symBinAddr: 0x1000124A8, symSize: 0x1A8 }
  - { offsetInCU: 0x341CB, offset: 0x341CB, size: 0x8, addend: 0x0, symName: __ZNSt3__112__hash_tableINS_17__hash_value_typeI5PointbEENS_22__unordered_map_hasherIS2_S3_11PointHasherNS_8equal_toIS2_EELb1EEENS_21__unordered_map_equalIS2_S3_S7_S5_Lb1EEENS_9allocatorIS3_EEE11__do_rehashILb1EEEvm, symObjAddr: 0x10960, symBinAddr: 0x100012650, symSize: 0x290 }
  - { offsetInCU: 0x342AE, offset: 0x342AE, size: 0x8, addend: 0x0, symName: __ZNSt3__110unique_ptrIA_PNS_16__hash_node_baseIPNS_11__hash_nodeINS_17__hash_value_typeI5PointbEEPvEEEENS_25__bucket_list_deallocatorINS_9allocatorISA_EEEEE11get_deleterB7v160006Ev, symObjAddr: 0x10C00, symBinAddr: 0x1000128F0, symSize: 0x24 }
  - { offsetInCU: 0x342D4, offset: 0x342D4, size: 0x8, addend: 0x0, symName: __ZNSt3__125__bucket_list_deallocatorINS_9allocatorIPNS_16__hash_node_baseIPNS_11__hash_nodeINS_17__hash_value_typeI5PointbEEPvEEEEEEE7__allocB7v160006Ev, symObjAddr: 0x10C24, symBinAddr: 0x100012914, symSize: 0x24 }
  - { offsetInCU: 0x342FA, offset: 0x342FA, size: 0x8, addend: 0x0, symName: __ZNSt3__110unique_ptrIA_PNS_16__hash_node_baseIPNS_11__hash_nodeINS_17__hash_value_typeI5PointbEEPvEEEENS_25__bucket_list_deallocatorINS_9allocatorISA_EEEEE5resetB7v160006IPSA_EENS_9enable_ifIXsr28_CheckArrayPointerConversionIT_EE5valueEvE4typeESK_, symObjAddr: 0x10C48, symBinAddr: 0x100012938, symSize: 0x78 }
  - { offsetInCU: 0x34347, offset: 0x34347, size: 0x8, addend: 0x0, symName: __ZNSt3__116allocator_traitsINS_9allocatorIPNS_16__hash_node_baseIPNS_11__hash_nodeINS_17__hash_value_typeI5PointbEEPvEEEEEEE8allocateB7v160006ERSC_m, symObjAddr: 0x10CC0, symBinAddr: 0x1000129B0, symSize: 0x2C }
  - { offsetInCU: 0x3437A, offset: 0x3437A, size: 0x8, addend: 0x0, symName: __ZNSt3__125__bucket_list_deallocatorINS_9allocatorIPNS_16__hash_node_baseIPNS_11__hash_nodeINS_17__hash_value_typeI5PointbEEPvEEEEEEE4sizeB7v160006Ev, symObjAddr: 0x10CEC, symBinAddr: 0x1000129DC, symSize: 0x24 }
  - { offsetInCU: 0x343A0, offset: 0x343A0, size: 0x8, addend: 0x0, symName: __ZNSt3__117__compressed_pairIPPNS_16__hash_node_baseIPNS_11__hash_nodeINS_17__hash_value_typeI5PointbEEPvEEEENS_25__bucket_list_deallocatorINS_9allocatorISA_EEEEE6secondB7v160006Ev, symObjAddr: 0x10D10, symBinAddr: 0x100012A00, symSize: 0x28 }
  - { offsetInCU: 0x343C6, offset: 0x343C6, size: 0x8, addend: 0x0, symName: __ZNSt3__122__compressed_pair_elemINS_25__bucket_list_deallocatorINS_9allocatorIPNS_16__hash_node_baseIPNS_11__hash_nodeINS_17__hash_value_typeI5PointbEEPvEEEEEEEELi1ELb0EE5__getB7v160006Ev, symObjAddr: 0x10D38, symBinAddr: 0x100012A28, symSize: 0x14 }
  - { offsetInCU: 0x343EC, offset: 0x343EC, size: 0x8, addend: 0x0, symName: __ZNSt3__117__compressed_pairImNS_9allocatorIPNS_16__hash_node_baseIPNS_11__hash_nodeINS_17__hash_value_typeI5PointbEEPvEEEEEEE6secondB7v160006Ev, symObjAddr: 0x10D4C, symBinAddr: 0x100012A3C, symSize: 0x24 }
  - { offsetInCU: 0x34412, offset: 0x34412, size: 0x8, addend: 0x0, symName: __ZNSt3__122__compressed_pair_elemINS_9allocatorIPNS_16__hash_node_baseIPNS_11__hash_nodeINS_17__hash_value_typeI5PointbEEPvEEEEEELi1ELb1EE5__getB7v160006Ev, symObjAddr: 0x10D70, symBinAddr: 0x100012A60, symSize: 0x14 }
  - { offsetInCU: 0x34438, offset: 0x34438, size: 0x8, addend: 0x0, symName: __ZNSt3__117__compressed_pairIPPNS_16__hash_node_baseIPNS_11__hash_nodeINS_17__hash_value_typeI5PointbEEPvEEEENS_25__bucket_list_deallocatorINS_9allocatorISA_EEEEE5firstB7v160006Ev, symObjAddr: 0x10D84, symBinAddr: 0x100012A74, symSize: 0x24 }
  - { offsetInCU: 0x3445E, offset: 0x3445E, size: 0x8, addend: 0x0, symName: __ZNSt3__125__bucket_list_deallocatorINS_9allocatorIPNS_16__hash_node_baseIPNS_11__hash_nodeINS_17__hash_value_typeI5PointbEEPvEEEEEEEclB7v160006EPSB_, symObjAddr: 0x10DA8, symBinAddr: 0x100012A98, symSize: 0x58 }
  - { offsetInCU: 0x34493, offset: 0x34493, size: 0x8, addend: 0x0, symName: __ZNSt3__122__compressed_pair_elemIPPNS_16__hash_node_baseIPNS_11__hash_nodeINS_17__hash_value_typeI5PointbEEPvEEEELi0ELb0EE5__getB7v160006Ev, symObjAddr: 0x10E00, symBinAddr: 0x100012AF0, symSize: 0x14 }
  - { offsetInCU: 0x344B9, offset: 0x344B9, size: 0x8, addend: 0x0, symName: __ZNSt3__116allocator_traitsINS_9allocatorIPNS_16__hash_node_baseIPNS_11__hash_nodeINS_17__hash_value_typeI5PointbEEPvEEEEEEE10deallocateB7v160006ERSC_PSB_m, symObjAddr: 0x10E14, symBinAddr: 0x100012B04, symSize: 0x34 }
  - { offsetInCU: 0x344FB, offset: 0x344FB, size: 0x8, addend: 0x0, symName: __ZNSt3__19allocatorIPNS_16__hash_node_baseIPNS_11__hash_nodeINS_17__hash_value_typeI5PointbEEPvEEEEE10deallocateB7v160006EPSA_m, symObjAddr: 0x10E48, symBinAddr: 0x100012B38, symSize: 0x40 }
  - { offsetInCU: 0x3453D, offset: 0x3453D, size: 0x8, addend: 0x0, symName: __ZNSt3__19allocatorIPNS_16__hash_node_baseIPNS_11__hash_nodeINS_17__hash_value_typeI5PointbEEPvEEEEE8allocateB7v160006Em, symObjAddr: 0x10E88, symBinAddr: 0x100012B78, symSize: 0x58 }
  - { offsetInCU: 0x3457B, offset: 0x3457B, size: 0x8, addend: 0x0, symName: __ZNSt3__116allocator_traitsINS_9allocatorIPNS_16__hash_node_baseIPNS_11__hash_nodeINS_17__hash_value_typeI5PointbEEPvEEEEEEE8max_sizeB7v160006ISC_vEEmRKSC_, symObjAddr: 0x10EE0, symBinAddr: 0x100012BD0, symSize: 0x24 }
  - { offsetInCU: 0x345A9, offset: 0x345A9, size: 0x8, addend: 0x0, symName: __ZNKSt3__19allocatorIPNS_16__hash_node_baseIPNS_11__hash_nodeINS_17__hash_value_typeI5PointbEEPvEEEEE8max_sizeB7v160006Ev, symObjAddr: 0x10F04, symBinAddr: 0x100012BF4, symSize: 0x14 }
  - { offsetInCU: 0x345CF, offset: 0x345CF, size: 0x8, addend: 0x0, symName: __ZNSt3__117__compressed_pairImNS_9allocatorIPNS_16__hash_node_baseIPNS_11__hash_nodeINS_17__hash_value_typeI5PointbEEPvEEEEEEE5firstB7v160006Ev, symObjAddr: 0x10F18, symBinAddr: 0x100012C08, symSize: 0x24 }
  - { offsetInCU: 0x345F5, offset: 0x345F5, size: 0x8, addend: 0x0, symName: __ZNSt3__122__compressed_pair_elemINS_16__hash_node_baseIPNS_11__hash_nodeINS_17__hash_value_typeI5PointbEEPvEEEELi0ELb0EE5__getB7v160006Ev, symObjAddr: 0x10F3C, symBinAddr: 0x100012C2C, symSize: 0x14 }
  - { offsetInCU: 0x3461B, offset: 0x3461B, size: 0x8, addend: 0x0, symName: __ZNKSt3__117__compressed_pairIPNS_11__hash_nodeINS_17__hash_value_typeI5PointbEEPvEENS_22__hash_node_destructorINS_9allocatorIS6_EEEEE5firstB7v160006Ev, symObjAddr: 0x10F50, symBinAddr: 0x100012C40, symSize: 0x24 }
  - { offsetInCU: 0x34641, offset: 0x34641, size: 0x8, addend: 0x0, symName: __ZNKSt3__122__compressed_pair_elemIPNS_11__hash_nodeINS_17__hash_value_typeI5PointbEEPvEELi0ELb0EE5__getB7v160006Ev, symObjAddr: 0x10F74, symBinAddr: 0x100012C64, symSize: 0x14 }
  - { offsetInCU: 0x34667, offset: 0x34667, size: 0x8, addend: 0x0, symName: __ZNSt3__117__compressed_pairIPNS_11__hash_nodeINS_17__hash_value_typeI5PointbEEPvEENS_22__hash_node_destructorINS_9allocatorIS6_EEEEE5firstB7v160006Ev, symObjAddr: 0x10F88, symBinAddr: 0x100012C78, symSize: 0x24 }
  - { offsetInCU: 0x3468D, offset: 0x3468D, size: 0x8, addend: 0x0, symName: __ZNSt3__122__compressed_pair_elemIPNS_11__hash_nodeINS_17__hash_value_typeI5PointbEEPvEELi0ELb0EE5__getB7v160006Ev, symObjAddr: 0x10FAC, symBinAddr: 0x100012C9C, symSize: 0x14 }
  - { offsetInCU: 0x346B3, offset: 0x346B3, size: 0x8, addend: 0x0, symName: __ZNSt3__110unique_ptrINS_11__hash_nodeINS_17__hash_value_typeI5PointbEEPvEENS_22__hash_node_destructorINS_9allocatorIS6_EEEEED2B7v160006Ev, symObjAddr: 0x10FC0, symBinAddr: 0x100012CB0, symSize: 0x30 }
  - { offsetInCU: 0x346DD, offset: 0x346DD, size: 0x8, addend: 0x0, symName: __ZNSt3__110unique_ptrINS_11__hash_nodeINS_17__hash_value_typeI5PointbEEPvEENS_22__hash_node_destructorINS_9allocatorIS6_EEEEE5resetB7v160006EPS6_, symObjAddr: 0x10FF0, symBinAddr: 0x100012CE0, symSize: 0x78 }
  - { offsetInCU: 0x34721, offset: 0x34721, size: 0x8, addend: 0x0, symName: __ZNSt3__122__hash_node_destructorINS_9allocatorINS_11__hash_nodeINS_17__hash_value_typeI5PointbEEPvEEEEEclB7v160006EPS7_, symObjAddr: 0x11068, symBinAddr: 0x100012D58, symSize: 0x98 }
  - { offsetInCU: 0x34756, offset: 0x34756, size: 0x8, addend: 0x0, symName: __ZNSt3__116allocator_traitsINS_9allocatorINS_11__hash_nodeINS_17__hash_value_typeI5PointbEEPvEEEEE7destroyB7v160006INS_4pairIKS4_bEEvvEEvRS8_PT_, symObjAddr: 0x11100, symBinAddr: 0x100012DF0, symSize: 0x14 }
  - { offsetInCU: 0x34790, offset: 0x34790, size: 0x8, addend: 0x0, symName: __ZNSt3__116allocator_traitsINS_9allocatorINS_11__hash_nodeINS_17__hash_value_typeI5PointbEEPvEEEEE10deallocateB7v160006ERS8_PS7_m, symObjAddr: 0x11114, symBinAddr: 0x100012E04, symSize: 0x34 }
  - { offsetInCU: 0x347D2, offset: 0x347D2, size: 0x8, addend: 0x0, symName: __ZNSt3__19allocatorINS_11__hash_nodeINS_17__hash_value_typeI5PointbEEPvEEE10deallocateB7v160006EPS6_m, symObjAddr: 0x11148, symBinAddr: 0x100012E38, symSize: 0x40 }
  - { offsetInCU: 0x34814, offset: 0x34814, size: 0x8, addend: 0x0, symName: __ZNSt3__115__hash_iteratorIPNS_11__hash_nodeINS_17__hash_value_typeI5PointbEEPvEEEC2B7v160006EPNS_16__hash_node_baseIS7_EEPKv, symObjAddr: 0x11188, symBinAddr: 0x100012E78, symSize: 0x24 }
  - { offsetInCU: 0x3485C, offset: 0x3485C, size: 0x8, addend: 0x0, symName: __ZNSt3__14pairINS_15__hash_iteratorIPNS_11__hash_nodeINS_17__hash_value_typeI5PointbEEPvEEEEbEC2B7v160006IS9_RbLS6_0EEEOT_OT0_, symObjAddr: 0x111AC, symBinAddr: 0x100012E9C, symSize: 0x38 }
  - { offsetInCU: 0x348BA, offset: 0x348BA, size: 0x8, addend: 0x0, symName: __ZNSt3__114pointer_traitsIPNS_17__hash_value_typeI5PointbEEE10pointer_toB7v160006ERS3_, symObjAddr: 0x111E4, symBinAddr: 0x100012ED4, symSize: 0x14 }
  - { offsetInCU: 0x348DD, offset: 0x348DD, size: 0x8, addend: 0x0, symName: __ZNKSt3__15dequeI5PointNS_9allocatorIS1_EEE5emptyB7v160006Ev, symObjAddr: 0x111F8, symBinAddr: 0x100012EE8, symSize: 0x30 }
  - { offsetInCU: 0x34903, offset: 0x34903, size: 0x8, addend: 0x0, symName: __ZNSt3__15dequeI5PointNS_9allocatorIS1_EEE5frontEv, symObjAddr: 0x11228, symBinAddr: 0x100012F18, symSize: 0x50 }
  - { offsetInCU: 0x3492B, offset: 0x3492B, size: 0x8, addend: 0x0, symName: __ZNKSt3__16vectorI5PointNS_9allocatorIS1_EEE5beginB7v160006Ev, symObjAddr: 0x112F4, symBinAddr: 0x100012FE4, symSize: 0x30 }
  - { offsetInCU: 0x34953, offset: 0x34953, size: 0x8, addend: 0x0, symName: __ZNKSt3__16vectorI5PointNS_9allocatorIS1_EEE3endB7v160006Ev, symObjAddr: 0x11324, symBinAddr: 0x100013014, symSize: 0x30 }
  - { offsetInCU: 0x3497B, offset: 0x3497B, size: 0x8, addend: 0x0, symName: __ZNKSt3__111__wrap_iterIPK5PointEdeB7v160006Ev, symObjAddr: 0x11388, symBinAddr: 0x100013078, symSize: 0x18 }
  - { offsetInCU: 0x349A1, offset: 0x349A1, size: 0x8, addend: 0x0, symName: __ZNSt3__111__wrap_iterIPK5PointEppB7v160006Ev, symObjAddr: 0x113A0, symBinAddr: 0x100013090, symSize: 0x20 }
  - { offsetInCU: 0x349C7, offset: 0x349C7, size: 0x8, addend: 0x0, symName: __ZNKSt3__111__wrap_iterIPK5PointE4baseB7v160006Ev, symObjAddr: 0x11408, symBinAddr: 0x1000130F8, symSize: 0x18 }
  - { offsetInCU: 0x349ED, offset: 0x349ED, size: 0x8, addend: 0x0, symName: __ZNKSt3__16vectorI5PointNS_9allocatorIS1_EEE11__make_iterB7v160006EPKS1_, symObjAddr: 0x11420, symBinAddr: 0x100013110, symSize: 0x34 }
  - { offsetInCU: 0x34A22, offset: 0x34A22, size: 0x8, addend: 0x0, symName: __ZNSt3__111__wrap_iterIPK5PointEC1B7v160006EPKvS3_, symObjAddr: 0x11454, symBinAddr: 0x100013144, symSize: 0x3C }
  - { offsetInCU: 0x34A68, offset: 0x34A68, size: 0x8, addend: 0x0, symName: __ZNSt3__111__wrap_iterIPK5PointEC2B7v160006EPKvS3_, symObjAddr: 0x11490, symBinAddr: 0x100013180, symSize: 0x24 }
  - { offsetInCU: 0x34AAE, offset: 0x34AAE, size: 0x8, addend: 0x0, symName: __ZNSt3__15dequeI5PointNS_9allocatorIS1_EEE9pop_frontEv, symObjAddr: 0x114B4, symBinAddr: 0x1000131A4, symSize: 0xAC }
  - { offsetInCU: 0x34AE5, offset: 0x34AE5, size: 0x8, addend: 0x0, symName: __ZNSt3__15dequeI5PointNS_9allocatorIS1_EEE26__maybe_remove_front_spareB7v160006Eb, symObjAddr: 0x11560, symBinAddr: 0x100013250, symSize: 0xDC }
  - { offsetInCU: 0x34B1A, offset: 0x34B1A, size: 0x8, addend: 0x0, symName: __ZNKSt3__15dequeI5PointNS_9allocatorIS1_EEE20__front_spare_blocksB7v160006Ev, symObjAddr: 0x1163C, symBinAddr: 0x10001332C, symSize: 0x2C }
  - { offsetInCU: 0x34B40, offset: 0x34B40, size: 0x8, addend: 0x0, symName: __ZNSt3__113unordered_mapI5Pointb11PointHasherNS_8equal_toIS1_EENS_9allocatorINS_4pairIKS1_bEEEEED2B7v160006Ev, symObjAddr: 0x11668, symBinAddr: 0x100013358, symSize: 0x2C }
  - { offsetInCU: 0x34B6A, offset: 0x34B6A, size: 0x8, addend: 0x0, symName: __ZNSt3__112__hash_tableINS_17__hash_value_typeI5PointbEENS_22__unordered_map_hasherIS2_S3_11PointHasherNS_8equal_toIS2_EELb1EEENS_21__unordered_map_equalIS2_S3_S7_S5_Lb1EEENS_9allocatorIS3_EEED1Ev, symObjAddr: 0x11694, symBinAddr: 0x100013384, symSize: 0x2C }
  - { offsetInCU: 0x34B96, offset: 0x34B96, size: 0x8, addend: 0x0, symName: __ZNSt3__112__hash_tableINS_17__hash_value_typeI5PointbEENS_22__unordered_map_hasherIS2_S3_11PointHasherNS_8equal_toIS2_EELb1EEENS_21__unordered_map_equalIS2_S3_S7_S5_Lb1EEENS_9allocatorIS3_EEED2Ev, symObjAddr: 0x116C0, symBinAddr: 0x1000133B0, symSize: 0x58 }
  - { offsetInCU: 0x34BC2, offset: 0x34BC2, size: 0x8, addend: 0x0, symName: __ZNSt3__112__hash_tableINS_17__hash_value_typeI5PointbEENS_22__unordered_map_hasherIS2_S3_11PointHasherNS_8equal_toIS2_EELb1EEENS_21__unordered_map_equalIS2_S3_S7_S5_Lb1EEENS_9allocatorIS3_EEE17__deallocate_nodeEPNS_16__hash_node_baseIPNS_11__hash_nodeIS3_PvEEEE, symObjAddr: 0x11718, symBinAddr: 0x100013408, symSize: 0xA4 }
  - { offsetInCU: 0x34C2C, offset: 0x34C2C, size: 0x8, addend: 0x0, symName: __ZNSt3__110unique_ptrIA_PNS_16__hash_node_baseIPNS_11__hash_nodeINS_17__hash_value_typeI5PointbEEPvEEEENS_25__bucket_list_deallocatorINS_9allocatorISA_EEEEED1B7v160006Ev, symObjAddr: 0x117CC, symBinAddr: 0x1000134BC, symSize: 0x2C }
  - { offsetInCU: 0x34C56, offset: 0x34C56, size: 0x8, addend: 0x0, symName: __ZNSt3__110unique_ptrIA_PNS_16__hash_node_baseIPNS_11__hash_nodeINS_17__hash_value_typeI5PointbEEPvEEEENS_25__bucket_list_deallocatorINS_9allocatorISA_EEEEED2B7v160006Ev, symObjAddr: 0x117F8, symBinAddr: 0x1000134E8, symSize: 0x30 }
  - { offsetInCU: 0x34C80, offset: 0x34C80, size: 0x8, addend: 0x0, symName: __ZNSt3__110unique_ptrIA_PNS_16__hash_node_baseIPNS_11__hash_nodeINS_17__hash_value_typeI5PointbEEPvEEEENS_25__bucket_list_deallocatorINS_9allocatorISA_EEEEE5resetB7v160006EDn, symObjAddr: 0x11828, symBinAddr: 0x100013518, symSize: 0x6C }
  - { offsetInCU: 0x34CC0, offset: 0x34CC0, size: 0x8, addend: 0x0, symName: __ZNSt3__15queueI5PointNS_5dequeIS1_NS_9allocatorIS1_EEEEED2Ev, symObjAddr: 0x11894, symBinAddr: 0x100013584, symSize: 0x2C }
  - { offsetInCU: 0x34CED, offset: 0x34CED, size: 0x8, addend: 0x0, symName: __ZNSt3__15dequeI5PointNS_9allocatorIS1_EEED1B7v160006Ev, symObjAddr: 0x118C0, symBinAddr: 0x1000135B0, symSize: 0x2C }
  - { offsetInCU: 0x34D17, offset: 0x34D17, size: 0x8, addend: 0x0, symName: __ZNSt3__15dequeI5PointNS_9allocatorIS1_EEED2B7v160006Ev, symObjAddr: 0x118EC, symBinAddr: 0x1000135DC, symSize: 0x9C }
  - { offsetInCU: 0x34D6D, offset: 0x34D6D, size: 0x8, addend: 0x0, symName: __ZNSt3__15dequeI5PointNS_9allocatorIS1_EEE5clearEv, symObjAddr: 0x11988, symBinAddr: 0x100013678, symSize: 0x15C }
  - { offsetInCU: 0x34DC8, offset: 0x34DC8, size: 0x8, addend: 0x0, symName: __ZNSt3__114__split_bufferIP5PointNS_9allocatorIS2_EEED1Ev, symObjAddr: 0x11AE4, symBinAddr: 0x1000137D4, symSize: 0x2C }
  - { offsetInCU: 0x34DF4, offset: 0x34DF4, size: 0x8, addend: 0x0, symName: __ZNSt3__15dequeI5PointNS_9allocatorIS1_EEE5beginB7v160006Ev, symObjAddr: 0x11B10, symBinAddr: 0x100013800, symSize: 0xA8 }
  - { offsetInCU: 0x34E29, offset: 0x34E29, size: 0x8, addend: 0x0, symName: __ZNSt3__116__deque_iteratorI5PointPS1_RS1_PS2_lLl512EEppB7v160006Ev, symObjAddr: 0x11BEC, symBinAddr: 0x1000138DC, symSize: 0x70 }
  - { offsetInCU: 0x34E4F, offset: 0x34E4F, size: 0x8, addend: 0x0, symName: __ZNSt3__114__split_bufferIP5PointNS_9allocatorIS2_EEED2Ev, symObjAddr: 0x11C8C, symBinAddr: 0x10001397C, symSize: 0x80 }
  - { offsetInCU: 0x34E7B, offset: 0x34E7B, size: 0x8, addend: 0x0, symName: __ZNSt3__114__split_bufferIP5PointNS_9allocatorIS2_EEE5clearB7v160006Ev, symObjAddr: 0x11D0C, symBinAddr: 0x1000139FC, symSize: 0x28 }
  - { offsetInCU: 0x34EA1, offset: 0x34EA1, size: 0x8, addend: 0x0, symName: __ZNSt3__114__split_bufferIP5PointNS_9allocatorIS2_EEE17__destruct_at_endB7v160006EPS2_, symObjAddr: 0x11D34, symBinAddr: 0x100013A24, symSize: 0x2C }
  - { offsetInCU: 0x34ED5, offset: 0x34ED5, size: 0x8, addend: 0x0, symName: __ZNSt3__114__split_bufferIP5PointNS_9allocatorIS2_EEE17__destruct_at_endB7v160006EPS2_NS_17integral_constantIbLb0EEE, symObjAddr: 0x11D60, symBinAddr: 0x100013A50, symSize: 0x80 }
  - { offsetInCU: 0x34F15, offset: 0x34F15, size: 0x8, addend: 0x0, symName: __ZNSt3__113unordered_mapI5Pointc11PointHasherNS_8equal_toIS1_EENS_9allocatorINS_4pairIKS1_cEEEEED2B7v160006Ev, symObjAddr: 0x11DE0, symBinAddr: 0x100013AD0, symSize: 0x2C }
  - { offsetInCU: 0x34F3F, offset: 0x34F3F, size: 0x8, addend: 0x0, symName: __ZNSt3__112__hash_tableINS_17__hash_value_typeI5PointcEENS_22__unordered_map_hasherIS2_S3_11PointHasherNS_8equal_toIS2_EELb1EEENS_21__unordered_map_equalIS2_S3_S7_S5_Lb1EEENS_9allocatorIS3_EEED1Ev, symObjAddr: 0x11E0C, symBinAddr: 0x100013AFC, symSize: 0x2C }
  - { offsetInCU: 0x34F6B, offset: 0x34F6B, size: 0x8, addend: 0x0, symName: __ZNSt3__112__hash_tableINS_17__hash_value_typeI5PointcEENS_22__unordered_map_hasherIS2_S3_11PointHasherNS_8equal_toIS2_EELb1EEENS_21__unordered_map_equalIS2_S3_S7_S5_Lb1EEENS_9allocatorIS3_EEED2Ev, symObjAddr: 0x11E38, symBinAddr: 0x100013B28, symSize: 0x58 }
  - { offsetInCU: 0x34F97, offset: 0x34F97, size: 0x8, addend: 0x0, symName: __ZNSt3__112__hash_tableINS_17__hash_value_typeI5PointcEENS_22__unordered_map_hasherIS2_S3_11PointHasherNS_8equal_toIS2_EELb1EEENS_21__unordered_map_equalIS2_S3_S7_S5_Lb1EEENS_9allocatorIS3_EEE17__deallocate_nodeEPNS_16__hash_node_baseIPNS_11__hash_nodeIS3_PvEEEE, symObjAddr: 0x11E90, symBinAddr: 0x100013B80, symSize: 0xA4 }
  - { offsetInCU: 0x35001, offset: 0x35001, size: 0x8, addend: 0x0, symName: __ZNSt3__110unique_ptrIA_PNS_16__hash_node_baseIPNS_11__hash_nodeINS_17__hash_value_typeI5PointcEEPvEEEENS_25__bucket_list_deallocatorINS_9allocatorISA_EEEEED1B7v160006Ev, symObjAddr: 0x11F44, symBinAddr: 0x100013C34, symSize: 0x2C }
  - { offsetInCU: 0x3502B, offset: 0x3502B, size: 0x8, addend: 0x0, symName: __ZNSt3__110unique_ptrIA_PNS_16__hash_node_baseIPNS_11__hash_nodeINS_17__hash_value_typeI5PointcEEPvEEEENS_25__bucket_list_deallocatorINS_9allocatorISA_EEEEED2B7v160006Ev, symObjAddr: 0x11F70, symBinAddr: 0x100013C60, symSize: 0x30 }
  - { offsetInCU: 0x35055, offset: 0x35055, size: 0x8, addend: 0x0, symName: __ZNSt3__110unique_ptrIA_PNS_16__hash_node_baseIPNS_11__hash_nodeINS_17__hash_value_typeI5PointcEEPvEEEENS_25__bucket_list_deallocatorINS_9allocatorISA_EEEEE5resetB7v160006EDn, symObjAddr: 0x11FA0, symBinAddr: 0x100013C90, symSize: 0x6C }
  - { offsetInCU: 0x35095, offset: 0x35095, size: 0x8, addend: 0x0, symName: __ZNSt3__16vectorI5PointNS_9allocatorIS1_EEED2B7v160006Ev, symObjAddr: 0x1200C, symBinAddr: 0x100013CFC, symSize: 0x44 }
  - { offsetInCU: 0x350BF, offset: 0x350BF, size: 0x8, addend: 0x0, symName: __ZNSt3__16vectorINS0_IcNS_9allocatorIcEEEENS1_IS3_EEED2B7v160006Ev, symObjAddr: 0x12050, symBinAddr: 0x100013D40, symSize: 0x44 }
  - { offsetInCU: 0x350E9, offset: 0x350E9, size: 0x8, addend: 0x0, symName: __ZNSt3__16vectorINS0_IcNS_9allocatorIcEEEENS1_IS3_EEE16__destroy_vectorC1ERS5_, symObjAddr: 0x12094, symBinAddr: 0x100013D84, symSize: 0x34 }
  - { offsetInCU: 0x35122, offset: 0x35122, size: 0x8, addend: 0x0, symName: __ZNSt3__16vectorINS0_IcNS_9allocatorIcEEEENS1_IS3_EEE16__destroy_vectorclB7v160006Ev, symObjAddr: 0x120C8, symBinAddr: 0x100013DB8, symSize: 0x9C }
  - { offsetInCU: 0x35148, offset: 0x35148, size: 0x8, addend: 0x0, symName: __ZNSt3__16vectorINS0_IcNS_9allocatorIcEEEENS1_IS3_EEE16__destroy_vectorC2ERS5_, symObjAddr: 0x12164, symBinAddr: 0x100013E54, symSize: 0x20 }
  - { offsetInCU: 0x35181, offset: 0x35181, size: 0x8, addend: 0x0, symName: __ZNSt3__16vectorI4RoomNS_9allocatorIS1_EEED2B7v160006Ev, symObjAddr: 0x12194, symBinAddr: 0x100013E84, symSize: 0x44 }
  - { offsetInCU: 0x351AB, offset: 0x351AB, size: 0x8, addend: 0x0, symName: __ZNSt3__16vectorI4RoomNS_9allocatorIS1_EEE16__destroy_vectorC1ERS4_, symObjAddr: 0x121D8, symBinAddr: 0x100013EC8, symSize: 0x34 }
  - { offsetInCU: 0x351E4, offset: 0x351E4, size: 0x8, addend: 0x0, symName: __ZNSt3__16vectorI4RoomNS_9allocatorIS1_EEE16__destroy_vectorclB7v160006Ev, symObjAddr: 0x1220C, symBinAddr: 0x100013EFC, symSize: 0x9C }
  - { offsetInCU: 0x3520A, offset: 0x3520A, size: 0x8, addend: 0x0, symName: __ZNSt3__16vectorI4RoomNS_9allocatorIS1_EEE16__destroy_vectorC2ERS4_, symObjAddr: 0x122A8, symBinAddr: 0x100013F98, symSize: 0x20 }
  - { offsetInCU: 0x35243, offset: 0x35243, size: 0x8, addend: 0x0, symName: __ZNKSt3__16vectorI4RoomNS_9allocatorIS1_EEE17__annotate_deleteB7v160006Ev, symObjAddr: 0x122C8, symBinAddr: 0x100013FB8, symSize: 0xD4 }
  - { offsetInCU: 0x35269, offset: 0x35269, size: 0x8, addend: 0x0, symName: __ZNSt3__16vectorI4RoomNS_9allocatorIS1_EEE7__clearB7v160006Ev, symObjAddr: 0x123AC, symBinAddr: 0x10001409C, symSize: 0x28 }
  - { offsetInCU: 0x3528F, offset: 0x3528F, size: 0x8, addend: 0x0, symName: __ZNSt3__116allocator_traitsINS_9allocatorI4RoomEEE10deallocateB7v160006ERS3_PS2_m, symObjAddr: 0x123D4, symBinAddr: 0x1000140C4, symSize: 0x34 }
  - { offsetInCU: 0x352D1, offset: 0x352D1, size: 0x8, addend: 0x0, symName: __ZNSt3__16vectorI4RoomNS_9allocatorIS1_EEE7__allocB7v160006Ev, symObjAddr: 0x12408, symBinAddr: 0x1000140F8, symSize: 0x28 }
  - { offsetInCU: 0x352F7, offset: 0x352F7, size: 0x8, addend: 0x0, symName: __ZNKSt3__16vectorI4RoomNS_9allocatorIS1_EEE8capacityB7v160006Ev, symObjAddr: 0x12430, symBinAddr: 0x100014120, symSize: 0x40 }
  - { offsetInCU: 0x3531D, offset: 0x3531D, size: 0x8, addend: 0x0, symName: __ZNKSt3__16vectorI4RoomNS_9allocatorIS1_EEE31__annotate_contiguous_containerB7v160006EPKvS6_S6_S6_, symObjAddr: 0x12470, symBinAddr: 0x100014160, symSize: 0x20 }
  - { offsetInCU: 0x3536F, offset: 0x3536F, size: 0x8, addend: 0x0, symName: __ZNKSt3__16vectorI4RoomNS_9allocatorIS1_EEE4dataB7v160006Ev, symObjAddr: 0x12490, symBinAddr: 0x100014180, symSize: 0x28 }
  - { offsetInCU: 0x35395, offset: 0x35395, size: 0x8, addend: 0x0, symName: __ZNKSt3__16vectorI4RoomNS_9allocatorIS1_EEE4sizeB7v160006Ev, symObjAddr: 0x124B8, symBinAddr: 0x1000141A8, symSize: 0x28 }
  - { offsetInCU: 0x353BB, offset: 0x353BB, size: 0x8, addend: 0x0, symName: __ZNSt3__16vectorI4RoomNS_9allocatorIS1_EEE22__base_destruct_at_endB7v160006EPS1_, symObjAddr: 0x124F4, symBinAddr: 0x1000141E4, symSize: 0x8C }
  - { offsetInCU: 0x353FF, offset: 0x353FF, size: 0x8, addend: 0x0, symName: __ZNSt3__116allocator_traitsINS_9allocatorI4RoomEEE7destroyB7v160006IS2_vEEvRS3_PT_, symObjAddr: 0x12580, symBinAddr: 0x100014270, symSize: 0x2C }
  - { offsetInCU: 0x3543C, offset: 0x3543C, size: 0x8, addend: 0x0, symName: __ZNSt3__19allocatorI4RoomE7destroyB7v160006EPS1_, symObjAddr: 0x125AC, symBinAddr: 0x10001429C, symSize: 0x28 }
  - { offsetInCU: 0x35470, offset: 0x35470, size: 0x8, addend: 0x0, symName: __ZNSt3__19allocatorI4RoomE10deallocateB7v160006EPS1_m, symObjAddr: 0x125D4, symBinAddr: 0x1000142C4, symSize: 0x44 }
  - { offsetInCU: 0x354B2, offset: 0x354B2, size: 0x8, addend: 0x0, symName: __ZNSt3__117__compressed_pairIP4RoomNS_9allocatorIS1_EEE6secondB7v160006Ev, symObjAddr: 0x12618, symBinAddr: 0x100014308, symSize: 0x24 }
  - { offsetInCU: 0x354D8, offset: 0x354D8, size: 0x8, addend: 0x0, symName: __ZNSt3__122__compressed_pair_elemINS_9allocatorI4RoomEELi1ELb1EE5__getB7v160006Ev, symObjAddr: 0x1263C, symBinAddr: 0x10001432C, symSize: 0x14 }
  - { offsetInCU: 0x354FE, offset: 0x354FE, size: 0x8, addend: 0x0, symName: __ZNKSt3__16vectorI4RoomNS_9allocatorIS1_EEE9__end_capB7v160006Ev, symObjAddr: 0x12650, symBinAddr: 0x100014340, symSize: 0x28 }
  - { offsetInCU: 0x35524, offset: 0x35524, size: 0x8, addend: 0x0, symName: __ZNKSt3__117__compressed_pairIP4RoomNS_9allocatorIS1_EEE5firstB7v160006Ev, symObjAddr: 0x12678, symBinAddr: 0x100014368, symSize: 0x24 }
  - { offsetInCU: 0x3554A, offset: 0x3554A, size: 0x8, addend: 0x0, symName: __ZNKSt3__122__compressed_pair_elemIP4RoomLi0ELb0EE5__getB7v160006Ev, symObjAddr: 0x1269C, symBinAddr: 0x10001438C, symSize: 0x14 }
  - { offsetInCU: 0x35570, offset: 0x35570, size: 0x8, addend: 0x0, symName: __ZNSt3__113unordered_mapIiP4RoomNS_4hashIiEENS_8equal_toIiEENS_9allocatorINS_4pairIKiS2_EEEEED2B7v160006Ev, symObjAddr: 0x126B0, symBinAddr: 0x1000143A0, symSize: 0x2C }
  - { offsetInCU: 0x3559A, offset: 0x3559A, size: 0x8, addend: 0x0, symName: __ZNSt3__112__hash_tableINS_17__hash_value_typeIiP4RoomEENS_22__unordered_map_hasherIiS4_NS_4hashIiEENS_8equal_toIiEELb1EEENS_21__unordered_map_equalIiS4_S9_S7_Lb1EEENS_9allocatorIS4_EEED1Ev, symObjAddr: 0x126DC, symBinAddr: 0x1000143CC, symSize: 0x2C }
  - { offsetInCU: 0x355C6, offset: 0x355C6, size: 0x8, addend: 0x0, symName: __ZNSt3__112__hash_tableINS_17__hash_value_typeIiP4RoomEENS_22__unordered_map_hasherIiS4_NS_4hashIiEENS_8equal_toIiEELb1EEENS_21__unordered_map_equalIiS4_S9_S7_Lb1EEENS_9allocatorIS4_EEED2Ev, symObjAddr: 0x12708, symBinAddr: 0x1000143F8, symSize: 0x58 }
  - { offsetInCU: 0x355F2, offset: 0x355F2, size: 0x8, addend: 0x0, symName: __ZNSt3__112__hash_tableINS_17__hash_value_typeIiP4RoomEENS_22__unordered_map_hasherIiS4_NS_4hashIiEENS_8equal_toIiEELb1EEENS_21__unordered_map_equalIiS4_S9_S7_Lb1EEENS_9allocatorIS4_EEE17__deallocate_nodeEPNS_16__hash_node_baseIPNS_11__hash_nodeIS4_PvEEEE, symObjAddr: 0x12760, symBinAddr: 0x100014450, symSize: 0xA8 }
  - { offsetInCU: 0x3565C, offset: 0x3565C, size: 0x8, addend: 0x0, symName: __ZNSt3__117__compressed_pairINS_16__hash_node_baseIPNS_11__hash_nodeINS_17__hash_value_typeIiP4RoomEEPvEEEENS_9allocatorIS8_EEE5firstB7v160006Ev, symObjAddr: 0x12808, symBinAddr: 0x1000144F8, symSize: 0x24 }
  - { offsetInCU: 0x35682, offset: 0x35682, size: 0x8, addend: 0x0, symName: __ZNSt3__110unique_ptrIA_PNS_16__hash_node_baseIPNS_11__hash_nodeINS_17__hash_value_typeIiP4RoomEEPvEEEENS_25__bucket_list_deallocatorINS_9allocatorISB_EEEEED1B7v160006Ev, symObjAddr: 0x1283C, symBinAddr: 0x10001452C, symSize: 0x2C }
  - { offsetInCU: 0x356AC, offset: 0x356AC, size: 0x8, addend: 0x0, symName: __ZNSt3__112__hash_tableINS_17__hash_value_typeIiP4RoomEENS_22__unordered_map_hasherIiS4_NS_4hashIiEENS_8equal_toIiEELb1EEENS_21__unordered_map_equalIiS4_S9_S7_Lb1EEENS_9allocatorIS4_EEE12__node_allocB7v160006Ev, symObjAddr: 0x12868, symBinAddr: 0x100014558, symSize: 0x28 }
  - { offsetInCU: 0x356D2, offset: 0x356D2, size: 0x8, addend: 0x0, symName: __ZNSt3__116__hash_node_baseIPNS_11__hash_nodeINS_17__hash_value_typeIiP4RoomEEPvEEE8__upcastB7v160006Ev, symObjAddr: 0x12890, symBinAddr: 0x100014580, symSize: 0x24 }
  - { offsetInCU: 0x356F8, offset: 0x356F8, size: 0x8, addend: 0x0, symName: __ZNSt3__116allocator_traitsINS_9allocatorINS_11__hash_nodeINS_17__hash_value_typeIiP4RoomEEPvEEEEE7destroyB7v160006INS_4pairIKiS5_EEvvEEvRS9_PT_, symObjAddr: 0x128B4, symBinAddr: 0x1000145A4, symSize: 0x14 }
  - { offsetInCU: 0x35732, offset: 0x35732, size: 0x8, addend: 0x0, symName: __ZNSt3__122__hash_key_value_typesINS_17__hash_value_typeIiP4RoomEEE9__get_ptrB7v160006ERS4_, symObjAddr: 0x128C8, symBinAddr: 0x1000145B8, symSize: 0x24 }
  - { offsetInCU: 0x35755, offset: 0x35755, size: 0x8, addend: 0x0, symName: __ZNSt3__116allocator_traitsINS_9allocatorINS_11__hash_nodeINS_17__hash_value_typeIiP4RoomEEPvEEEEE10deallocateB7v160006ERS9_PS8_m, symObjAddr: 0x128EC, symBinAddr: 0x1000145DC, symSize: 0x34 }
  - { offsetInCU: 0x35797, offset: 0x35797, size: 0x8, addend: 0x0, symName: __ZNSt3__117__compressed_pairINS_16__hash_node_baseIPNS_11__hash_nodeINS_17__hash_value_typeIiP4RoomEEPvEEEENS_9allocatorIS8_EEE6secondB7v160006Ev, symObjAddr: 0x12920, symBinAddr: 0x100014610, symSize: 0x24 }
  - { offsetInCU: 0x357BD, offset: 0x357BD, size: 0x8, addend: 0x0, symName: __ZNSt3__122__compressed_pair_elemINS_9allocatorINS_11__hash_nodeINS_17__hash_value_typeIiP4RoomEEPvEEEELi1ELb1EE5__getB7v160006Ev, symObjAddr: 0x12944, symBinAddr: 0x100014634, symSize: 0x14 }
  - { offsetInCU: 0x357E3, offset: 0x357E3, size: 0x8, addend: 0x0, symName: __ZNSt3__114pointer_traitsIPNS_16__hash_node_baseIPNS_11__hash_nodeINS_17__hash_value_typeIiP4RoomEEPvEEEEE10pointer_toB7v160006ERSA_, symObjAddr: 0x12958, symBinAddr: 0x100014648, symSize: 0x14 }
  - { offsetInCU: 0x35806, offset: 0x35806, size: 0x8, addend: 0x0, symName: __ZNSt3__117__hash_value_typeIiP4RoomE11__get_valueB7v160006Ev, symObjAddr: 0x1296C, symBinAddr: 0x10001465C, symSize: 0x14 }
  - { offsetInCU: 0x3582C, offset: 0x3582C, size: 0x8, addend: 0x0, symName: __ZNSt3__19allocatorINS_11__hash_nodeINS_17__hash_value_typeIiP4RoomEEPvEEE10deallocateB7v160006EPS7_m, symObjAddr: 0x12980, symBinAddr: 0x100014670, symSize: 0x40 }
  - { offsetInCU: 0x3586E, offset: 0x3586E, size: 0x8, addend: 0x0, symName: __ZNSt3__122__compressed_pair_elemINS_16__hash_node_baseIPNS_11__hash_nodeINS_17__hash_value_typeIiP4RoomEEPvEEEELi0ELb0EE5__getB7v160006Ev, symObjAddr: 0x129C0, symBinAddr: 0x1000146B0, symSize: 0x14 }
  - { offsetInCU: 0x35894, offset: 0x35894, size: 0x8, addend: 0x0, symName: __ZNSt3__110unique_ptrIA_PNS_16__hash_node_baseIPNS_11__hash_nodeINS_17__hash_value_typeIiP4RoomEEPvEEEENS_25__bucket_list_deallocatorINS_9allocatorISB_EEEEED2B7v160006Ev, symObjAddr: 0x129D4, symBinAddr: 0x1000146C4, symSize: 0x30 }
  - { offsetInCU: 0x358BE, offset: 0x358BE, size: 0x8, addend: 0x0, symName: __ZNSt3__110unique_ptrIA_PNS_16__hash_node_baseIPNS_11__hash_nodeINS_17__hash_value_typeIiP4RoomEEPvEEEENS_25__bucket_list_deallocatorINS_9allocatorISB_EEEEE5resetB7v160006EDn, symObjAddr: 0x12A04, symBinAddr: 0x1000146F4, symSize: 0x6C }
  - { offsetInCU: 0x358FE, offset: 0x358FE, size: 0x8, addend: 0x0, symName: __ZNSt3__117__compressed_pairIPPNS_16__hash_node_baseIPNS_11__hash_nodeINS_17__hash_value_typeIiP4RoomEEPvEEEENS_25__bucket_list_deallocatorINS_9allocatorISB_EEEEE5firstB7v160006Ev, symObjAddr: 0x12A70, symBinAddr: 0x100014760, symSize: 0x24 }
  - { offsetInCU: 0x35924, offset: 0x35924, size: 0x8, addend: 0x0, symName: __ZNSt3__117__compressed_pairIPPNS_16__hash_node_baseIPNS_11__hash_nodeINS_17__hash_value_typeIiP4RoomEEPvEEEENS_25__bucket_list_deallocatorINS_9allocatorISB_EEEEE6secondB7v160006Ev, symObjAddr: 0x12A94, symBinAddr: 0x100014784, symSize: 0x28 }
  - { offsetInCU: 0x3594A, offset: 0x3594A, size: 0x8, addend: 0x0, symName: __ZNSt3__125__bucket_list_deallocatorINS_9allocatorIPNS_16__hash_node_baseIPNS_11__hash_nodeINS_17__hash_value_typeIiP4RoomEEPvEEEEEEEclB7v160006EPSC_, symObjAddr: 0x12ABC, symBinAddr: 0x1000147AC, symSize: 0x58 }
  - { offsetInCU: 0x3597F, offset: 0x3597F, size: 0x8, addend: 0x0, symName: __ZNSt3__122__compressed_pair_elemIPPNS_16__hash_node_baseIPNS_11__hash_nodeINS_17__hash_value_typeIiP4RoomEEPvEEEELi0ELb0EE5__getB7v160006Ev, symObjAddr: 0x12B14, symBinAddr: 0x100014804, symSize: 0x14 }
  - { offsetInCU: 0x359A5, offset: 0x359A5, size: 0x8, addend: 0x0, symName: __ZNSt3__122__compressed_pair_elemINS_25__bucket_list_deallocatorINS_9allocatorIPNS_16__hash_node_baseIPNS_11__hash_nodeINS_17__hash_value_typeIiP4RoomEEPvEEEEEEEELi1ELb0EE5__getB7v160006Ev, symObjAddr: 0x12B28, symBinAddr: 0x100014818, symSize: 0x14 }
  - { offsetInCU: 0x359CB, offset: 0x359CB, size: 0x8, addend: 0x0, symName: __ZNSt3__116allocator_traitsINS_9allocatorIPNS_16__hash_node_baseIPNS_11__hash_nodeINS_17__hash_value_typeIiP4RoomEEPvEEEEEEE10deallocateB7v160006ERSD_PSC_m, symObjAddr: 0x12B3C, symBinAddr: 0x10001482C, symSize: 0x34 }
  - { offsetInCU: 0x35A0D, offset: 0x35A0D, size: 0x8, addend: 0x0, symName: __ZNSt3__125__bucket_list_deallocatorINS_9allocatorIPNS_16__hash_node_baseIPNS_11__hash_nodeINS_17__hash_value_typeIiP4RoomEEPvEEEEEEE7__allocB7v160006Ev, symObjAddr: 0x12B70, symBinAddr: 0x100014860, symSize: 0x24 }
  - { offsetInCU: 0x35A33, offset: 0x35A33, size: 0x8, addend: 0x0, symName: __ZNSt3__125__bucket_list_deallocatorINS_9allocatorIPNS_16__hash_node_baseIPNS_11__hash_nodeINS_17__hash_value_typeIiP4RoomEEPvEEEEEEE4sizeB7v160006Ev, symObjAddr: 0x12B94, symBinAddr: 0x100014884, symSize: 0x24 }
  - { offsetInCU: 0x35A59, offset: 0x35A59, size: 0x8, addend: 0x0, symName: __ZNSt3__19allocatorIPNS_16__hash_node_baseIPNS_11__hash_nodeINS_17__hash_value_typeIiP4RoomEEPvEEEEE10deallocateB7v160006EPSB_m, symObjAddr: 0x12BB8, symBinAddr: 0x1000148A8, symSize: 0x40 }
  - { offsetInCU: 0x35A9B, offset: 0x35A9B, size: 0x8, addend: 0x0, symName: __ZNSt3__117__compressed_pairImNS_9allocatorIPNS_16__hash_node_baseIPNS_11__hash_nodeINS_17__hash_value_typeIiP4RoomEEPvEEEEEEE6secondB7v160006Ev, symObjAddr: 0x12BF8, symBinAddr: 0x1000148E8, symSize: 0x24 }
  - { offsetInCU: 0x35AC1, offset: 0x35AC1, size: 0x8, addend: 0x0, symName: __ZNSt3__122__compressed_pair_elemINS_9allocatorIPNS_16__hash_node_baseIPNS_11__hash_nodeINS_17__hash_value_typeIiP4RoomEEPvEEEEEELi1ELb1EE5__getB7v160006Ev, symObjAddr: 0x12C1C, symBinAddr: 0x10001490C, symSize: 0x14 }
  - { offsetInCU: 0x35AE7, offset: 0x35AE7, size: 0x8, addend: 0x0, symName: __ZNSt3__117__compressed_pairImNS_9allocatorIPNS_16__hash_node_baseIPNS_11__hash_nodeINS_17__hash_value_typeIiP4RoomEEPvEEEEEEE5firstB7v160006Ev, symObjAddr: 0x12C30, symBinAddr: 0x100014920, symSize: 0x24 }
  - { offsetInCU: 0x35B0D, offset: 0x35B0D, size: 0x8, addend: 0x0, symName: __ZN5PointeqERKS_, symObjAddr: 0x12C54, symBinAddr: 0x100014944, symSize: 0x68 }
  - { offsetInCU: 0x35B5F, offset: 0x35B5F, size: 0x8, addend: 0x0, symName: __ZNKSt3__113basic_ostreamIcNS_11char_traitsIcEEE6sentrycvbB7v160006Ev, symObjAddr: 0x12EDC, symBinAddr: 0x100014BCC, symSize: 0x1C }
  - { offsetInCU: 0x35B85, offset: 0x35B85, size: 0x8, addend: 0x0, symName: __ZNSt3__119ostreambuf_iteratorIcNS_11char_traitsIcEEEC1B7v160006ERNS_13basic_ostreamIcS2_EE, symObjAddr: 0x13138, symBinAddr: 0x100014E28, symSize: 0x34 }
  - { offsetInCU: 0x35BBD, offset: 0x35BBD, size: 0x8, addend: 0x0, symName: __ZNKSt3__18ios_base5flagsB7v160006Ev, symObjAddr: 0x1316C, symBinAddr: 0x100014E5C, symSize: 0x18 }
  - { offsetInCU: 0x35BE5, offset: 0x35BE5, size: 0x8, addend: 0x0, symName: __ZNKSt3__19basic_iosIcNS_11char_traitsIcEEE4fillB7v160006Ev, symObjAddr: 0x13184, symBinAddr: 0x100014E74, symSize: 0x64 }
  - { offsetInCU: 0x35C0D, offset: 0x35C0D, size: 0x8, addend: 0x0, symName: __ZNKSt3__119ostreambuf_iteratorIcNS_11char_traitsIcEEE6failedB7v160006Ev, symObjAddr: 0x131E8, symBinAddr: 0x100014ED8, symSize: 0x24 }
  - { offsetInCU: 0x35C33, offset: 0x35C33, size: 0x8, addend: 0x0, symName: __ZNSt3__19basic_iosIcNS_11char_traitsIcEEE8setstateB7v160006Ej, symObjAddr: 0x1320C, symBinAddr: 0x100014EFC, symSize: 0x2C }
  - { offsetInCU: 0x35C68, offset: 0x35C68, size: 0x8, addend: 0x0, symName: __ZNKSt3__18ios_base5widthB7v160006Ev, symObjAddr: 0x13238, symBinAddr: 0x100014F28, symSize: 0x18 }
  - { offsetInCU: 0x35C90, offset: 0x35C90, size: 0x8, addend: 0x0, symName: __ZNSt3__115basic_streambufIcNS_11char_traitsIcEEE5sputnB7v160006EPKcl, symObjAddr: 0x13250, symBinAddr: 0x100014F40, symSize: 0x3C }
  - { offsetInCU: 0x35CD2, offset: 0x35CD2, size: 0x8, addend: 0x0, symName: __ZNSt3__112basic_stringIcNS_11char_traitsIcEENS_9allocatorIcEEEC1B7v160006Emc, symObjAddr: 0x1328C, symBinAddr: 0x100014F7C, symSize: 0x3C }
  - { offsetInCU: 0x35D1A, offset: 0x35D1A, size: 0x8, addend: 0x0, symName: __ZNKSt3__112basic_stringIcNS_11char_traitsIcEENS_9allocatorIcEEE4dataB7v160006Ev, symObjAddr: 0x132C8, symBinAddr: 0x100014FB8, symSize: 0x28 }
  - { offsetInCU: 0x35D40, offset: 0x35D40, size: 0x8, addend: 0x0, symName: __ZNSt3__18ios_base5widthB7v160006El, symObjAddr: 0x132F0, symBinAddr: 0x100014FE0, symSize: 0x2C }
  - { offsetInCU: 0x35D86, offset: 0x35D86, size: 0x8, addend: 0x0, symName: __ZNSt3__112basic_stringIcNS_11char_traitsIcEENS_9allocatorIcEEEC2B7v160006Emc, symObjAddr: 0x1331C, symBinAddr: 0x10001500C, symSize: 0x54 }
  - { offsetInCU: 0x35DCE, offset: 0x35DCE, size: 0x8, addend: 0x0, symName: __ZNSt3__117__compressed_pairINS_12basic_stringIcNS_11char_traitsIcEENS_9allocatorIcEEE5__repES5_EC1B7v160006INS_18__default_init_tagESA_EEOT_OT0_, symObjAddr: 0x13370, symBinAddr: 0x100015060, symSize: 0x3C }
  - { offsetInCU: 0x35E26, offset: 0x35E26, size: 0x8, addend: 0x0, symName: __ZNSt3__117__compressed_pairINS_12basic_stringIcNS_11char_traitsIcEENS_9allocatorIcEEE5__repES5_EC2B7v160006INS_18__default_init_tagESA_EEOT_OT0_, symObjAddr: 0x133BC, symBinAddr: 0x1000150AC, symSize: 0x3C }
  - { offsetInCU: 0x35E7E, offset: 0x35E7E, size: 0x8, addend: 0x0, symName: __ZNSt3__122__compressed_pair_elemINS_12basic_stringIcNS_11char_traitsIcEENS_9allocatorIcEEE5__repELi0ELb0EEC2B7v160006ENS_18__default_init_tagE, symObjAddr: 0x133F8, symBinAddr: 0x1000150E8, symSize: 0x14 }
  - { offsetInCU: 0x35EB2, offset: 0x35EB2, size: 0x8, addend: 0x0, symName: __ZNKSt3__112basic_stringIcNS_11char_traitsIcEENS_9allocatorIcEEE13__get_pointerB7v160006Ev, symObjAddr: 0x1340C, symBinAddr: 0x1000150FC, symSize: 0x54 }
  - { offsetInCU: 0x35ED8, offset: 0x35ED8, size: 0x8, addend: 0x0, symName: __ZNKSt3__112basic_stringIcNS_11char_traitsIcEENS_9allocatorIcEEE9__is_longB7v160006Ev, symObjAddr: 0x13460, symBinAddr: 0x100015150, symSize: 0x38 }
  - { offsetInCU: 0x35EFE, offset: 0x35EFE, size: 0x8, addend: 0x0, symName: __ZNKSt3__112basic_stringIcNS_11char_traitsIcEENS_9allocatorIcEEE18__get_long_pointerB7v160006Ev, symObjAddr: 0x13498, symBinAddr: 0x100015188, symSize: 0x28 }
  - { offsetInCU: 0x35F24, offset: 0x35F24, size: 0x8, addend: 0x0, symName: __ZNKSt3__112basic_stringIcNS_11char_traitsIcEENS_9allocatorIcEEE19__get_short_pointerB7v160006Ev, symObjAddr: 0x134C0, symBinAddr: 0x1000151B0, symSize: 0x28 }
  - { offsetInCU: 0x35F4A, offset: 0x35F4A, size: 0x8, addend: 0x0, symName: __ZNKSt3__117__compressed_pairINS_12basic_stringIcNS_11char_traitsIcEENS_9allocatorIcEEE5__repES5_E5firstB7v160006Ev, symObjAddr: 0x134E8, symBinAddr: 0x1000151D8, symSize: 0x24 }
  - { offsetInCU: 0x35F70, offset: 0x35F70, size: 0x8, addend: 0x0, symName: __ZNKSt3__122__compressed_pair_elemINS_12basic_stringIcNS_11char_traitsIcEENS_9allocatorIcEEE5__repELi0ELb0EE5__getB7v160006Ev, symObjAddr: 0x1350C, symBinAddr: 0x1000151FC, symSize: 0x14 }
  - { offsetInCU: 0x35F96, offset: 0x35F96, size: 0x8, addend: 0x0, symName: __ZNSt3__114pointer_traitsIPKcE10pointer_toB7v160006ERS1_, symObjAddr: 0x13520, symBinAddr: 0x100015210, symSize: 0x14 }
  - { offsetInCU: 0x35FB9, offset: 0x35FB9, size: 0x8, addend: 0x0, symName: __ZNSt3__119ostreambuf_iteratorIcNS_11char_traitsIcEEEC2B7v160006ERNS_13basic_ostreamIcS2_EE, symObjAddr: 0x13534, symBinAddr: 0x100015224, symSize: 0x54 }
  - { offsetInCU: 0x35FF1, offset: 0x35FF1, size: 0x8, addend: 0x0, symName: __ZNKSt3__19basic_iosIcNS_11char_traitsIcEEE5rdbufB7v160006Ev, symObjAddr: 0x13588, symBinAddr: 0x100015278, symSize: 0x24 }
  - { offsetInCU: 0x36019, offset: 0x36019, size: 0x8, addend: 0x0, symName: __ZNKSt3__18ios_base5rdbufB7v160006Ev, symObjAddr: 0x135AC, symBinAddr: 0x10001529C, symSize: 0x18 }
  - { offsetInCU: 0x3603F, offset: 0x3603F, size: 0x8, addend: 0x0, symName: __ZNSt3__111char_traitsIcE11eq_int_typeEii, symObjAddr: 0x135C4, symBinAddr: 0x1000152B4, symSize: 0x28 }
  - { offsetInCU: 0x36070, offset: 0x36070, size: 0x8, addend: 0x0, symName: __ZNSt3__111char_traitsIcE3eofEv, symObjAddr: 0x135EC, symBinAddr: 0x1000152DC, symSize: 0x8 }
  - { offsetInCU: 0x36084, offset: 0x36084, size: 0x8, addend: 0x0, symName: __ZNKSt3__19basic_iosIcNS_11char_traitsIcEEE5widenB7v160006Ec, symObjAddr: 0x135F4, symBinAddr: 0x1000152E4, symSize: 0x84 }
  - { offsetInCU: 0x360E8, offset: 0x360E8, size: 0x8, addend: 0x0, symName: __ZNKSt3__15ctypeIcE5widenB7v160006Ec, symObjAddr: 0x136A4, symBinAddr: 0x100015394, symSize: 0x38 }
  - { offsetInCU: 0x3611D, offset: 0x3611D, size: 0x8, addend: 0x0, symName: __ZNSt3__18ios_base8setstateB7v160006Ej, symObjAddr: 0x136DC, symBinAddr: 0x1000153CC, symSize: 0x34 }
  - { offsetInCU: 0x36154, offset: 0x36154, size: 0x8, addend: 0x0, symName: __ZN5Input6getKeyEv, symObjAddr: 0x13710, symBinAddr: 0x100015400, symSize: 0xAC }
  - { offsetInCU: 0x36177, offset: 0x36177, size: 0x8, addend: 0x0, symName: __ZNSt3__14pairIKccEC1B7v160006IccLPv0EEEOT_OT0_, symObjAddr: 0x137BC, symBinAddr: 0x1000154AC, symSize: 0x3C }
  - { offsetInCU: 0x3628C, offset: 0x3628C, size: 0x8, addend: 0x0, symName: __ZNSt3__113unordered_mapIccNS_4hashIcEENS_8equal_toIcEENS_9allocatorINS_4pairIKccEEEEEC1ESt16initializer_listIS8_E, symObjAddr: 0x137F8, symBinAddr: 0x1000154E8, symSize: 0x3C }
  - { offsetInCU: 0x362C6, offset: 0x362C6, size: 0x8, addend: 0x0, symName: __Z13getValueIndexI5PointEiRKNSt3__16vectorIT_NS1_9allocatorIS3_EEEERKS3_, symObjAddr: 0x13834, symBinAddr: 0x100015524, symSize: 0xB8 }
  - { offsetInCU: 0x36318, offset: 0x36318, size: 0x8, addend: 0x0, symName: __ZNSt3__113unordered_mapIiP4RoomNS_4hashIiEENS_8equal_toIiEENS_9allocatorINS_4pairIKiS2_EEEEEixERS9_, symObjAddr: 0x138EC, symBinAddr: 0x1000155DC, symSize: 0x80 }
  - { offsetInCU: 0x3634F, offset: 0x3634F, size: 0x8, addend: 0x0, symName: __ZNSt3__113unordered_mapIccNS_4hashIcEENS_8equal_toIcEENS_9allocatorINS_4pairIKccEEEEEixERS7_, symObjAddr: 0x1396C, symBinAddr: 0x10001565C, symSize: 0x80 }
  - { offsetInCU: 0x36386, offset: 0x36386, size: 0x8, addend: 0x0, symName: __ZNSt3__16vectorI5PointNS_9allocatorIS1_EEEixB7v160006Em, symObjAddr: 0x139EC, symBinAddr: 0x1000156DC, symSize: 0x24 }
  - { offsetInCU: 0x363BD, offset: 0x363BD, size: 0x8, addend: 0x0, symName: __ZNSt3__16vectorI4RoomNS_9allocatorIS1_EEE9push_backB7v160006EOS1_, symObjAddr: 0x13A10, symBinAddr: 0x100015700, symSize: 0x6C }
  - { offsetInCU: 0x363F4, offset: 0x363F4, size: 0x8, addend: 0x0, symName: __ZN4RoomC1ERKiS1_RKcPS_, symObjAddr: 0x13A7C, symBinAddr: 0x10001576C, symSize: 0x4C }
  - { offsetInCU: 0x36456, offset: 0x36456, size: 0x8, addend: 0x0, symName: __ZNSt3__16vectorI4RoomNS_9allocatorIS1_EEEixB7v160006Em, symObjAddr: 0x13AC8, symBinAddr: 0x1000157B8, symSize: 0x2C }
  - { offsetInCU: 0x3648D, offset: 0x3648D, size: 0x8, addend: 0x0, symName: __ZNSt3__113unordered_mapIccNS_4hashIcEENS_8equal_toIcEENS_9allocatorINS_4pairIKccEEEEED1B7v160006Ev, symObjAddr: 0x13AF4, symBinAddr: 0x1000157E4, symSize: 0x2C }
  - { offsetInCU: 0x364B7, offset: 0x364B7, size: 0x8, addend: 0x0, symName: __ZNSt3__112basic_stringIcNS_11char_traitsIcEENS_9allocatorIcEEEC1B7v160006Ev, symObjAddr: 0x13B20, symBinAddr: 0x100015810, symSize: 0x2C }
  - { offsetInCU: 0x364E1, offset: 0x364E1, size: 0x8, addend: 0x0, symName: __ZNKSt3__112basic_stringIcNS_11char_traitsIcEENS_9allocatorIcEEE4sizeB7v160006Ev, symObjAddr: 0x13E58, symBinAddr: 0x100015B48, symSize: 0x54 }
  - { offsetInCU: 0x36507, offset: 0x36507, size: 0x8, addend: 0x0, symName: __ZNSt3__112basic_stringIcNS_11char_traitsIcEENS_9allocatorIcEEEixB7v160006Em, symObjAddr: 0x13EAC, symBinAddr: 0x100015B9C, symSize: 0x30 }
  - { offsetInCU: 0x3653C, offset: 0x3653C, size: 0x8, addend: 0x0, symName: __ZNSt3__112basic_stringIcNS_11char_traitsIcEENS_9allocatorIcEEEC2B7v160006Ev, symObjAddr: 0x13EDC, symBinAddr: 0x100015BCC, symSize: 0x50 }
  - { offsetInCU: 0x36566, offset: 0x36566, size: 0x8, addend: 0x0, symName: __ZNSt3__112basic_stringIcNS_11char_traitsIcEENS_9allocatorIcEEE14__default_initB7v160006Ev, symObjAddr: 0x13F2C, symBinAddr: 0x100015C1C, symSize: 0x40 }
  - { offsetInCU: 0x3658C, offset: 0x3658C, size: 0x8, addend: 0x0, symName: __ZNSt3__117__compressed_pairINS_12basic_stringIcNS_11char_traitsIcEENS_9allocatorIcEEE5__repES5_E5firstB7v160006Ev, symObjAddr: 0x13F6C, symBinAddr: 0x100015C5C, symSize: 0x24 }
  - { offsetInCU: 0x365B2, offset: 0x365B2, size: 0x8, addend: 0x0, symName: __ZNSt3__122__compressed_pair_elemINS_12basic_stringIcNS_11char_traitsIcEENS_9allocatorIcEEE5__repELi0ELb0EE5__getB7v160006Ev, symObjAddr: 0x13F90, symBinAddr: 0x100015C80, symSize: 0x14 }
  - { offsetInCU: 0x36658, offset: 0x36658, size: 0x8, addend: 0x0, symName: __ZNKSt3__113basic_istreamIcNS_11char_traitsIcEEE6sentrycvbB7v160006Ev, symObjAddr: 0x13FA4, symBinAddr: 0x100015C94, symSize: 0x1C }
  - { offsetInCU: 0x3667E, offset: 0x3667E, size: 0x8, addend: 0x0, symName: __ZNSt3__112basic_stringIcNS_11char_traitsIcEENS_9allocatorIcEEE5clearB7v160006Ev, symObjAddr: 0x13FC0, symBinAddr: 0x100015CB0, symSize: 0x88 }
  - { offsetInCU: 0x366A6, offset: 0x366A6, size: 0x8, addend: 0x0, symName: __ZNKSt3__112basic_stringIcNS_11char_traitsIcEENS_9allocatorIcEEE8max_sizeB7v160006Ev, symObjAddr: 0x14048, symBinAddr: 0x100015D38, symSize: 0xAC }
  - { offsetInCU: 0x366F8, offset: 0x366F8, size: 0x8, addend: 0x0, symName: __ZNSt3__115basic_streambufIcNS_11char_traitsIcEEE5sgetcB7v160006Ev, symObjAddr: 0x140F4, symBinAddr: 0x100015DE4, symSize: 0x70 }
  - { offsetInCU: 0x3671E, offset: 0x3671E, size: 0x8, addend: 0x0, symName: __ZNSt3__111char_traitsIcE12to_char_typeEi, symObjAddr: 0x14164, symBinAddr: 0x100015E54, symSize: 0x18 }
  - { offsetInCU: 0x36741, offset: 0x36741, size: 0x8, addend: 0x0, symName: __ZNKSt3__15ctypeIcE2isB7v160006Ejc, symObjAddr: 0x1417C, symBinAddr: 0x100015E6C, symSize: 0x7C }
  - { offsetInCU: 0x36785, offset: 0x36785, size: 0x8, addend: 0x0, symName: __ZNSt3__115basic_streambufIcNS_11char_traitsIcEEE6sbumpcB7v160006Ev, symObjAddr: 0x141F8, symBinAddr: 0x100015EE8, symSize: 0x78 }
  - { offsetInCU: 0x367AB, offset: 0x367AB, size: 0x8, addend: 0x0, symName: __ZNSt3__18ios_base18__setstate_nothrowB7v160006Ej, symObjAddr: 0x14270, symBinAddr: 0x100015F60, symSize: 0x64 }
  - { offsetInCU: 0x367E0, offset: 0x367E0, size: 0x8, addend: 0x0, symName: __ZNKSt3__19basic_iosIcNS_11char_traitsIcEEE10exceptionsB7v160006Ev, symObjAddr: 0x142D4, symBinAddr: 0x100015FC4, symSize: 0x24 }
  - { offsetInCU: 0x36806, offset: 0x36806, size: 0x8, addend: 0x0, symName: __ZNSt3__111char_traitsIcE6assignERcRKc, symObjAddr: 0x14308, symBinAddr: 0x100015FF8, symSize: 0x24 }
  - { offsetInCU: 0x36837, offset: 0x36837, size: 0x8, addend: 0x0, symName: __ZNSt3__112basic_stringIcNS_11char_traitsIcEENS_9allocatorIcEEE18__get_long_pointerB7v160006Ev, symObjAddr: 0x1432C, symBinAddr: 0x10001601C, symSize: 0x28 }
  - { offsetInCU: 0x3685D, offset: 0x3685D, size: 0x8, addend: 0x0, symName: __ZNSt3__112basic_stringIcNS_11char_traitsIcEENS_9allocatorIcEEE15__set_long_sizeB7v160006Em, symObjAddr: 0x14354, symBinAddr: 0x100016044, symSize: 0x38 }
  - { offsetInCU: 0x36892, offset: 0x36892, size: 0x8, addend: 0x0, symName: __ZNSt3__112basic_stringIcNS_11char_traitsIcEENS_9allocatorIcEEE19__get_short_pointerB7v160006Ev, symObjAddr: 0x1438C, symBinAddr: 0x10001607C, symSize: 0x28 }
  - { offsetInCU: 0x368B8, offset: 0x368B8, size: 0x8, addend: 0x0, symName: __ZNSt3__112basic_stringIcNS_11char_traitsIcEENS_9allocatorIcEEE16__set_short_sizeB7v160006Em, symObjAddr: 0x143B4, symBinAddr: 0x1000160A4, symSize: 0x78 }
  - { offsetInCU: 0x368ED, offset: 0x368ED, size: 0x8, addend: 0x0, symName: __ZNSt3__114pointer_traitsIPcE10pointer_toB7v160006ERc, symObjAddr: 0x1442C, symBinAddr: 0x10001611C, symSize: 0x14 }
  - { offsetInCU: 0x36910, offset: 0x36910, size: 0x8, addend: 0x0, symName: __ZNKSt3__112basic_stringIcNS_11char_traitsIcEENS_9allocatorIcEEE7__allocB7v160006Ev, symObjAddr: 0x14440, symBinAddr: 0x100016130, symSize: 0x24 }
  - { offsetInCU: 0x36936, offset: 0x36936, size: 0x8, addend: 0x0, symName: __ZNSt3__114numeric_limitsImE3maxB7v160006Ev, symObjAddr: 0x14464, symBinAddr: 0x100016154, symSize: 0x14 }
  - { offsetInCU: 0x3694A, offset: 0x3694A, size: 0x8, addend: 0x0, symName: __ZNKSt3__117__compressed_pairINS_12basic_stringIcNS_11char_traitsIcEENS_9allocatorIcEEE5__repES5_E6secondB7v160006Ev, symObjAddr: 0x14478, symBinAddr: 0x100016168, symSize: 0x24 }
  - { offsetInCU: 0x36970, offset: 0x36970, size: 0x8, addend: 0x0, symName: __ZNSt3__123__libcpp_numeric_limitsImLb1EE3maxB7v160006Ev, symObjAddr: 0x1449C, symBinAddr: 0x10001618C, symSize: 0x8 }
  - { offsetInCU: 0x36984, offset: 0x36984, size: 0x8, addend: 0x0, symName: __ZNSt3__111char_traitsIcE11to_int_typeEc, symObjAddr: 0x144A4, symBinAddr: 0x100016194, symSize: 0x14 }
  - { offsetInCU: 0x369A6, offset: 0x369A6, size: 0x8, addend: 0x0, symName: __Z7isasciii, symObjAddr: 0x144B8, symBinAddr: 0x1000161A8, symSize: 0x24 }
  - { offsetInCU: 0x369D3, offset: 0x369D3, size: 0x8, addend: 0x0, symName: __ZNKSt3__18ios_base10exceptionsB7v160006Ev, symObjAddr: 0x144DC, symBinAddr: 0x1000161CC, symSize: 0x18 }
  - { offsetInCU: 0x369FB, offset: 0x369FB, size: 0x8, addend: 0x0, symName: __ZNKSt3__112basic_stringIcNS_11char_traitsIcEENS_9allocatorIcEEE15__get_long_sizeB7v160006Ev, symObjAddr: 0x144F4, symBinAddr: 0x1000161E4, symSize: 0x28 }
  - { offsetInCU: 0x36A21, offset: 0x36A21, size: 0x8, addend: 0x0, symName: __ZNKSt3__112basic_stringIcNS_11char_traitsIcEENS_9allocatorIcEEE16__get_short_sizeB7v160006Ev, symObjAddr: 0x1451C, symBinAddr: 0x10001620C, symSize: 0x34 }
  - { offsetInCU: 0x36A47, offset: 0x36A47, size: 0x8, addend: 0x0, symName: __ZNSt3__112basic_stringIcNS_11char_traitsIcEENS_9allocatorIcEEE13__get_pointerB7v160006Ev, symObjAddr: 0x14550, symBinAddr: 0x100016240, symSize: 0x54 }
  - { offsetInCU: 0x36A6D, offset: 0x36A6D, size: 0x8, addend: 0x0, symName: __ZNSt3__14pairIKccEC2B7v160006IccLPv0EEEOT_OT0_, symObjAddr: 0x145A4, symBinAddr: 0x100016294, symSize: 0x34 }
  - { offsetInCU: 0x36ACB, offset: 0x36ACB, size: 0x8, addend: 0x0, symName: __ZNSt3__113unordered_mapIccNS_4hashIcEENS_8equal_toIcEENS_9allocatorINS_4pairIKccEEEEEC2ESt16initializer_listIS8_E, symObjAddr: 0x145D8, symBinAddr: 0x1000162C8, symSize: 0x94 }
  - { offsetInCU: 0x36B06, offset: 0x36B06, size: 0x8, addend: 0x0, symName: __ZNSt3__112__hash_tableINS_17__hash_value_typeIccEENS_22__unordered_map_hasherIcS2_NS_4hashIcEENS_8equal_toIcEELb1EEENS_21__unordered_map_equalIcS2_S7_S5_Lb1EEENS_9allocatorIS2_EEEC1Ev, symObjAddr: 0x1466C, symBinAddr: 0x10001635C, symSize: 0x2C }
  - { offsetInCU: 0x36B32, offset: 0x36B32, size: 0x8, addend: 0x0, symName: __ZNSt3__113unordered_mapIccNS_4hashIcEENS_8equal_toIcEENS_9allocatorINS_4pairIKccEEEEE6insertIPKS8_EEvT_SE_, symObjAddr: 0x146A8, symBinAddr: 0x100016398, symSize: 0x70 }
  - { offsetInCU: 0x36B81, offset: 0x36B81, size: 0x8, addend: 0x0, symName: __ZNKSt16initializer_listINSt3__14pairIKccEEE5beginB7v160006Ev, symObjAddr: 0x14718, symBinAddr: 0x100016408, symSize: 0x18 }
  - { offsetInCU: 0x36BA7, offset: 0x36BA7, size: 0x8, addend: 0x0, symName: __ZNKSt16initializer_listINSt3__14pairIKccEEE3endB7v160006Ev, symObjAddr: 0x14730, symBinAddr: 0x100016420, symSize: 0x20 }
  - { offsetInCU: 0x36BCD, offset: 0x36BCD, size: 0x8, addend: 0x0, symName: __ZNSt3__112__hash_tableINS_17__hash_value_typeIccEENS_22__unordered_map_hasherIcS2_NS_4hashIcEENS_8equal_toIcEELb1EEENS_21__unordered_map_equalIcS2_S7_S5_Lb1EEENS_9allocatorIS2_EEED1Ev, symObjAddr: 0x14750, symBinAddr: 0x100016440, symSize: 0x2C }
  - { offsetInCU: 0x36BF9, offset: 0x36BF9, size: 0x8, addend: 0x0, symName: __ZNSt3__112__hash_tableINS_17__hash_value_typeIccEENS_22__unordered_map_hasherIcS2_NS_4hashIcEENS_8equal_toIcEELb1EEENS_21__unordered_map_equalIcS2_S7_S5_Lb1EEENS_9allocatorIS2_EEEC2Ev, symObjAddr: 0x1477C, symBinAddr: 0x10001646C, symSize: 0x7C }
  - { offsetInCU: 0x36C25, offset: 0x36C25, size: 0x8, addend: 0x0, symName: __ZNSt3__110unique_ptrIA_PNS_16__hash_node_baseIPNS_11__hash_nodeINS_17__hash_value_typeIccEEPvEEEENS_25__bucket_list_deallocatorINS_9allocatorIS9_EEEEEC1B7v160006ILb1EvEEv, symObjAddr: 0x147F8, symBinAddr: 0x1000164E8, symSize: 0x2C }
  - { offsetInCU: 0x36C5A, offset: 0x36C5A, size: 0x8, addend: 0x0, symName: __ZNSt3__117__compressed_pairINS_16__hash_node_baseIPNS_11__hash_nodeINS_17__hash_value_typeIccEEPvEEEENS_9allocatorIS6_EEEC1B7v160006ILb1EvEEv, symObjAddr: 0x14824, symBinAddr: 0x100016514, symSize: 0x2C }
  - { offsetInCU: 0x36C8F, offset: 0x36C8F, size: 0x8, addend: 0x0, symName: __ZNSt3__117__compressed_pairImNS_22__unordered_map_hasherIcNS_17__hash_value_typeIccEENS_4hashIcEENS_8equal_toIcEELb1EEEEC1B7v160006IiNS_18__default_init_tagEEEOT_OT0_, symObjAddr: 0x14850, symBinAddr: 0x100016540, symSize: 0x3C }
  - { offsetInCU: 0x36CE7, offset: 0x36CE7, size: 0x8, addend: 0x0, symName: __ZNSt3__117__compressed_pairIfNS_21__unordered_map_equalIcNS_17__hash_value_typeIccEENS_8equal_toIcEENS_4hashIcEELb1EEEEC1B7v160006IfNS_18__default_init_tagEEEOT_OT0_, symObjAddr: 0x1488C, symBinAddr: 0x10001657C, symSize: 0x3C }
  - { offsetInCU: 0x36D3F, offset: 0x36D3F, size: 0x8, addend: 0x0, symName: __ZNSt3__110unique_ptrIA_PNS_16__hash_node_baseIPNS_11__hash_nodeINS_17__hash_value_typeIccEEPvEEEENS_25__bucket_list_deallocatorINS_9allocatorIS9_EEEEEC2B7v160006ILb1EvEEv, symObjAddr: 0x148C8, symBinAddr: 0x1000165B8, symSize: 0x3C }
  - { offsetInCU: 0x36D74, offset: 0x36D74, size: 0x8, addend: 0x0, symName: __ZNSt3__117__compressed_pairIPPNS_16__hash_node_baseIPNS_11__hash_nodeINS_17__hash_value_typeIccEEPvEEEENS_25__bucket_list_deallocatorINS_9allocatorIS9_EEEEEC1B7v160006INS_16__value_init_tagESH_EEOT_OT0_, symObjAddr: 0x14904, symBinAddr: 0x1000165F4, symSize: 0x3C }
  - { offsetInCU: 0x36DCC, offset: 0x36DCC, size: 0x8, addend: 0x0, symName: __ZNSt3__117__compressed_pairIPPNS_16__hash_node_baseIPNS_11__hash_nodeINS_17__hash_value_typeIccEEPvEEEENS_25__bucket_list_deallocatorINS_9allocatorIS9_EEEEEC2B7v160006INS_16__value_init_tagESH_EEOT_OT0_, symObjAddr: 0x14940, symBinAddr: 0x100016630, symSize: 0x40 }
  - { offsetInCU: 0x36E24, offset: 0x36E24, size: 0x8, addend: 0x0, symName: __ZNSt3__122__compressed_pair_elemIPPNS_16__hash_node_baseIPNS_11__hash_nodeINS_17__hash_value_typeIccEEPvEEEELi0ELb0EEC2B7v160006ENS_16__value_init_tagE, symObjAddr: 0x14980, symBinAddr: 0x100016670, symSize: 0x18 }
  - { offsetInCU: 0x36E58, offset: 0x36E58, size: 0x8, addend: 0x0, symName: __ZNSt3__122__compressed_pair_elemINS_25__bucket_list_deallocatorINS_9allocatorIPNS_16__hash_node_baseIPNS_11__hash_nodeINS_17__hash_value_typeIccEEPvEEEEEEEELi1ELb0EEC2B7v160006ENS_16__value_init_tagE, symObjAddr: 0x14998, symBinAddr: 0x100016688, symSize: 0x2C }
  - { offsetInCU: 0x36E8C, offset: 0x36E8C, size: 0x8, addend: 0x0, symName: __ZNSt3__125__bucket_list_deallocatorINS_9allocatorIPNS_16__hash_node_baseIPNS_11__hash_nodeINS_17__hash_value_typeIccEEPvEEEEEEEC1B7v160006Ev, symObjAddr: 0x149C4, symBinAddr: 0x1000166B4, symSize: 0x2C }
  - { offsetInCU: 0x36EB6, offset: 0x36EB6, size: 0x8, addend: 0x0, symName: __ZNSt3__125__bucket_list_deallocatorINS_9allocatorIPNS_16__hash_node_baseIPNS_11__hash_nodeINS_17__hash_value_typeIccEEPvEEEEEEEC2B7v160006Ev, symObjAddr: 0x149F0, symBinAddr: 0x1000166E0, symSize: 0x40 }
  - { offsetInCU: 0x36EE0, offset: 0x36EE0, size: 0x8, addend: 0x0, symName: __ZNSt3__117__compressed_pairImNS_9allocatorIPNS_16__hash_node_baseIPNS_11__hash_nodeINS_17__hash_value_typeIccEEPvEEEEEEEC1B7v160006IiNS_18__default_init_tagEEEOT_OT0_, symObjAddr: 0x14A30, symBinAddr: 0x100016720, symSize: 0x3C }
  - { offsetInCU: 0x36F38, offset: 0x36F38, size: 0x8, addend: 0x0, symName: __ZNSt3__117__compressed_pairImNS_9allocatorIPNS_16__hash_node_baseIPNS_11__hash_nodeINS_17__hash_value_typeIccEEPvEEEEEEEC2B7v160006IiNS_18__default_init_tagEEEOT_OT0_, symObjAddr: 0x14A6C, symBinAddr: 0x10001675C, symSize: 0x40 }
  - { offsetInCU: 0x36F90, offset: 0x36F90, size: 0x8, addend: 0x0, symName: __ZNSt3__122__compressed_pair_elemINS_9allocatorIPNS_16__hash_node_baseIPNS_11__hash_nodeINS_17__hash_value_typeIccEEPvEEEEEELi1ELb1EEC2B7v160006ENS_18__default_init_tagE, symObjAddr: 0x14AAC, symBinAddr: 0x10001679C, symSize: 0x2C }
  - { offsetInCU: 0x36FC4, offset: 0x36FC4, size: 0x8, addend: 0x0, symName: __ZNSt3__19allocatorIPNS_16__hash_node_baseIPNS_11__hash_nodeINS_17__hash_value_typeIccEEPvEEEEEC2B7v160006Ev, symObjAddr: 0x14AD8, symBinAddr: 0x1000167C8, symSize: 0x2C }
  - { offsetInCU: 0x36FEE, offset: 0x36FEE, size: 0x8, addend: 0x0, symName: __ZNSt3__116__non_trivial_ifILb1ENS_9allocatorIPNS_16__hash_node_baseIPNS_11__hash_nodeINS_17__hash_value_typeIccEEPvEEEEEEEC2B7v160006Ev, symObjAddr: 0x14B04, symBinAddr: 0x1000167F4, symSize: 0x14 }
  - { offsetInCU: 0x37018, offset: 0x37018, size: 0x8, addend: 0x0, symName: __ZNSt3__117__compressed_pairINS_16__hash_node_baseIPNS_11__hash_nodeINS_17__hash_value_typeIccEEPvEEEENS_9allocatorIS6_EEEC2B7v160006ILb1EvEEv, symObjAddr: 0x14B18, symBinAddr: 0x100016808, symSize: 0x34 }
  - { offsetInCU: 0x3704D, offset: 0x3704D, size: 0x8, addend: 0x0, symName: __ZNSt3__122__compressed_pair_elemINS_16__hash_node_baseIPNS_11__hash_nodeINS_17__hash_value_typeIccEEPvEEEELi0ELb0EEC2B7v160006ENS_16__value_init_tagE, symObjAddr: 0x14B4C, symBinAddr: 0x10001683C, symSize: 0x2C }
  - { offsetInCU: 0x37081, offset: 0x37081, size: 0x8, addend: 0x0, symName: __ZNSt3__122__compressed_pair_elemINS_9allocatorINS_11__hash_nodeINS_17__hash_value_typeIccEEPvEEEELi1ELb1EEC2B7v160006ENS_16__value_init_tagE, symObjAddr: 0x14B78, symBinAddr: 0x100016868, symSize: 0x2C }
  - { offsetInCU: 0x370B5, offset: 0x370B5, size: 0x8, addend: 0x0, symName: __ZNSt3__116__hash_node_baseIPNS_11__hash_nodeINS_17__hash_value_typeIccEEPvEEEC1B7v160006Ev, symObjAddr: 0x14BA4, symBinAddr: 0x100016894, symSize: 0x2C }
  - { offsetInCU: 0x370DF, offset: 0x370DF, size: 0x8, addend: 0x0, symName: __ZNSt3__116__hash_node_baseIPNS_11__hash_nodeINS_17__hash_value_typeIccEEPvEEEC2B7v160006Ev, symObjAddr: 0x14BD0, symBinAddr: 0x1000168C0, symSize: 0x18 }
  - { offsetInCU: 0x37109, offset: 0x37109, size: 0x8, addend: 0x0, symName: __ZNSt3__19allocatorINS_11__hash_nodeINS_17__hash_value_typeIccEEPvEEEC2B7v160006Ev, symObjAddr: 0x14BE8, symBinAddr: 0x1000168D8, symSize: 0x2C }
  - { offsetInCU: 0x37133, offset: 0x37133, size: 0x8, addend: 0x0, symName: __ZNSt3__116__non_trivial_ifILb1ENS_9allocatorINS_11__hash_nodeINS_17__hash_value_typeIccEEPvEEEEEC2B7v160006Ev, symObjAddr: 0x14C14, symBinAddr: 0x100016904, symSize: 0x14 }
  - { offsetInCU: 0x3715D, offset: 0x3715D, size: 0x8, addend: 0x0, symName: __ZNSt3__117__compressed_pairImNS_22__unordered_map_hasherIcNS_17__hash_value_typeIccEENS_4hashIcEENS_8equal_toIcEELb1EEEEC2B7v160006IiNS_18__default_init_tagEEEOT_OT0_, symObjAddr: 0x14C28, symBinAddr: 0x100016918, symSize: 0x40 }
  - { offsetInCU: 0x371B5, offset: 0x371B5, size: 0x8, addend: 0x0, symName: __ZNSt3__122__compressed_pair_elemINS_22__unordered_map_hasherIcNS_17__hash_value_typeIccEENS_4hashIcEENS_8equal_toIcEELb1EEELi1ELb1EEC2B7v160006ENS_18__default_init_tagE, symObjAddr: 0x14C68, symBinAddr: 0x100016958, symSize: 0x2C }
  - { offsetInCU: 0x371E9, offset: 0x371E9, size: 0x8, addend: 0x0, symName: __ZNSt3__122__unordered_map_hasherIcNS_17__hash_value_typeIccEENS_4hashIcEENS_8equal_toIcEELb1EEC2B7v160006Ev, symObjAddr: 0x14C94, symBinAddr: 0x100016984, symSize: 0x14 }
  - { offsetInCU: 0x37213, offset: 0x37213, size: 0x8, addend: 0x0, symName: __ZNSt3__117__compressed_pairIfNS_21__unordered_map_equalIcNS_17__hash_value_typeIccEENS_8equal_toIcEENS_4hashIcEELb1EEEEC2B7v160006IfNS_18__default_init_tagEEEOT_OT0_, symObjAddr: 0x14CA8, symBinAddr: 0x100016998, symSize: 0x40 }
  - { offsetInCU: 0x3726B, offset: 0x3726B, size: 0x8, addend: 0x0, symName: __ZNSt3__122__compressed_pair_elemINS_21__unordered_map_equalIcNS_17__hash_value_typeIccEENS_8equal_toIcEENS_4hashIcEELb1EEELi1ELb1EEC2B7v160006ENS_18__default_init_tagE, symObjAddr: 0x14CE8, symBinAddr: 0x1000169D8, symSize: 0x2C }
  - { offsetInCU: 0x3729F, offset: 0x3729F, size: 0x8, addend: 0x0, symName: __ZNSt3__121__unordered_map_equalIcNS_17__hash_value_typeIccEENS_8equal_toIcEENS_4hashIcEELb1EEC2B7v160006Ev, symObjAddr: 0x14D14, symBinAddr: 0x100016A04, symSize: 0x14 }
  - { offsetInCU: 0x372C9, offset: 0x372C9, size: 0x8, addend: 0x0, symName: __ZNSt3__112__hash_tableINS_17__hash_value_typeIccEENS_22__unordered_map_hasherIcS2_NS_4hashIcEENS_8equal_toIcEELb1EEENS_21__unordered_map_equalIcS2_S7_S5_Lb1EEENS_9allocatorIS2_EEE15__insert_uniqueB7v160006ERKNS_4pairIKccEE, symObjAddr: 0x14D28, symBinAddr: 0x100016A18, symSize: 0x50 }
  - { offsetInCU: 0x372FE, offset: 0x372FE, size: 0x8, addend: 0x0, symName: __ZNSt3__112__hash_tableINS_17__hash_value_typeIccEENS_22__unordered_map_hasherIcS2_NS_4hashIcEENS_8equal_toIcEELb1EEENS_21__unordered_map_equalIcS2_S7_S5_Lb1EEENS_9allocatorIS2_EEE25__emplace_unique_key_argsIcJRKNS_4pairIKccEEEEENSF_INS_15__hash_iteratorIPNS_11__hash_nodeIS2_PvEEEEbEERKT_DpOT0_, symObjAddr: 0x14D78, symBinAddr: 0x100016A68, symSize: 0x4A4 }
  - { offsetInCU: 0x373DE, offset: 0x373DE, size: 0x8, addend: 0x0, symName: __ZNSt3__122__hash_key_value_typesINS_17__hash_value_typeIccEEE9__get_keyB7v160006ERKNS_4pairIKccEE, symObjAddr: 0x1521C, symBinAddr: 0x100016F0C, symSize: 0x14 }
  - { offsetInCU: 0x37401, offset: 0x37401, size: 0x8, addend: 0x0, symName: __ZNSt3__112__hash_tableINS_17__hash_value_typeIccEENS_22__unordered_map_hasherIcS2_NS_4hashIcEENS_8equal_toIcEELb1EEENS_21__unordered_map_equalIcS2_S7_S5_Lb1EEENS_9allocatorIS2_EEE13hash_functionB7v160006Ev, symObjAddr: 0x15230, symBinAddr: 0x100016F20, symSize: 0x28 }
  - { offsetInCU: 0x37427, offset: 0x37427, size: 0x8, addend: 0x0, symName: __ZNKSt3__122__unordered_map_hasherIcNS_17__hash_value_typeIccEENS_4hashIcEENS_8equal_toIcEELb1EEclB7v160006ERKc, symObjAddr: 0x15258, symBinAddr: 0x100016F48, symSize: 0x30 }
  - { offsetInCU: 0x3745C, offset: 0x3745C, size: 0x8, addend: 0x0, symName: __ZNKSt3__112__hash_tableINS_17__hash_value_typeIccEENS_22__unordered_map_hasherIcS2_NS_4hashIcEENS_8equal_toIcEELb1EEENS_21__unordered_map_equalIcS2_S7_S5_Lb1EEENS_9allocatorIS2_EEE12bucket_countB7v160006Ev, symObjAddr: 0x15288, symBinAddr: 0x100016F78, symSize: 0x28 }
  - { offsetInCU: 0x37482, offset: 0x37482, size: 0x8, addend: 0x0, symName: __ZNKSt3__110unique_ptrIA_PNS_16__hash_node_baseIPNS_11__hash_nodeINS_17__hash_value_typeIccEEPvEEEENS_25__bucket_list_deallocatorINS_9allocatorIS9_EEEEEixB7v160006Em, symObjAddr: 0x152B0, symBinAddr: 0x100016FA0, symSize: 0x34 }
  - { offsetInCU: 0x374B7, offset: 0x374B7, size: 0x8, addend: 0x0, symName: __ZNKSt3__116__hash_node_baseIPNS_11__hash_nodeINS_17__hash_value_typeIccEEPvEEE6__hashB7v160006Ev, symObjAddr: 0x152E4, symBinAddr: 0x100016FD4, symSize: 0x18 }
  - { offsetInCU: 0x374DD, offset: 0x374DD, size: 0x8, addend: 0x0, symName: __ZNSt3__112__hash_tableINS_17__hash_value_typeIccEENS_22__unordered_map_hasherIcS2_NS_4hashIcEENS_8equal_toIcEELb1EEENS_21__unordered_map_equalIcS2_S7_S5_Lb1EEENS_9allocatorIS2_EEE6key_eqB7v160006Ev, symObjAddr: 0x152FC, symBinAddr: 0x100016FEC, symSize: 0x28 }
  - { offsetInCU: 0x37503, offset: 0x37503, size: 0x8, addend: 0x0, symName: __ZNKSt3__121__unordered_map_equalIcNS_17__hash_value_typeIccEENS_8equal_toIcEENS_4hashIcEELb1EEclB7v160006ERKS2_RKc, symObjAddr: 0x15324, symBinAddr: 0x100017014, symSize: 0x48 }
  - { offsetInCU: 0x37547, offset: 0x37547, size: 0x8, addend: 0x0, symName: __ZNSt3__116__hash_node_baseIPNS_11__hash_nodeINS_17__hash_value_typeIccEEPvEEE8__upcastB7v160006Ev, symObjAddr: 0x1536C, symBinAddr: 0x10001705C, symSize: 0x24 }
  - { offsetInCU: 0x3756D, offset: 0x3756D, size: 0x8, addend: 0x0, symName: __ZNSt3__112__hash_tableINS_17__hash_value_typeIccEENS_22__unordered_map_hasherIcS2_NS_4hashIcEENS_8equal_toIcEELb1EEENS_21__unordered_map_equalIcS2_S7_S5_Lb1EEENS_9allocatorIS2_EEE21__construct_node_hashIRKNS_4pairIKccEEJEEENS_10unique_ptrINS_11__hash_nodeIS2_PvEENS_22__hash_node_destructorINSB_ISN_EEEEEEmOT_DpOT0_, symObjAddr: 0x15390, symBinAddr: 0x100017080, symSize: 0x140 }
  - { offsetInCU: 0x375E0, offset: 0x375E0, size: 0x8, addend: 0x0, symName: __ZNSt3__112__hash_tableINS_17__hash_value_typeIccEENS_22__unordered_map_hasherIcS2_NS_4hashIcEENS_8equal_toIcEELb1EEENS_21__unordered_map_equalIcS2_S7_S5_Lb1EEENS_9allocatorIS2_EEE4sizeB7v160006Ev, symObjAddr: 0x154D0, symBinAddr: 0x1000171C0, symSize: 0x28 }
  - { offsetInCU: 0x37606, offset: 0x37606, size: 0x8, addend: 0x0, symName: __ZNSt3__112__hash_tableINS_17__hash_value_typeIccEENS_22__unordered_map_hasherIcS2_NS_4hashIcEENS_8equal_toIcEELb1EEENS_21__unordered_map_equalIcS2_S7_S5_Lb1EEENS_9allocatorIS2_EEE15max_load_factorB7v160006Ev, symObjAddr: 0x154F8, symBinAddr: 0x1000171E8, symSize: 0x28 }
  - { offsetInCU: 0x3762C, offset: 0x3762C, size: 0x8, addend: 0x0, symName: __ZNSt3__112__hash_tableINS_17__hash_value_typeIccEENS_22__unordered_map_hasherIcS2_NS_4hashIcEENS_8equal_toIcEELb1EEENS_21__unordered_map_equalIcS2_S7_S5_Lb1EEENS_9allocatorIS2_EEE15__rehash_uniqueB7v160006Em, symObjAddr: 0x15520, symBinAddr: 0x100017210, symSize: 0x2C }
  - { offsetInCU: 0x37661, offset: 0x37661, size: 0x8, addend: 0x0, symName: __ZNSt3__117__compressed_pairINS_16__hash_node_baseIPNS_11__hash_nodeINS_17__hash_value_typeIccEEPvEEEENS_9allocatorIS6_EEE5firstB7v160006Ev, symObjAddr: 0x1554C, symBinAddr: 0x10001723C, symSize: 0x24 }
  - { offsetInCU: 0x37687, offset: 0x37687, size: 0x8, addend: 0x0, symName: __ZNSt3__116__hash_node_baseIPNS_11__hash_nodeINS_17__hash_value_typeIccEEPvEEE5__ptrB7v160006Ev, symObjAddr: 0x15570, symBinAddr: 0x100017260, symSize: 0x24 }
  - { offsetInCU: 0x376AD, offset: 0x376AD, size: 0x8, addend: 0x0, symName: __ZNKSt3__110unique_ptrINS_11__hash_nodeINS_17__hash_value_typeIccEEPvEENS_22__hash_node_destructorINS_9allocatorIS5_EEEEEptB7v160006Ev, symObjAddr: 0x15594, symBinAddr: 0x100017284, symSize: 0x28 }
  - { offsetInCU: 0x376D3, offset: 0x376D3, size: 0x8, addend: 0x0, symName: __ZNKSt3__110unique_ptrINS_11__hash_nodeINS_17__hash_value_typeIccEEPvEENS_22__hash_node_destructorINS_9allocatorIS5_EEEEE3getB7v160006Ev, symObjAddr: 0x155BC, symBinAddr: 0x1000172AC, symSize: 0x28 }
  - { offsetInCU: 0x376F9, offset: 0x376F9, size: 0x8, addend: 0x0, symName: __ZNSt3__110unique_ptrINS_11__hash_nodeINS_17__hash_value_typeIccEEPvEENS_22__hash_node_destructorINS_9allocatorIS5_EEEEE7releaseB7v160006Ev, symObjAddr: 0x155E4, symBinAddr: 0x1000172D4, symSize: 0x44 }
  - { offsetInCU: 0x3772E, offset: 0x3772E, size: 0x8, addend: 0x0, symName: __ZNSt3__110unique_ptrINS_11__hash_nodeINS_17__hash_value_typeIccEEPvEENS_22__hash_node_destructorINS_9allocatorIS5_EEEEED1B7v160006Ev, symObjAddr: 0x15628, symBinAddr: 0x100017318, symSize: 0x2C }
  - { offsetInCU: 0x37758, offset: 0x37758, size: 0x8, addend: 0x0, symName: __ZNSt3__115__hash_iteratorIPNS_11__hash_nodeINS_17__hash_value_typeIccEEPvEEEC1B7v160006EPNS_16__hash_node_baseIS6_EEPKv, symObjAddr: 0x15654, symBinAddr: 0x100017344, symSize: 0x3C }
  - { offsetInCU: 0x377A6, offset: 0x377A6, size: 0x8, addend: 0x0, symName: __ZNSt3__14pairINS_15__hash_iteratorIPNS_11__hash_nodeINS_17__hash_value_typeIccEEPvEEEEbEC1B7v160006IS8_RbLS5_0EEEOT_OT0_, symObjAddr: 0x15690, symBinAddr: 0x100017380, symSize: 0x3C }
  - { offsetInCU: 0x37804, offset: 0x37804, size: 0x8, addend: 0x0, symName: __ZNSt3__117__compressed_pairImNS_22__unordered_map_hasherIcNS_17__hash_value_typeIccEENS_4hashIcEENS_8equal_toIcEELb1EEEE6secondB7v160006Ev, symObjAddr: 0x156CC, symBinAddr: 0x1000173BC, symSize: 0x24 }
  - { offsetInCU: 0x3782A, offset: 0x3782A, size: 0x8, addend: 0x0, symName: __ZNSt3__122__compressed_pair_elemINS_22__unordered_map_hasherIcNS_17__hash_value_typeIccEENS_4hashIcEENS_8equal_toIcEELb1EEELi1ELb1EE5__getB7v160006Ev, symObjAddr: 0x156F0, symBinAddr: 0x1000173E0, symSize: 0x14 }
  - { offsetInCU: 0x37850, offset: 0x37850, size: 0x8, addend: 0x0, symName: __ZNKSt3__14hashIcEclB7v160006Ec, symObjAddr: 0x15704, symBinAddr: 0x1000173F4, symSize: 0x18 }
  - { offsetInCU: 0x37885, offset: 0x37885, size: 0x8, addend: 0x0, symName: __ZNKSt3__110unique_ptrIA_PNS_16__hash_node_baseIPNS_11__hash_nodeINS_17__hash_value_typeIccEEPvEEEENS_25__bucket_list_deallocatorINS_9allocatorIS9_EEEEE11get_deleterB7v160006Ev, symObjAddr: 0x1571C, symBinAddr: 0x10001740C, symSize: 0x24 }
  - { offsetInCU: 0x378AB, offset: 0x378AB, size: 0x8, addend: 0x0, symName: __ZNKSt3__125__bucket_list_deallocatorINS_9allocatorIPNS_16__hash_node_baseIPNS_11__hash_nodeINS_17__hash_value_typeIccEEPvEEEEEEE4sizeB7v160006Ev, symObjAddr: 0x15740, symBinAddr: 0x100017430, symSize: 0x28 }
  - { offsetInCU: 0x378D1, offset: 0x378D1, size: 0x8, addend: 0x0, symName: __ZNKSt3__117__compressed_pairIPPNS_16__hash_node_baseIPNS_11__hash_nodeINS_17__hash_value_typeIccEEPvEEEENS_25__bucket_list_deallocatorINS_9allocatorIS9_EEEEE6secondB7v160006Ev, symObjAddr: 0x15768, symBinAddr: 0x100017458, symSize: 0x28 }
  - { offsetInCU: 0x378F7, offset: 0x378F7, size: 0x8, addend: 0x0, symName: __ZNKSt3__122__compressed_pair_elemINS_25__bucket_list_deallocatorINS_9allocatorIPNS_16__hash_node_baseIPNS_11__hash_nodeINS_17__hash_value_typeIccEEPvEEEEEEEELi1ELb0EE5__getB7v160006Ev, symObjAddr: 0x15790, symBinAddr: 0x100017480, symSize: 0x14 }
  - { offsetInCU: 0x3791D, offset: 0x3791D, size: 0x8, addend: 0x0, symName: __ZNKSt3__117__compressed_pairImNS_9allocatorIPNS_16__hash_node_baseIPNS_11__hash_nodeINS_17__hash_value_typeIccEEPvEEEEEEE5firstB7v160006Ev, symObjAddr: 0x157A4, symBinAddr: 0x100017494, symSize: 0x24 }
  - { offsetInCU: 0x37943, offset: 0x37943, size: 0x8, addend: 0x0, symName: __ZNKSt3__117__compressed_pairIPPNS_16__hash_node_baseIPNS_11__hash_nodeINS_17__hash_value_typeIccEEPvEEEENS_25__bucket_list_deallocatorINS_9allocatorIS9_EEEEE5firstB7v160006Ev, symObjAddr: 0x157C8, symBinAddr: 0x1000174B8, symSize: 0x24 }
  - { offsetInCU: 0x37969, offset: 0x37969, size: 0x8, addend: 0x0, symName: __ZNKSt3__122__compressed_pair_elemIPPNS_16__hash_node_baseIPNS_11__hash_nodeINS_17__hash_value_typeIccEEPvEEEELi0ELb0EE5__getB7v160006Ev, symObjAddr: 0x157EC, symBinAddr: 0x1000174DC, symSize: 0x14 }
  - { offsetInCU: 0x3798F, offset: 0x3798F, size: 0x8, addend: 0x0, symName: __ZNSt3__117__compressed_pairIfNS_21__unordered_map_equalIcNS_17__hash_value_typeIccEENS_8equal_toIcEENS_4hashIcEELb1EEEE6secondB7v160006Ev, symObjAddr: 0x15800, symBinAddr: 0x1000174F0, symSize: 0x24 }
  - { offsetInCU: 0x379B5, offset: 0x379B5, size: 0x8, addend: 0x0, symName: __ZNSt3__122__compressed_pair_elemINS_21__unordered_map_equalIcNS_17__hash_value_typeIccEENS_8equal_toIcEENS_4hashIcEELb1EEELi1ELb1EE5__getB7v160006Ev, symObjAddr: 0x15824, symBinAddr: 0x100017514, symSize: 0x14 }
  - { offsetInCU: 0x379DB, offset: 0x379DB, size: 0x8, addend: 0x0, symName: __ZNKSt3__18equal_toIcEclB7v160006ERKcS3_, symObjAddr: 0x15838, symBinAddr: 0x100017528, symSize: 0x34 }
  - { offsetInCU: 0x37A1F, offset: 0x37A1F, size: 0x8, addend: 0x0, symName: __ZNKSt3__117__hash_value_typeIccE11__get_valueB7v160006Ev, symObjAddr: 0x1586C, symBinAddr: 0x10001755C, symSize: 0x14 }
  - { offsetInCU: 0x37A45, offset: 0x37A45, size: 0x8, addend: 0x0, symName: __ZNSt3__114pointer_traitsIPNS_16__hash_node_baseIPNS_11__hash_nodeINS_17__hash_value_typeIccEEPvEEEEE10pointer_toB7v160006ERS8_, symObjAddr: 0x15880, symBinAddr: 0x100017570, symSize: 0x14 }
  - { offsetInCU: 0x37A68, offset: 0x37A68, size: 0x8, addend: 0x0, symName: __ZNSt3__112__hash_tableINS_17__hash_value_typeIccEENS_22__unordered_map_hasherIcS2_NS_4hashIcEENS_8equal_toIcEELb1EEENS_21__unordered_map_equalIcS2_S7_S5_Lb1EEENS_9allocatorIS2_EEE12__node_allocB7v160006Ev, symObjAddr: 0x15894, symBinAddr: 0x100017584, symSize: 0x28 }
  - { offsetInCU: 0x37A8E, offset: 0x37A8E, size: 0x8, addend: 0x0, symName: __ZNSt3__116allocator_traitsINS_9allocatorINS_11__hash_nodeINS_17__hash_value_typeIccEEPvEEEEE8allocateB7v160006ERS7_m, symObjAddr: 0x158BC, symBinAddr: 0x1000175AC, symSize: 0x2C }
  - { offsetInCU: 0x37AC1, offset: 0x37AC1, size: 0x8, addend: 0x0, symName: __ZNSt3__122__hash_node_destructorINS_9allocatorINS_11__hash_nodeINS_17__hash_value_typeIccEEPvEEEEEC1B7v160006ERS7_b, symObjAddr: 0x158E8, symBinAddr: 0x1000175D8, symSize: 0x48 }
  - { offsetInCU: 0x37B0F, offset: 0x37B0F, size: 0x8, addend: 0x0, symName: __ZNSt3__110unique_ptrINS_11__hash_nodeINS_17__hash_value_typeIccEEPvEENS_22__hash_node_destructorINS_9allocatorIS5_EEEEEC1B7v160006ILb1EvEEPS5_NS_16__dependent_typeINS_27__unique_ptr_deleter_sfinaeIS9_EEXT_EE20__good_rval_ref_typeE, symObjAddr: 0x15930, symBinAddr: 0x100017620, symSize: 0x3C }
  - { offsetInCU: 0x37B60, offset: 0x37B60, size: 0x8, addend: 0x0, symName: __ZNSt3__116allocator_traitsINS_9allocatorINS_11__hash_nodeINS_17__hash_value_typeIccEEPvEEEEE9constructB7v160006INS_4pairIKccEEJRKSC_EvEEvRS7_PT_DpOT0_, symObjAddr: 0x1596C, symBinAddr: 0x10001765C, symSize: 0x34 }
  - { offsetInCU: 0x37BB7, offset: 0x37BB7, size: 0x8, addend: 0x0, symName: __ZNSt3__122__hash_key_value_typesINS_17__hash_value_typeIccEEE9__get_ptrB7v160006ERS2_, symObjAddr: 0x159A0, symBinAddr: 0x100017690, symSize: 0x24 }
  - { offsetInCU: 0x37BDA, offset: 0x37BDA, size: 0x8, addend: 0x0, symName: __ZNSt3__110unique_ptrINS_11__hash_nodeINS_17__hash_value_typeIccEEPvEENS_22__hash_node_destructorINS_9allocatorIS5_EEEEE11get_deleterB7v160006Ev, symObjAddr: 0x159C4, symBinAddr: 0x1000176B4, symSize: 0x24 }
  - { offsetInCU: 0x37C00, offset: 0x37C00, size: 0x8, addend: 0x0, symName: __ZNSt3__117__compressed_pairINS_16__hash_node_baseIPNS_11__hash_nodeINS_17__hash_value_typeIccEEPvEEEENS_9allocatorIS6_EEE6secondB7v160006Ev, symObjAddr: 0x159E8, symBinAddr: 0x1000176D8, symSize: 0x24 }
  - { offsetInCU: 0x37C26, offset: 0x37C26, size: 0x8, addend: 0x0, symName: __ZNSt3__122__compressed_pair_elemINS_9allocatorINS_11__hash_nodeINS_17__hash_value_typeIccEEPvEEEELi1ELb1EE5__getB7v160006Ev, symObjAddr: 0x15A0C, symBinAddr: 0x1000176FC, symSize: 0x14 }
  - { offsetInCU: 0x37C4C, offset: 0x37C4C, size: 0x8, addend: 0x0, symName: __ZNSt3__19allocatorINS_11__hash_nodeINS_17__hash_value_typeIccEEPvEEE8allocateB7v160006Em, symObjAddr: 0x15A20, symBinAddr: 0x100017710, symSize: 0x5C }
  - { offsetInCU: 0x37C8A, offset: 0x37C8A, size: 0x8, addend: 0x0, symName: __ZNSt3__116allocator_traitsINS_9allocatorINS_11__hash_nodeINS_17__hash_value_typeIccEEPvEEEEE8max_sizeB7v160006IS7_vEEmRKS7_, symObjAddr: 0x15A7C, symBinAddr: 0x10001776C, symSize: 0x24 }
  - { offsetInCU: 0x37CB8, offset: 0x37CB8, size: 0x8, addend: 0x0, symName: __ZNKSt3__19allocatorINS_11__hash_nodeINS_17__hash_value_typeIccEEPvEEE8max_sizeB7v160006Ev, symObjAddr: 0x15AA0, symBinAddr: 0x100017790, symSize: 0x18 }
  - { offsetInCU: 0x37CDE, offset: 0x37CDE, size: 0x8, addend: 0x0, symName: __ZNSt3__122__hash_node_destructorINS_9allocatorINS_11__hash_nodeINS_17__hash_value_typeIccEEPvEEEEEC2B7v160006ERS7_b, symObjAddr: 0x15AB8, symBinAddr: 0x1000177A8, symSize: 0x38 }
  - { offsetInCU: 0x37D26, offset: 0x37D26, size: 0x8, addend: 0x0, symName: __ZNSt3__110unique_ptrINS_11__hash_nodeINS_17__hash_value_typeIccEEPvEENS_22__hash_node_destructorINS_9allocatorIS5_EEEEEC2B7v160006ILb1EvEEPS5_NS_16__dependent_typeINS_27__unique_ptr_deleter_sfinaeIS9_EEXT_EE20__good_rval_ref_typeE, symObjAddr: 0x15AF0, symBinAddr: 0x1000177E0, symSize: 0x48 }
  - { offsetInCU: 0x37D77, offset: 0x37D77, size: 0x8, addend: 0x0, symName: __ZNSt3__117__compressed_pairIPNS_11__hash_nodeINS_17__hash_value_typeIccEEPvEENS_22__hash_node_destructorINS_9allocatorIS5_EEEEEC1B7v160006IRS6_SA_EEOT_OT0_, symObjAddr: 0x15B38, symBinAddr: 0x100017828, symSize: 0x3C }
  - { offsetInCU: 0x37DCF, offset: 0x37DCF, size: 0x8, addend: 0x0, symName: __ZNSt3__117__compressed_pairIPNS_11__hash_nodeINS_17__hash_value_typeIccEEPvEENS_22__hash_node_destructorINS_9allocatorIS5_EEEEEC2B7v160006IRS6_SA_EEOT_OT0_, symObjAddr: 0x15B74, symBinAddr: 0x100017864, symSize: 0x48 }
  - { offsetInCU: 0x37E27, offset: 0x37E27, size: 0x8, addend: 0x0, symName: __ZNSt3__122__compressed_pair_elemIPNS_11__hash_nodeINS_17__hash_value_typeIccEEPvEELi0ELb0EEC2B7v160006IRS6_vEEOT_, symObjAddr: 0x15BBC, symBinAddr: 0x1000178AC, symSize: 0x24 }
  - { offsetInCU: 0x37E69, offset: 0x37E69, size: 0x8, addend: 0x0, symName: __ZNSt3__122__compressed_pair_elemINS_22__hash_node_destructorINS_9allocatorINS_11__hash_nodeINS_17__hash_value_typeIccEEPvEEEEEELi1ELb0EEC2B7v160006IS9_vEEOT_, symObjAddr: 0x15BE0, symBinAddr: 0x1000178D0, symSize: 0x24 }
  - { offsetInCU: 0x37EAB, offset: 0x37EAB, size: 0x8, addend: 0x0, symName: __ZNSt3__19allocatorINS_11__hash_nodeINS_17__hash_value_typeIccEEPvEEE9constructB7v160006INS_4pairIKccEEJRKSA_EEEvPT_DpOT0_, symObjAddr: 0x15C04, symBinAddr: 0x1000178F4, symSize: 0x28 }
  - { offsetInCU: 0x37F01, offset: 0x37F01, size: 0x8, addend: 0x0, symName: __ZNSt3__117__hash_value_typeIccE11__get_valueB7v160006Ev, symObjAddr: 0x15C2C, symBinAddr: 0x10001791C, symSize: 0x14 }
  - { offsetInCU: 0x37F27, offset: 0x37F27, size: 0x8, addend: 0x0, symName: __ZNSt3__117__compressed_pairIPNS_11__hash_nodeINS_17__hash_value_typeIccEEPvEENS_22__hash_node_destructorINS_9allocatorIS5_EEEEE6secondB7v160006Ev, symObjAddr: 0x15C40, symBinAddr: 0x100017930, symSize: 0x28 }
  - { offsetInCU: 0x37F4D, offset: 0x37F4D, size: 0x8, addend: 0x0, symName: __ZNSt3__122__compressed_pair_elemINS_22__hash_node_destructorINS_9allocatorINS_11__hash_nodeINS_17__hash_value_typeIccEEPvEEEEEELi1ELb0EE5__getB7v160006Ev, symObjAddr: 0x15C68, symBinAddr: 0x100017958, symSize: 0x14 }
  - { offsetInCU: 0x37F73, offset: 0x37F73, size: 0x8, addend: 0x0, symName: __ZNSt3__117__compressed_pairImNS_22__unordered_map_hasherIcNS_17__hash_value_typeIccEENS_4hashIcEENS_8equal_toIcEELb1EEEE5firstB7v160006Ev, symObjAddr: 0x15C7C, symBinAddr: 0x10001796C, symSize: 0x24 }
  - { offsetInCU: 0x37F99, offset: 0x37F99, size: 0x8, addend: 0x0, symName: __ZNSt3__117__compressed_pairIfNS_21__unordered_map_equalIcNS_17__hash_value_typeIccEENS_8equal_toIcEENS_4hashIcEELb1EEEE5firstB7v160006Ev, symObjAddr: 0x15CA0, symBinAddr: 0x100017990, symSize: 0x24 }
  - { offsetInCU: 0x37FBF, offset: 0x37FBF, size: 0x8, addend: 0x0, symName: __ZNSt3__112__hash_tableINS_17__hash_value_typeIccEENS_22__unordered_map_hasherIcS2_NS_4hashIcEENS_8equal_toIcEELb1EEENS_21__unordered_map_equalIcS2_S7_S5_Lb1EEENS_9allocatorIS2_EEE8__rehashILb1EEEvm, symObjAddr: 0x15CC4, symBinAddr: 0x1000179B4, symSize: 0x1A8 }
  - { offsetInCU: 0x3800F, offset: 0x3800F, size: 0x8, addend: 0x0, symName: __ZNSt3__112__hash_tableINS_17__hash_value_typeIccEENS_22__unordered_map_hasherIcS2_NS_4hashIcEENS_8equal_toIcEELb1EEENS_21__unordered_map_equalIcS2_S7_S5_Lb1EEENS_9allocatorIS2_EEE11__do_rehashILb1EEEvm, symObjAddr: 0x15E6C, symBinAddr: 0x100017B5C, symSize: 0x290 }
  - { offsetInCU: 0x380F2, offset: 0x380F2, size: 0x8, addend: 0x0, symName: __ZNSt3__110unique_ptrIA_PNS_16__hash_node_baseIPNS_11__hash_nodeINS_17__hash_value_typeIccEEPvEEEENS_25__bucket_list_deallocatorINS_9allocatorIS9_EEEEE11get_deleterB7v160006Ev, symObjAddr: 0x1610C, symBinAddr: 0x100017DFC, symSize: 0x24 }
  - { offsetInCU: 0x38118, offset: 0x38118, size: 0x8, addend: 0x0, symName: __ZNSt3__125__bucket_list_deallocatorINS_9allocatorIPNS_16__hash_node_baseIPNS_11__hash_nodeINS_17__hash_value_typeIccEEPvEEEEEEE7__allocB7v160006Ev, symObjAddr: 0x16130, symBinAddr: 0x100017E20, symSize: 0x24 }
  - { offsetInCU: 0x3813E, offset: 0x3813E, size: 0x8, addend: 0x0, symName: __ZNSt3__110unique_ptrIA_PNS_16__hash_node_baseIPNS_11__hash_nodeINS_17__hash_value_typeIccEEPvEEEENS_25__bucket_list_deallocatorINS_9allocatorIS9_EEEEE5resetB7v160006IPS9_EENS_9enable_ifIXsr28_CheckArrayPointerConversionIT_EE5valueEvE4typeESJ_, symObjAddr: 0x16154, symBinAddr: 0x100017E44, symSize: 0x78 }
  - { offsetInCU: 0x3818B, offset: 0x3818B, size: 0x8, addend: 0x0, symName: __ZNSt3__116allocator_traitsINS_9allocatorIPNS_16__hash_node_baseIPNS_11__hash_nodeINS_17__hash_value_typeIccEEPvEEEEEEE8allocateB7v160006ERSB_m, symObjAddr: 0x161CC, symBinAddr: 0x100017EBC, symSize: 0x2C }
  - { offsetInCU: 0x381BE, offset: 0x381BE, size: 0x8, addend: 0x0, symName: __ZNSt3__125__bucket_list_deallocatorINS_9allocatorIPNS_16__hash_node_baseIPNS_11__hash_nodeINS_17__hash_value_typeIccEEPvEEEEEEE4sizeB7v160006Ev, symObjAddr: 0x161F8, symBinAddr: 0x100017EE8, symSize: 0x24 }
  - { offsetInCU: 0x381E4, offset: 0x381E4, size: 0x8, addend: 0x0, symName: __ZNSt3__117__compressed_pairIPPNS_16__hash_node_baseIPNS_11__hash_nodeINS_17__hash_value_typeIccEEPvEEEENS_25__bucket_list_deallocatorINS_9allocatorIS9_EEEEE6secondB7v160006Ev, symObjAddr: 0x1621C, symBinAddr: 0x100017F0C, symSize: 0x28 }
  - { offsetInCU: 0x3820A, offset: 0x3820A, size: 0x8, addend: 0x0, symName: __ZNSt3__122__compressed_pair_elemINS_25__bucket_list_deallocatorINS_9allocatorIPNS_16__hash_node_baseIPNS_11__hash_nodeINS_17__hash_value_typeIccEEPvEEEEEEEELi1ELb0EE5__getB7v160006Ev, symObjAddr: 0x16244, symBinAddr: 0x100017F34, symSize: 0x14 }
  - { offsetInCU: 0x38230, offset: 0x38230, size: 0x8, addend: 0x0, symName: __ZNSt3__117__compressed_pairImNS_9allocatorIPNS_16__hash_node_baseIPNS_11__hash_nodeINS_17__hash_value_typeIccEEPvEEEEEEE6secondB7v160006Ev, symObjAddr: 0x16258, symBinAddr: 0x100017F48, symSize: 0x24 }
  - { offsetInCU: 0x38256, offset: 0x38256, size: 0x8, addend: 0x0, symName: __ZNSt3__122__compressed_pair_elemINS_9allocatorIPNS_16__hash_node_baseIPNS_11__hash_nodeINS_17__hash_value_typeIccEEPvEEEEEELi1ELb1EE5__getB7v160006Ev, symObjAddr: 0x1627C, symBinAddr: 0x100017F6C, symSize: 0x14 }
  - { offsetInCU: 0x3827C, offset: 0x3827C, size: 0x8, addend: 0x0, symName: __ZNSt3__117__compressed_pairIPPNS_16__hash_node_baseIPNS_11__hash_nodeINS_17__hash_value_typeIccEEPvEEEENS_25__bucket_list_deallocatorINS_9allocatorIS9_EEEEE5firstB7v160006Ev, symObjAddr: 0x16290, symBinAddr: 0x100017F80, symSize: 0x24 }
  - { offsetInCU: 0x382A2, offset: 0x382A2, size: 0x8, addend: 0x0, symName: __ZNSt3__125__bucket_list_deallocatorINS_9allocatorIPNS_16__hash_node_baseIPNS_11__hash_nodeINS_17__hash_value_typeIccEEPvEEEEEEEclB7v160006EPSA_, symObjAddr: 0x162B4, symBinAddr: 0x100017FA4, symSize: 0x58 }
  - { offsetInCU: 0x382D7, offset: 0x382D7, size: 0x8, addend: 0x0, symName: __ZNSt3__122__compressed_pair_elemIPPNS_16__hash_node_baseIPNS_11__hash_nodeINS_17__hash_value_typeIccEEPvEEEELi0ELb0EE5__getB7v160006Ev, symObjAddr: 0x1630C, symBinAddr: 0x100017FFC, symSize: 0x14 }
  - { offsetInCU: 0x382FD, offset: 0x382FD, size: 0x8, addend: 0x0, symName: __ZNSt3__116allocator_traitsINS_9allocatorIPNS_16__hash_node_baseIPNS_11__hash_nodeINS_17__hash_value_typeIccEEPvEEEEEEE10deallocateB7v160006ERSB_PSA_m, symObjAddr: 0x16320, symBinAddr: 0x100018010, symSize: 0x34 }
  - { offsetInCU: 0x3833F, offset: 0x3833F, size: 0x8, addend: 0x0, symName: __ZNSt3__19allocatorIPNS_16__hash_node_baseIPNS_11__hash_nodeINS_17__hash_value_typeIccEEPvEEEEE10deallocateB7v160006EPS9_m, symObjAddr: 0x16354, symBinAddr: 0x100018044, symSize: 0x40 }
  - { offsetInCU: 0x38381, offset: 0x38381, size: 0x8, addend: 0x0, symName: __ZNSt3__19allocatorIPNS_16__hash_node_baseIPNS_11__hash_nodeINS_17__hash_value_typeIccEEPvEEEEE8allocateB7v160006Em, symObjAddr: 0x16394, symBinAddr: 0x100018084, symSize: 0x58 }
  - { offsetInCU: 0x383BF, offset: 0x383BF, size: 0x8, addend: 0x0, symName: __ZNSt3__116allocator_traitsINS_9allocatorIPNS_16__hash_node_baseIPNS_11__hash_nodeINS_17__hash_value_typeIccEEPvEEEEEEE8max_sizeB7v160006ISB_vEEmRKSB_, symObjAddr: 0x163EC, symBinAddr: 0x1000180DC, symSize: 0x24 }
  - { offsetInCU: 0x383ED, offset: 0x383ED, size: 0x8, addend: 0x0, symName: __ZNKSt3__19allocatorIPNS_16__hash_node_baseIPNS_11__hash_nodeINS_17__hash_value_typeIccEEPvEEEEE8max_sizeB7v160006Ev, symObjAddr: 0x16410, symBinAddr: 0x100018100, symSize: 0x14 }
  - { offsetInCU: 0x38413, offset: 0x38413, size: 0x8, addend: 0x0, symName: __ZNSt3__117__compressed_pairImNS_9allocatorIPNS_16__hash_node_baseIPNS_11__hash_nodeINS_17__hash_value_typeIccEEPvEEEEEEE5firstB7v160006Ev, symObjAddr: 0x16424, symBinAddr: 0x100018114, symSize: 0x24 }
  - { offsetInCU: 0x38439, offset: 0x38439, size: 0x8, addend: 0x0, symName: __ZNSt3__122__compressed_pair_elemINS_16__hash_node_baseIPNS_11__hash_nodeINS_17__hash_value_typeIccEEPvEEEELi0ELb0EE5__getB7v160006Ev, symObjAddr: 0x16448, symBinAddr: 0x100018138, symSize: 0x14 }
  - { offsetInCU: 0x3845F, offset: 0x3845F, size: 0x8, addend: 0x0, symName: __ZNKSt3__117__compressed_pairIPNS_11__hash_nodeINS_17__hash_value_typeIccEEPvEENS_22__hash_node_destructorINS_9allocatorIS5_EEEEE5firstB7v160006Ev, symObjAddr: 0x1645C, symBinAddr: 0x10001814C, symSize: 0x24 }
  - { offsetInCU: 0x38485, offset: 0x38485, size: 0x8, addend: 0x0, symName: __ZNKSt3__122__compressed_pair_elemIPNS_11__hash_nodeINS_17__hash_value_typeIccEEPvEELi0ELb0EE5__getB7v160006Ev, symObjAddr: 0x16480, symBinAddr: 0x100018170, symSize: 0x14 }
  - { offsetInCU: 0x384AB, offset: 0x384AB, size: 0x8, addend: 0x0, symName: __ZNSt3__117__compressed_pairIPNS_11__hash_nodeINS_17__hash_value_typeIccEEPvEENS_22__hash_node_destructorINS_9allocatorIS5_EEEEE5firstB7v160006Ev, symObjAddr: 0x16494, symBinAddr: 0x100018184, symSize: 0x24 }
  - { offsetInCU: 0x384D1, offset: 0x384D1, size: 0x8, addend: 0x0, symName: __ZNSt3__122__compressed_pair_elemIPNS_11__hash_nodeINS_17__hash_value_typeIccEEPvEELi0ELb0EE5__getB7v160006Ev, symObjAddr: 0x164B8, symBinAddr: 0x1000181A8, symSize: 0x14 }
  - { offsetInCU: 0x384F7, offset: 0x384F7, size: 0x8, addend: 0x0, symName: __ZNSt3__110unique_ptrINS_11__hash_nodeINS_17__hash_value_typeIccEEPvEENS_22__hash_node_destructorINS_9allocatorIS5_EEEEED2B7v160006Ev, symObjAddr: 0x164CC, symBinAddr: 0x1000181BC, symSize: 0x30 }
  - { offsetInCU: 0x38521, offset: 0x38521, size: 0x8, addend: 0x0, symName: __ZNSt3__110unique_ptrINS_11__hash_nodeINS_17__hash_value_typeIccEEPvEENS_22__hash_node_destructorINS_9allocatorIS5_EEEEE5resetB7v160006EPS5_, symObjAddr: 0x164FC, symBinAddr: 0x1000181EC, symSize: 0x78 }
  - { offsetInCU: 0x38565, offset: 0x38565, size: 0x8, addend: 0x0, symName: __ZNSt3__122__hash_node_destructorINS_9allocatorINS_11__hash_nodeINS_17__hash_value_typeIccEEPvEEEEEclB7v160006EPS6_, symObjAddr: 0x16574, symBinAddr: 0x100018264, symSize: 0x98 }
  - { offsetInCU: 0x3859A, offset: 0x3859A, size: 0x8, addend: 0x0, symName: __ZNSt3__116allocator_traitsINS_9allocatorINS_11__hash_nodeINS_17__hash_value_typeIccEEPvEEEEE7destroyB7v160006INS_4pairIKccEEvvEEvRS7_PT_, symObjAddr: 0x1660C, symBinAddr: 0x1000182FC, symSize: 0x14 }
  - { offsetInCU: 0x385D4, offset: 0x385D4, size: 0x8, addend: 0x0, symName: __ZNSt3__116allocator_traitsINS_9allocatorINS_11__hash_nodeINS_17__hash_value_typeIccEEPvEEEEE10deallocateB7v160006ERS7_PS6_m, symObjAddr: 0x16620, symBinAddr: 0x100018310, symSize: 0x34 }
  - { offsetInCU: 0x38616, offset: 0x38616, size: 0x8, addend: 0x0, symName: __ZNSt3__19allocatorINS_11__hash_nodeINS_17__hash_value_typeIccEEPvEEE10deallocateB7v160006EPS5_m, symObjAddr: 0x16654, symBinAddr: 0x100018344, symSize: 0x44 }
  - { offsetInCU: 0x38658, offset: 0x38658, size: 0x8, addend: 0x0, symName: __ZNSt3__115__hash_iteratorIPNS_11__hash_nodeINS_17__hash_value_typeIccEEPvEEEC2B7v160006EPNS_16__hash_node_baseIS6_EEPKv, symObjAddr: 0x16698, symBinAddr: 0x100018388, symSize: 0x24 }
  - { offsetInCU: 0x386A0, offset: 0x386A0, size: 0x8, addend: 0x0, symName: __ZNSt3__14pairINS_15__hash_iteratorIPNS_11__hash_nodeINS_17__hash_value_typeIccEEPvEEEEbEC2B7v160006IS8_RbLS5_0EEEOT_OT0_, symObjAddr: 0x166BC, symBinAddr: 0x1000183AC, symSize: 0x38 }
  - { offsetInCU: 0x386FE, offset: 0x386FE, size: 0x8, addend: 0x0, symName: __ZNSt3__112__hash_tableINS_17__hash_value_typeIccEENS_22__unordered_map_hasherIcS2_NS_4hashIcEENS_8equal_toIcEELb1EEENS_21__unordered_map_equalIcS2_S7_S5_Lb1EEENS_9allocatorIS2_EEED2Ev, symObjAddr: 0x166F4, symBinAddr: 0x1000183E4, symSize: 0x58 }
  - { offsetInCU: 0x3872A, offset: 0x3872A, size: 0x8, addend: 0x0, symName: __ZNSt3__112__hash_tableINS_17__hash_value_typeIccEENS_22__unordered_map_hasherIcS2_NS_4hashIcEENS_8equal_toIcEELb1EEENS_21__unordered_map_equalIcS2_S7_S5_Lb1EEENS_9allocatorIS2_EEE17__deallocate_nodeEPNS_16__hash_node_baseIPNS_11__hash_nodeIS2_PvEEEE, symObjAddr: 0x1674C, symBinAddr: 0x10001843C, symSize: 0xA4 }
  - { offsetInCU: 0x38794, offset: 0x38794, size: 0x8, addend: 0x0, symName: __ZNSt3__110unique_ptrIA_PNS_16__hash_node_baseIPNS_11__hash_nodeINS_17__hash_value_typeIccEEPvEEEENS_25__bucket_list_deallocatorINS_9allocatorIS9_EEEEED1B7v160006Ev, symObjAddr: 0x16800, symBinAddr: 0x1000184F0, symSize: 0x2C }
  - { offsetInCU: 0x387BE, offset: 0x387BE, size: 0x8, addend: 0x0, symName: __ZNSt3__110unique_ptrIA_PNS_16__hash_node_baseIPNS_11__hash_nodeINS_17__hash_value_typeIccEEPvEEEENS_25__bucket_list_deallocatorINS_9allocatorIS9_EEEEED2B7v160006Ev, symObjAddr: 0x1682C, symBinAddr: 0x10001851C, symSize: 0x30 }
  - { offsetInCU: 0x387E8, offset: 0x387E8, size: 0x8, addend: 0x0, symName: __ZNSt3__110unique_ptrIA_PNS_16__hash_node_baseIPNS_11__hash_nodeINS_17__hash_value_typeIccEEPvEEEENS_25__bucket_list_deallocatorINS_9allocatorIS9_EEEEE5resetB7v160006EDn, symObjAddr: 0x1685C, symBinAddr: 0x10001854C, symSize: 0x6C }
  - { offsetInCU: 0x38828, offset: 0x38828, size: 0x8, addend: 0x0, symName: __ZNSt3__112__hash_tableINS_17__hash_value_typeIiP4RoomEENS_22__unordered_map_hasherIiS4_NS_4hashIiEENS_8equal_toIiEELb1EEENS_21__unordered_map_equalIiS4_S9_S7_Lb1EEENS_9allocatorIS4_EEE25__emplace_unique_key_argsIiJRKNS_21piecewise_construct_tENS_5tupleIJRKiEEENSK_IJEEEEEENS_4pairINS_15__hash_iteratorIPNS_11__hash_nodeIS4_PvEEEEbEERKT_DpOT0_, symObjAddr: 0x16984, symBinAddr: 0x100018674, symSize: 0x4B4 }
  - { offsetInCU: 0x38932, offset: 0x38932, size: 0x8, addend: 0x0, symName: __ZNKSt3__115__hash_iteratorIPNS_11__hash_nodeINS_17__hash_value_typeIiP4RoomEEPvEEEptB7v160006Ev, symObjAddr: 0x16E64, symBinAddr: 0x100018B54, symSize: 0x30 }
  - { offsetInCU: 0x38958, offset: 0x38958, size: 0x8, addend: 0x0, symName: __ZNSt3__112__hash_tableINS_17__hash_value_typeIiP4RoomEENS_22__unordered_map_hasherIiS4_NS_4hashIiEENS_8equal_toIiEELb1EEENS_21__unordered_map_equalIiS4_S9_S7_Lb1EEENS_9allocatorIS4_EEE13hash_functionB7v160006Ev, symObjAddr: 0x16E94, symBinAddr: 0x100018B84, symSize: 0x28 }
  - { offsetInCU: 0x3897E, offset: 0x3897E, size: 0x8, addend: 0x0, symName: __ZNKSt3__122__unordered_map_hasherIiNS_17__hash_value_typeIiP4RoomEENS_4hashIiEENS_8equal_toIiEELb1EEclB7v160006ERKi, symObjAddr: 0x16EBC, symBinAddr: 0x100018BAC, symSize: 0x30 }
  - { offsetInCU: 0x389B3, offset: 0x389B3, size: 0x8, addend: 0x0, symName: __ZNKSt3__112__hash_tableINS_17__hash_value_typeIiP4RoomEENS_22__unordered_map_hasherIiS4_NS_4hashIiEENS_8equal_toIiEELb1EEENS_21__unordered_map_equalIiS4_S9_S7_Lb1EEENS_9allocatorIS4_EEE12bucket_countB7v160006Ev, symObjAddr: 0x16EEC, symBinAddr: 0x100018BDC, symSize: 0x28 }
  - { offsetInCU: 0x389D9, offset: 0x389D9, size: 0x8, addend: 0x0, symName: __ZNKSt3__110unique_ptrIA_PNS_16__hash_node_baseIPNS_11__hash_nodeINS_17__hash_value_typeIiP4RoomEEPvEEEENS_25__bucket_list_deallocatorINS_9allocatorISB_EEEEEixB7v160006Em, symObjAddr: 0x16F14, symBinAddr: 0x100018C04, symSize: 0x34 }
  - { offsetInCU: 0x38A0E, offset: 0x38A0E, size: 0x8, addend: 0x0, symName: __ZNKSt3__116__hash_node_baseIPNS_11__hash_nodeINS_17__hash_value_typeIiP4RoomEEPvEEE6__hashB7v160006Ev, symObjAddr: 0x16F48, symBinAddr: 0x100018C38, symSize: 0x18 }
  - { offsetInCU: 0x38A34, offset: 0x38A34, size: 0x8, addend: 0x0, symName: __ZNSt3__112__hash_tableINS_17__hash_value_typeIiP4RoomEENS_22__unordered_map_hasherIiS4_NS_4hashIiEENS_8equal_toIiEELb1EEENS_21__unordered_map_equalIiS4_S9_S7_Lb1EEENS_9allocatorIS4_EEE6key_eqB7v160006Ev, symObjAddr: 0x16F60, symBinAddr: 0x100018C50, symSize: 0x28 }
  - { offsetInCU: 0x38A5A, offset: 0x38A5A, size: 0x8, addend: 0x0, symName: __ZNKSt3__121__unordered_map_equalIiNS_17__hash_value_typeIiP4RoomEENS_8equal_toIiEENS_4hashIiEELb1EEclB7v160006ERKS4_RKi, symObjAddr: 0x16F88, symBinAddr: 0x100018C78, symSize: 0x48 }
  - { offsetInCU: 0x38A9E, offset: 0x38A9E, size: 0x8, addend: 0x0, symName: __ZNSt3__112__hash_tableINS_17__hash_value_typeIiP4RoomEENS_22__unordered_map_hasherIiS4_NS_4hashIiEENS_8equal_toIiEELb1EEENS_21__unordered_map_equalIiS4_S9_S7_Lb1EEENS_9allocatorIS4_EEE21__construct_node_hashIRKNS_21piecewise_construct_tEJNS_5tupleIJRKiEEENSK_IJEEEEEENS_10unique_ptrINS_11__hash_nodeIS4_PvEENS_22__hash_node_destructorINSD_ISS_EEEEEEmOT_DpOT0_, symObjAddr: 0x16FD0, symBinAddr: 0x100018CC0, symSize: 0x150 }
  - { offsetInCU: 0x38B3A, offset: 0x38B3A, size: 0x8, addend: 0x0, symName: __ZNSt3__112__hash_tableINS_17__hash_value_typeIiP4RoomEENS_22__unordered_map_hasherIiS4_NS_4hashIiEENS_8equal_toIiEELb1EEENS_21__unordered_map_equalIiS4_S9_S7_Lb1EEENS_9allocatorIS4_EEE4sizeB7v160006Ev, symObjAddr: 0x17120, symBinAddr: 0x100018E10, symSize: 0x28 }
  - { offsetInCU: 0x38B60, offset: 0x38B60, size: 0x8, addend: 0x0, symName: __ZNSt3__112__hash_tableINS_17__hash_value_typeIiP4RoomEENS_22__unordered_map_hasherIiS4_NS_4hashIiEENS_8equal_toIiEELb1EEENS_21__unordered_map_equalIiS4_S9_S7_Lb1EEENS_9allocatorIS4_EEE15max_load_factorB7v160006Ev, symObjAddr: 0x17148, symBinAddr: 0x100018E38, symSize: 0x28 }
  - { offsetInCU: 0x38B86, offset: 0x38B86, size: 0x8, addend: 0x0, symName: __ZNSt3__112__hash_tableINS_17__hash_value_typeIiP4RoomEENS_22__unordered_map_hasherIiS4_NS_4hashIiEENS_8equal_toIiEELb1EEENS_21__unordered_map_equalIiS4_S9_S7_Lb1EEENS_9allocatorIS4_EEE15__rehash_uniqueB7v160006Em, symObjAddr: 0x17170, symBinAddr: 0x100018E60, symSize: 0x2C }
  - { offsetInCU: 0x38BBB, offset: 0x38BBB, size: 0x8, addend: 0x0, symName: __ZNSt3__116__hash_node_baseIPNS_11__hash_nodeINS_17__hash_value_typeIiP4RoomEEPvEEE5__ptrB7v160006Ev, symObjAddr: 0x1719C, symBinAddr: 0x100018E8C, symSize: 0x24 }
  - { offsetInCU: 0x38BE1, offset: 0x38BE1, size: 0x8, addend: 0x0, symName: __ZNKSt3__110unique_ptrINS_11__hash_nodeINS_17__hash_value_typeIiP4RoomEEPvEENS_22__hash_node_destructorINS_9allocatorIS7_EEEEEptB7v160006Ev, symObjAddr: 0x171C0, symBinAddr: 0x100018EB0, symSize: 0x28 }
  - { offsetInCU: 0x38C07, offset: 0x38C07, size: 0x8, addend: 0x0, symName: __ZNKSt3__110unique_ptrINS_11__hash_nodeINS_17__hash_value_typeIiP4RoomEEPvEENS_22__hash_node_destructorINS_9allocatorIS7_EEEEE3getB7v160006Ev, symObjAddr: 0x171E8, symBinAddr: 0x100018ED8, symSize: 0x28 }
  - { offsetInCU: 0x38C2D, offset: 0x38C2D, size: 0x8, addend: 0x0, symName: __ZNSt3__110unique_ptrINS_11__hash_nodeINS_17__hash_value_typeIiP4RoomEEPvEENS_22__hash_node_destructorINS_9allocatorIS7_EEEEE7releaseB7v160006Ev, symObjAddr: 0x17210, symBinAddr: 0x100018F00, symSize: 0x44 }
  - { offsetInCU: 0x38C62, offset: 0x38C62, size: 0x8, addend: 0x0, symName: __ZNSt3__110unique_ptrINS_11__hash_nodeINS_17__hash_value_typeIiP4RoomEEPvEENS_22__hash_node_destructorINS_9allocatorIS7_EEEEED1B7v160006Ev, symObjAddr: 0x17254, symBinAddr: 0x100018F44, symSize: 0x2C }
  - { offsetInCU: 0x38C8C, offset: 0x38C8C, size: 0x8, addend: 0x0, symName: __ZNSt3__115__hash_iteratorIPNS_11__hash_nodeINS_17__hash_value_typeIiP4RoomEEPvEEEC1B7v160006EPNS_16__hash_node_baseIS8_EEPKv, symObjAddr: 0x17280, symBinAddr: 0x100018F70, symSize: 0x3C }
  - { offsetInCU: 0x38CDA, offset: 0x38CDA, size: 0x8, addend: 0x0, symName: __ZNSt3__14pairINS_15__hash_iteratorIPNS_11__hash_nodeINS_17__hash_value_typeIiP4RoomEEPvEEEEbEC1B7v160006ISA_RbLS7_0EEEOT_OT0_, symObjAddr: 0x172BC, symBinAddr: 0x100018FAC, symSize: 0x3C }
  - { offsetInCU: 0x38D38, offset: 0x38D38, size: 0x8, addend: 0x0, symName: __ZNSt3__117__compressed_pairImNS_22__unordered_map_hasherIiNS_17__hash_value_typeIiP4RoomEENS_4hashIiEENS_8equal_toIiEELb1EEEE6secondB7v160006Ev, symObjAddr: 0x172F8, symBinAddr: 0x100018FE8, symSize: 0x24 }
  - { offsetInCU: 0x38D5E, offset: 0x38D5E, size: 0x8, addend: 0x0, symName: __ZNSt3__122__compressed_pair_elemINS_22__unordered_map_hasherIiNS_17__hash_value_typeIiP4RoomEENS_4hashIiEENS_8equal_toIiEELb1EEELi1ELb1EE5__getB7v160006Ev, symObjAddr: 0x1731C, symBinAddr: 0x10001900C, symSize: 0x14 }
  - { offsetInCU: 0x38D84, offset: 0x38D84, size: 0x8, addend: 0x0, symName: __ZNKSt3__110unique_ptrIA_PNS_16__hash_node_baseIPNS_11__hash_nodeINS_17__hash_value_typeIiP4RoomEEPvEEEENS_25__bucket_list_deallocatorINS_9allocatorISB_EEEEE11get_deleterB7v160006Ev, symObjAddr: 0x17330, symBinAddr: 0x100019020, symSize: 0x24 }
  - { offsetInCU: 0x38DAA, offset: 0x38DAA, size: 0x8, addend: 0x0, symName: __ZNKSt3__125__bucket_list_deallocatorINS_9allocatorIPNS_16__hash_node_baseIPNS_11__hash_nodeINS_17__hash_value_typeIiP4RoomEEPvEEEEEEE4sizeB7v160006Ev, symObjAddr: 0x17354, symBinAddr: 0x100019044, symSize: 0x28 }
  - { offsetInCU: 0x38DD0, offset: 0x38DD0, size: 0x8, addend: 0x0, symName: __ZNKSt3__117__compressed_pairIPPNS_16__hash_node_baseIPNS_11__hash_nodeINS_17__hash_value_typeIiP4RoomEEPvEEEENS_25__bucket_list_deallocatorINS_9allocatorISB_EEEEE6secondB7v160006Ev, symObjAddr: 0x1737C, symBinAddr: 0x10001906C, symSize: 0x28 }
  - { offsetInCU: 0x38DF6, offset: 0x38DF6, size: 0x8, addend: 0x0, symName: __ZNKSt3__122__compressed_pair_elemINS_25__bucket_list_deallocatorINS_9allocatorIPNS_16__hash_node_baseIPNS_11__hash_nodeINS_17__hash_value_typeIiP4RoomEEPvEEEEEEEELi1ELb0EE5__getB7v160006Ev, symObjAddr: 0x173A4, symBinAddr: 0x100019094, symSize: 0x14 }
  - { offsetInCU: 0x38E1C, offset: 0x38E1C, size: 0x8, addend: 0x0, symName: __ZNKSt3__117__compressed_pairImNS_9allocatorIPNS_16__hash_node_baseIPNS_11__hash_nodeINS_17__hash_value_typeIiP4RoomEEPvEEEEEEE5firstB7v160006Ev, symObjAddr: 0x173B8, symBinAddr: 0x1000190A8, symSize: 0x24 }
  - { offsetInCU: 0x38E42, offset: 0x38E42, size: 0x8, addend: 0x0, symName: __ZNKSt3__117__compressed_pairIPPNS_16__hash_node_baseIPNS_11__hash_nodeINS_17__hash_value_typeIiP4RoomEEPvEEEENS_25__bucket_list_deallocatorINS_9allocatorISB_EEEEE5firstB7v160006Ev, symObjAddr: 0x173DC, symBinAddr: 0x1000190CC, symSize: 0x24 }
  - { offsetInCU: 0x38E68, offset: 0x38E68, size: 0x8, addend: 0x0, symName: __ZNKSt3__122__compressed_pair_elemIPPNS_16__hash_node_baseIPNS_11__hash_nodeINS_17__hash_value_typeIiP4RoomEEPvEEEELi0ELb0EE5__getB7v160006Ev, symObjAddr: 0x17400, symBinAddr: 0x1000190F0, symSize: 0x14 }
  - { offsetInCU: 0x38E8E, offset: 0x38E8E, size: 0x8, addend: 0x0, symName: __ZNSt3__117__compressed_pairIfNS_21__unordered_map_equalIiNS_17__hash_value_typeIiP4RoomEENS_8equal_toIiEENS_4hashIiEELb1EEEE6secondB7v160006Ev, symObjAddr: 0x17414, symBinAddr: 0x100019104, symSize: 0x24 }
  - { offsetInCU: 0x38EB4, offset: 0x38EB4, size: 0x8, addend: 0x0, symName: __ZNSt3__122__compressed_pair_elemINS_21__unordered_map_equalIiNS_17__hash_value_typeIiP4RoomEENS_8equal_toIiEENS_4hashIiEELb1EEELi1ELb1EE5__getB7v160006Ev, symObjAddr: 0x17438, symBinAddr: 0x100019128, symSize: 0x14 }
  - { offsetInCU: 0x38EDA, offset: 0x38EDA, size: 0x8, addend: 0x0, symName: __ZNKSt3__18equal_toIiEclB7v160006ERKiS3_, symObjAddr: 0x1744C, symBinAddr: 0x10001913C, symSize: 0x34 }
  - { offsetInCU: 0x38F1E, offset: 0x38F1E, size: 0x8, addend: 0x0, symName: __ZNKSt3__117__hash_value_typeIiP4RoomE11__get_valueB7v160006Ev, symObjAddr: 0x17480, symBinAddr: 0x100019170, symSize: 0x14 }
  - { offsetInCU: 0x38F44, offset: 0x38F44, size: 0x8, addend: 0x0, symName: __ZNSt3__116allocator_traitsINS_9allocatorINS_11__hash_nodeINS_17__hash_value_typeIiP4RoomEEPvEEEEE8allocateB7v160006ERS9_m, symObjAddr: 0x17494, symBinAddr: 0x100019184, symSize: 0x2C }
  - { offsetInCU: 0x38F77, offset: 0x38F77, size: 0x8, addend: 0x0, symName: __ZNSt3__122__hash_node_destructorINS_9allocatorINS_11__hash_nodeINS_17__hash_value_typeIiP4RoomEEPvEEEEEC1B7v160006ERS9_b, symObjAddr: 0x174C0, symBinAddr: 0x1000191B0, symSize: 0x48 }
  - { offsetInCU: 0x38FC5, offset: 0x38FC5, size: 0x8, addend: 0x0, symName: __ZNSt3__110unique_ptrINS_11__hash_nodeINS_17__hash_value_typeIiP4RoomEEPvEENS_22__hash_node_destructorINS_9allocatorIS7_EEEEEC1B7v160006ILb1EvEEPS7_NS_16__dependent_typeINS_27__unique_ptr_deleter_sfinaeISB_EEXT_EE20__good_rval_ref_typeE, symObjAddr: 0x17508, symBinAddr: 0x1000191F8, symSize: 0x3C }
  - { offsetInCU: 0x39016, offset: 0x39016, size: 0x8, addend: 0x0, symName: __ZNSt3__116allocator_traitsINS_9allocatorINS_11__hash_nodeINS_17__hash_value_typeIiP4RoomEEPvEEEEE9constructB7v160006INS_4pairIKiS5_EEJRKNS_21piecewise_construct_tENS_5tupleIJRSD_EEENSI_IJEEEEvEEvRS9_PT_DpOT0_, symObjAddr: 0x17544, symBinAddr: 0x100019234, symSize: 0x44 }
  - { offsetInCU: 0x39095, offset: 0x39095, size: 0x8, addend: 0x0, symName: __ZNSt3__110unique_ptrINS_11__hash_nodeINS_17__hash_value_typeIiP4RoomEEPvEENS_22__hash_node_destructorINS_9allocatorIS7_EEEEE11get_deleterB7v160006Ev, symObjAddr: 0x17588, symBinAddr: 0x100019278, symSize: 0x24 }
  - { offsetInCU: 0x390BB, offset: 0x390BB, size: 0x8, addend: 0x0, symName: __ZNSt3__19allocatorINS_11__hash_nodeINS_17__hash_value_typeIiP4RoomEEPvEEE8allocateB7v160006Em, symObjAddr: 0x175AC, symBinAddr: 0x10001929C, symSize: 0x58 }
  - { offsetInCU: 0x390F9, offset: 0x390F9, size: 0x8, addend: 0x0, symName: __ZNSt3__116allocator_traitsINS_9allocatorINS_11__hash_nodeINS_17__hash_value_typeIiP4RoomEEPvEEEEE8max_sizeB7v160006IS9_vEEmRKS9_, symObjAddr: 0x17604, symBinAddr: 0x1000192F4, symSize: 0x24 }
  - { offsetInCU: 0x39127, offset: 0x39127, size: 0x8, addend: 0x0, symName: __ZNKSt3__19allocatorINS_11__hash_nodeINS_17__hash_value_typeIiP4RoomEEPvEEE8max_sizeB7v160006Ev, symObjAddr: 0x17628, symBinAddr: 0x100019318, symSize: 0x14 }
  - { offsetInCU: 0x3914D, offset: 0x3914D, size: 0x8, addend: 0x0, symName: __ZNSt3__122__hash_node_destructorINS_9allocatorINS_11__hash_nodeINS_17__hash_value_typeIiP4RoomEEPvEEEEEC2B7v160006ERS9_b, symObjAddr: 0x1763C, symBinAddr: 0x10001932C, symSize: 0x38 }
  - { offsetInCU: 0x39195, offset: 0x39195, size: 0x8, addend: 0x0, symName: __ZNSt3__110unique_ptrINS_11__hash_nodeINS_17__hash_value_typeIiP4RoomEEPvEENS_22__hash_node_destructorINS_9allocatorIS7_EEEEEC2B7v160006ILb1EvEEPS7_NS_16__dependent_typeINS_27__unique_ptr_deleter_sfinaeISB_EEXT_EE20__good_rval_ref_typeE, symObjAddr: 0x17674, symBinAddr: 0x100019364, symSize: 0x48 }
  - { offsetInCU: 0x391E6, offset: 0x391E6, size: 0x8, addend: 0x0, symName: __ZNSt3__117__compressed_pairIPNS_11__hash_nodeINS_17__hash_value_typeIiP4RoomEEPvEENS_22__hash_node_destructorINS_9allocatorIS7_EEEEEC1B7v160006IRS8_SC_EEOT_OT0_, symObjAddr: 0x176BC, symBinAddr: 0x1000193AC, symSize: 0x3C }
  - { offsetInCU: 0x3923E, offset: 0x3923E, size: 0x8, addend: 0x0, symName: __ZNSt3__117__compressed_pairIPNS_11__hash_nodeINS_17__hash_value_typeIiP4RoomEEPvEENS_22__hash_node_destructorINS_9allocatorIS7_EEEEEC2B7v160006IRS8_SC_EEOT_OT0_, symObjAddr: 0x176F8, symBinAddr: 0x1000193E8, symSize: 0x48 }
  - { offsetInCU: 0x39296, offset: 0x39296, size: 0x8, addend: 0x0, symName: __ZNSt3__122__compressed_pair_elemIPNS_11__hash_nodeINS_17__hash_value_typeIiP4RoomEEPvEELi0ELb0EEC2B7v160006IRS8_vEEOT_, symObjAddr: 0x17740, symBinAddr: 0x100019430, symSize: 0x24 }
  - { offsetInCU: 0x392D8, offset: 0x392D8, size: 0x8, addend: 0x0, symName: __ZNSt3__122__compressed_pair_elemINS_22__hash_node_destructorINS_9allocatorINS_11__hash_nodeINS_17__hash_value_typeIiP4RoomEEPvEEEEEELi1ELb0EEC2B7v160006ISB_vEEOT_, symObjAddr: 0x17764, symBinAddr: 0x100019454, symSize: 0x24 }
  - { offsetInCU: 0x3931A, offset: 0x3931A, size: 0x8, addend: 0x0, symName: __ZNSt3__19allocatorINS_11__hash_nodeINS_17__hash_value_typeIiP4RoomEEPvEEE9constructB7v160006INS_4pairIKiS4_EEJRKNS_21piecewise_construct_tENS_5tupleIJRSB_EEENSG_IJEEEEEEvPT_DpOT0_, symObjAddr: 0x17788, symBinAddr: 0x100019478, symSize: 0x44 }
  - { offsetInCU: 0x39396, offset: 0x39396, size: 0x8, addend: 0x0, symName: __ZNSt3__14pairIKiP4RoomEC1B7v160006IJRS1_EJEEENS_21piecewise_construct_tENS_5tupleIJDpT_EEENS8_IJDpT0_EEE, symObjAddr: 0x177CC, symBinAddr: 0x1000194BC, symSize: 0x44 }
  - { offsetInCU: 0x393FD, offset: 0x393FD, size: 0x8, addend: 0x0, symName: __ZNSt3__14pairIKiP4RoomEC1B7v160006IJRS1_EJEJLm0EEJEEENS_21piecewise_construct_tERNS_5tupleIJDpT_EEERNS8_IJDpT0_EEENS_15__tuple_indicesIJXspT1_EEEENSH_IJXspT2_EEEE, symObjAddr: 0x17810, symBinAddr: 0x100019500, symSize: 0x3C }
  - { offsetInCU: 0x3948A, offset: 0x3948A, size: 0x8, addend: 0x0, symName: __ZNSt3__14pairIKiP4RoomEC2B7v160006IJRS1_EJEJLm0EEJEEENS_21piecewise_construct_tERNS_5tupleIJDpT_EEERNS8_IJDpT0_EEENS_15__tuple_indicesIJXspT1_EEEENSH_IJXspT2_EEEE, symObjAddr: 0x1784C, symBinAddr: 0x10001953C, symSize: 0x48 }
  - { offsetInCU: 0x39517, offset: 0x39517, size: 0x8, addend: 0x0, symName: __ZNSt3__112__tuple_leafILm0ERKiLb0EE3getB7v160006Ev, symObjAddr: 0x178B8, symBinAddr: 0x1000195A8, symSize: 0x18 }
  - { offsetInCU: 0x3953D, offset: 0x3953D, size: 0x8, addend: 0x0, symName: __ZNSt3__117__compressed_pairIPNS_11__hash_nodeINS_17__hash_value_typeIiP4RoomEEPvEENS_22__hash_node_destructorINS_9allocatorIS7_EEEEE6secondB7v160006Ev, symObjAddr: 0x178D0, symBinAddr: 0x1000195C0, symSize: 0x28 }
  - { offsetInCU: 0x39563, offset: 0x39563, size: 0x8, addend: 0x0, symName: __ZNSt3__122__compressed_pair_elemINS_22__hash_node_destructorINS_9allocatorINS_11__hash_nodeINS_17__hash_value_typeIiP4RoomEEPvEEEEEELi1ELb0EE5__getB7v160006Ev, symObjAddr: 0x178F8, symBinAddr: 0x1000195E8, symSize: 0x14 }
  - { offsetInCU: 0x39589, offset: 0x39589, size: 0x8, addend: 0x0, symName: __ZNSt3__117__compressed_pairImNS_22__unordered_map_hasherIiNS_17__hash_value_typeIiP4RoomEENS_4hashIiEENS_8equal_toIiEELb1EEEE5firstB7v160006Ev, symObjAddr: 0x1790C, symBinAddr: 0x1000195FC, symSize: 0x24 }
  - { offsetInCU: 0x395AF, offset: 0x395AF, size: 0x8, addend: 0x0, symName: __ZNSt3__117__compressed_pairIfNS_21__unordered_map_equalIiNS_17__hash_value_typeIiP4RoomEENS_8equal_toIiEENS_4hashIiEELb1EEEE5firstB7v160006Ev, symObjAddr: 0x17930, symBinAddr: 0x100019620, symSize: 0x24 }
  - { offsetInCU: 0x395D5, offset: 0x395D5, size: 0x8, addend: 0x0, symName: __ZNSt3__112__hash_tableINS_17__hash_value_typeIiP4RoomEENS_22__unordered_map_hasherIiS4_NS_4hashIiEENS_8equal_toIiEELb1EEENS_21__unordered_map_equalIiS4_S9_S7_Lb1EEENS_9allocatorIS4_EEE8__rehashILb1EEEvm, symObjAddr: 0x17954, symBinAddr: 0x100019644, symSize: 0x1A8 }
  - { offsetInCU: 0x39625, offset: 0x39625, size: 0x8, addend: 0x0, symName: __ZNSt3__112__hash_tableINS_17__hash_value_typeIiP4RoomEENS_22__unordered_map_hasherIiS4_NS_4hashIiEENS_8equal_toIiEELb1EEENS_21__unordered_map_equalIiS4_S9_S7_Lb1EEENS_9allocatorIS4_EEE11__do_rehashILb1EEEvm, symObjAddr: 0x17AFC, symBinAddr: 0x1000197EC, symSize: 0x290 }
  - { offsetInCU: 0x39708, offset: 0x39708, size: 0x8, addend: 0x0, symName: __ZNSt3__110unique_ptrIA_PNS_16__hash_node_baseIPNS_11__hash_nodeINS_17__hash_value_typeIiP4RoomEEPvEEEENS_25__bucket_list_deallocatorINS_9allocatorISB_EEEEE11get_deleterB7v160006Ev, symObjAddr: 0x17D9C, symBinAddr: 0x100019A8C, symSize: 0x24 }
  - { offsetInCU: 0x3972E, offset: 0x3972E, size: 0x8, addend: 0x0, symName: __ZNSt3__110unique_ptrIA_PNS_16__hash_node_baseIPNS_11__hash_nodeINS_17__hash_value_typeIiP4RoomEEPvEEEENS_25__bucket_list_deallocatorINS_9allocatorISB_EEEEE5resetB7v160006IPSB_EENS_9enable_ifIXsr28_CheckArrayPointerConversionIT_EE5valueEvE4typeESL_, symObjAddr: 0x17DC0, symBinAddr: 0x100019AB0, symSize: 0x78 }
  - { offsetInCU: 0x3977B, offset: 0x3977B, size: 0x8, addend: 0x0, symName: __ZNSt3__116allocator_traitsINS_9allocatorIPNS_16__hash_node_baseIPNS_11__hash_nodeINS_17__hash_value_typeIiP4RoomEEPvEEEEEEE8allocateB7v160006ERSD_m, symObjAddr: 0x17E38, symBinAddr: 0x100019B28, symSize: 0x2C }
  - { offsetInCU: 0x397AE, offset: 0x397AE, size: 0x8, addend: 0x0, symName: __ZNSt3__19allocatorIPNS_16__hash_node_baseIPNS_11__hash_nodeINS_17__hash_value_typeIiP4RoomEEPvEEEEE8allocateB7v160006Em, symObjAddr: 0x17E64, symBinAddr: 0x100019B54, symSize: 0x58 }
  - { offsetInCU: 0x397EC, offset: 0x397EC, size: 0x8, addend: 0x0, symName: __ZNSt3__116allocator_traitsINS_9allocatorIPNS_16__hash_node_baseIPNS_11__hash_nodeINS_17__hash_value_typeIiP4RoomEEPvEEEEEEE8max_sizeB7v160006ISD_vEEmRKSD_, symObjAddr: 0x17EBC, symBinAddr: 0x100019BAC, symSize: 0x24 }
  - { offsetInCU: 0x3981A, offset: 0x3981A, size: 0x8, addend: 0x0, symName: __ZNKSt3__19allocatorIPNS_16__hash_node_baseIPNS_11__hash_nodeINS_17__hash_value_typeIiP4RoomEEPvEEEEE8max_sizeB7v160006Ev, symObjAddr: 0x17EE0, symBinAddr: 0x100019BD0, symSize: 0x14 }
  - { offsetInCU: 0x39840, offset: 0x39840, size: 0x8, addend: 0x0, symName: __ZNKSt3__117__compressed_pairIPNS_11__hash_nodeINS_17__hash_value_typeIiP4RoomEEPvEENS_22__hash_node_destructorINS_9allocatorIS7_EEEEE5firstB7v160006Ev, symObjAddr: 0x17EF4, symBinAddr: 0x100019BE4, symSize: 0x24 }
  - { offsetInCU: 0x39866, offset: 0x39866, size: 0x8, addend: 0x0, symName: __ZNKSt3__122__compressed_pair_elemIPNS_11__hash_nodeINS_17__hash_value_typeIiP4RoomEEPvEELi0ELb0EE5__getB7v160006Ev, symObjAddr: 0x17F18, symBinAddr: 0x100019C08, symSize: 0x14 }
  - { offsetInCU: 0x3988C, offset: 0x3988C, size: 0x8, addend: 0x0, symName: __ZNSt3__117__compressed_pairIPNS_11__hash_nodeINS_17__hash_value_typeIiP4RoomEEPvEENS_22__hash_node_destructorINS_9allocatorIS7_EEEEE5firstB7v160006Ev, symObjAddr: 0x17F2C, symBinAddr: 0x100019C1C, symSize: 0x24 }
  - { offsetInCU: 0x398B2, offset: 0x398B2, size: 0x8, addend: 0x0, symName: __ZNSt3__122__compressed_pair_elemIPNS_11__hash_nodeINS_17__hash_value_typeIiP4RoomEEPvEELi0ELb0EE5__getB7v160006Ev, symObjAddr: 0x17F50, symBinAddr: 0x100019C40, symSize: 0x14 }
  - { offsetInCU: 0x398D8, offset: 0x398D8, size: 0x8, addend: 0x0, symName: __ZNSt3__110unique_ptrINS_11__hash_nodeINS_17__hash_value_typeIiP4RoomEEPvEENS_22__hash_node_destructorINS_9allocatorIS7_EEEEED2B7v160006Ev, symObjAddr: 0x17F64, symBinAddr: 0x100019C54, symSize: 0x30 }
  - { offsetInCU: 0x39902, offset: 0x39902, size: 0x8, addend: 0x0, symName: __ZNSt3__110unique_ptrINS_11__hash_nodeINS_17__hash_value_typeIiP4RoomEEPvEENS_22__hash_node_destructorINS_9allocatorIS7_EEEEE5resetB7v160006EPS7_, symObjAddr: 0x17F94, symBinAddr: 0x100019C84, symSize: 0x78 }
  - { offsetInCU: 0x39946, offset: 0x39946, size: 0x8, addend: 0x0, symName: __ZNSt3__122__hash_node_destructorINS_9allocatorINS_11__hash_nodeINS_17__hash_value_typeIiP4RoomEEPvEEEEEclB7v160006EPS8_, symObjAddr: 0x1800C, symBinAddr: 0x100019CFC, symSize: 0x94 }
  - { offsetInCU: 0x3997B, offset: 0x3997B, size: 0x8, addend: 0x0, symName: __ZNSt3__115__hash_iteratorIPNS_11__hash_nodeINS_17__hash_value_typeIiP4RoomEEPvEEEC2B7v160006EPNS_16__hash_node_baseIS8_EEPKv, symObjAddr: 0x180A0, symBinAddr: 0x100019D90, symSize: 0x24 }
  - { offsetInCU: 0x399C3, offset: 0x399C3, size: 0x8, addend: 0x0, symName: __ZNSt3__14pairINS_15__hash_iteratorIPNS_11__hash_nodeINS_17__hash_value_typeIiP4RoomEEPvEEEEbEC2B7v160006ISA_RbLS7_0EEEOT_OT0_, symObjAddr: 0x180C4, symBinAddr: 0x100019DB4, symSize: 0x38 }
  - { offsetInCU: 0x39A21, offset: 0x39A21, size: 0x8, addend: 0x0, symName: __ZNSt3__15tupleIJRKiEEC1B7v160006INS_4_AndELi0EEES2_, symObjAddr: 0x180FC, symBinAddr: 0x100019DEC, symSize: 0x34 }
  - { offsetInCU: 0x39A69, offset: 0x39A69, size: 0x8, addend: 0x0, symName: __ZNSt3__15tupleIJRKiEEC2B7v160006INS_4_AndELi0EEES2_, symObjAddr: 0x18130, symBinAddr: 0x100019E20, symSize: 0x34 }
  - { offsetInCU: 0x39AB1, offset: 0x39AB1, size: 0x8, addend: 0x0, symName: __ZNSt3__112__tuple_implINS_15__tuple_indicesIJLm0EEEEJRKiEEC1B7v160006IJLm0EEJS4_EJEJEJS4_EEENS1_IJXspT_EEEENS_13__tuple_typesIJDpT0_EEENS1_IJXspT1_EEEENS8_IJDpT2_EEEDpOT3_, symObjAddr: 0x18164, symBinAddr: 0x100019E54, symSize: 0x34 }
  - { offsetInCU: 0x39B42, offset: 0x39B42, size: 0x8, addend: 0x0, symName: __ZNSt3__112__tuple_implINS_15__tuple_indicesIJLm0EEEEJRKiEEC2B7v160006IJLm0EEJS4_EJEJEJS4_EEENS1_IJXspT_EEEENS_13__tuple_typesIJDpT0_EEENS1_IJXspT1_EEEENS8_IJDpT2_EEEDpOT3_, symObjAddr: 0x18198, symBinAddr: 0x100019E88, symSize: 0x34 }
  - { offsetInCU: 0x39BD3, offset: 0x39BD3, size: 0x8, addend: 0x0, symName: __ZNSt3__112__tuple_leafILm0ERKiLb0EEC2B7v160006IS2_vEEOT_, symObjAddr: 0x181CC, symBinAddr: 0x100019EBC, symSize: 0x20 }
  - { offsetInCU: 0x39C16, offset: 0x39C16, size: 0x8, addend: 0x0, symName: __ZNSt3__114pointer_traitsIPNS_17__hash_value_typeIiP4RoomEEE10pointer_toB7v160006ERS4_, symObjAddr: 0x181EC, symBinAddr: 0x100019EDC, symSize: 0x14 }
  - { offsetInCU: 0x39C39, offset: 0x39C39, size: 0x8, addend: 0x0, symName: __ZNSt3__112__hash_tableINS_17__hash_value_typeIccEENS_22__unordered_map_hasherIcS2_NS_4hashIcEENS_8equal_toIcEELb1EEENS_21__unordered_map_equalIcS2_S7_S5_Lb1EEENS_9allocatorIS2_EEE25__emplace_unique_key_argsIcJRKNS_21piecewise_construct_tENS_5tupleIJRKcEEENSI_IJEEEEEENS_4pairINS_15__hash_iteratorIPNS_11__hash_nodeIS2_PvEEEEbEERKT_DpOT0_, symObjAddr: 0x18200, symBinAddr: 0x100019EF0, symSize: 0x498 }
  - { offsetInCU: 0x39D43, offset: 0x39D43, size: 0x8, addend: 0x0, symName: __ZNKSt3__115__hash_iteratorIPNS_11__hash_nodeINS_17__hash_value_typeIccEEPvEEEptB7v160006Ev, symObjAddr: 0x186C4, symBinAddr: 0x10001A3B4, symSize: 0x30 }
  - { offsetInCU: 0x39D69, offset: 0x39D69, size: 0x8, addend: 0x0, symName: __ZNSt3__112__hash_tableINS_17__hash_value_typeIccEENS_22__unordered_map_hasherIcS2_NS_4hashIcEENS_8equal_toIcEELb1EEENS_21__unordered_map_equalIcS2_S7_S5_Lb1EEENS_9allocatorIS2_EEE21__construct_node_hashIRKNS_21piecewise_construct_tEJNS_5tupleIJRKcEEENSI_IJEEEEEENS_10unique_ptrINS_11__hash_nodeIS2_PvEENS_22__hash_node_destructorINSB_ISQ_EEEEEEmOT_DpOT0_, symObjAddr: 0x186F4, symBinAddr: 0x10001A3E4, symSize: 0x150 }
  - { offsetInCU: 0x39E05, offset: 0x39E05, size: 0x8, addend: 0x0, symName: __ZNSt3__116allocator_traitsINS_9allocatorINS_11__hash_nodeINS_17__hash_value_typeIccEEPvEEEEE9constructB7v160006INS_4pairIKccEEJRKNS_21piecewise_construct_tENS_5tupleIJRSB_EEENSG_IJEEEEvEEvRS7_PT_DpOT0_, symObjAddr: 0x18844, symBinAddr: 0x10001A534, symSize: 0x44 }
  - { offsetInCU: 0x39E84, offset: 0x39E84, size: 0x8, addend: 0x0, symName: __ZNSt3__19allocatorINS_11__hash_nodeINS_17__hash_value_typeIccEEPvEEE9constructB7v160006INS_4pairIKccEEJRKNS_21piecewise_construct_tENS_5tupleIJRS9_EEENSE_IJEEEEEEvPT_DpOT0_, symObjAddr: 0x18888, symBinAddr: 0x10001A578, symSize: 0x44 }
  - { offsetInCU: 0x39F00, offset: 0x39F00, size: 0x8, addend: 0x0, symName: __ZNSt3__14pairIKccEC1B7v160006IJRS1_EJEEENS_21piecewise_construct_tENS_5tupleIJDpT_EEENS6_IJDpT0_EEE, symObjAddr: 0x188CC, symBinAddr: 0x10001A5BC, symSize: 0x44 }
  - { offsetInCU: 0x39F67, offset: 0x39F67, size: 0x8, addend: 0x0, symName: __ZNSt3__14pairIKccEC1B7v160006IJRS1_EJEJLm0EEJEEENS_21piecewise_construct_tERNS_5tupleIJDpT_EEERNS6_IJDpT0_EEENS_15__tuple_indicesIJXspT1_EEEENSF_IJXspT2_EEEE, symObjAddr: 0x18910, symBinAddr: 0x10001A600, symSize: 0x3C }
  - { offsetInCU: 0x39FF4, offset: 0x39FF4, size: 0x8, addend: 0x0, symName: __ZNSt3__14pairIKccEC2B7v160006IJRS1_EJEJLm0EEJEEENS_21piecewise_construct_tERNS_5tupleIJDpT_EEERNS6_IJDpT0_EEENS_15__tuple_indicesIJXspT1_EEEENSF_IJXspT2_EEEE, symObjAddr: 0x1894C, symBinAddr: 0x10001A63C, symSize: 0x48 }
  - { offsetInCU: 0x3A081, offset: 0x3A081, size: 0x8, addend: 0x0, symName: __ZNSt3__112__tuple_leafILm0ERKcLb0EE3getB7v160006Ev, symObjAddr: 0x189B8, symBinAddr: 0x10001A6A8, symSize: 0x18 }
  - { offsetInCU: 0x3A0A7, offset: 0x3A0A7, size: 0x8, addend: 0x0, symName: __ZNSt3__15tupleIJRKcEEC1B7v160006INS_4_AndELi0EEES2_, symObjAddr: 0x189D0, symBinAddr: 0x10001A6C0, symSize: 0x34 }
  - { offsetInCU: 0x3A0EF, offset: 0x3A0EF, size: 0x8, addend: 0x0, symName: __ZNSt3__15tupleIJRKcEEC2B7v160006INS_4_AndELi0EEES2_, symObjAddr: 0x18A04, symBinAddr: 0x10001A6F4, symSize: 0x34 }
  - { offsetInCU: 0x3A137, offset: 0x3A137, size: 0x8, addend: 0x0, symName: __ZNSt3__112__tuple_implINS_15__tuple_indicesIJLm0EEEEJRKcEEC1B7v160006IJLm0EEJS4_EJEJEJS4_EEENS1_IJXspT_EEEENS_13__tuple_typesIJDpT0_EEENS1_IJXspT1_EEEENS8_IJDpT2_EEEDpOT3_, symObjAddr: 0x18A38, symBinAddr: 0x10001A728, symSize: 0x34 }
  - { offsetInCU: 0x3A1C8, offset: 0x3A1C8, size: 0x8, addend: 0x0, symName: __ZNSt3__112__tuple_implINS_15__tuple_indicesIJLm0EEEEJRKcEEC2B7v160006IJLm0EEJS4_EJEJEJS4_EEENS1_IJXspT_EEEENS_13__tuple_typesIJDpT0_EEENS1_IJXspT1_EEEENS8_IJDpT2_EEEDpOT3_, symObjAddr: 0x18A6C, symBinAddr: 0x10001A75C, symSize: 0x34 }
  - { offsetInCU: 0x3A259, offset: 0x3A259, size: 0x8, addend: 0x0, symName: __ZNSt3__112__tuple_leafILm0ERKcLb0EEC2B7v160006IS2_vEEOT_, symObjAddr: 0x18AA0, symBinAddr: 0x10001A790, symSize: 0x20 }
  - { offsetInCU: 0x3A29C, offset: 0x3A29C, size: 0x8, addend: 0x0, symName: __ZNSt3__114pointer_traitsIPNS_17__hash_value_typeIccEEE10pointer_toB7v160006ERS2_, symObjAddr: 0x18AC0, symBinAddr: 0x10001A7B0, symSize: 0x14 }
  - { offsetInCU: 0x3A2BF, offset: 0x3A2BF, size: 0x8, addend: 0x0, symName: __ZNSt3__16vectorI4RoomNS_9allocatorIS1_EEE9__end_capB7v160006Ev, symObjAddr: 0x18AD4, symBinAddr: 0x10001A7C4, symSize: 0x28 }
  - { offsetInCU: 0x3A2EB, offset: 0x3A2EB, size: 0x8, addend: 0x0, symName: __ZNSt3__16vectorI4RoomNS_9allocatorIS1_EEE22__construct_one_at_endB7v160006IJS1_EEEvDpOT_, symObjAddr: 0x18AFC, symBinAddr: 0x10001A7EC, symSize: 0x90 }
  - { offsetInCU: 0x3A33A, offset: 0x3A33A, size: 0x8, addend: 0x0, symName: __ZNSt3__16vectorI4RoomNS_9allocatorIS1_EEE21__push_back_slow_pathIS1_EEvOT_, symObjAddr: 0x18B8C, symBinAddr: 0x10001A87C, symSize: 0xD8 }
  - { offsetInCU: 0x3A398, offset: 0x3A398, size: 0x8, addend: 0x0, symName: __ZNSt3__117__compressed_pairIP4RoomNS_9allocatorIS1_EEE5firstB7v160006Ev, symObjAddr: 0x18C64, symBinAddr: 0x10001A954, symSize: 0x24 }
  - { offsetInCU: 0x3A3BE, offset: 0x3A3BE, size: 0x8, addend: 0x0, symName: __ZNSt3__122__compressed_pair_elemIP4RoomLi0ELb0EE5__getB7v160006Ev, symObjAddr: 0x18C88, symBinAddr: 0x10001A978, symSize: 0x14 }
  - { offsetInCU: 0x3A3FD, offset: 0x3A3FD, size: 0x8, addend: 0x0, symName: __ZNSt3__16vectorI4RoomNS_9allocatorIS1_EEE21_ConstructTransactionC1B7v160006ERS4_m, symObjAddr: 0x18C9C, symBinAddr: 0x10001A98C, symSize: 0x3C }
  - { offsetInCU: 0x3A445, offset: 0x3A445, size: 0x8, addend: 0x0, symName: __ZNSt3__116allocator_traitsINS_9allocatorI4RoomEEE9constructB7v160006IS2_JS2_EvEEvRS3_PT_DpOT0_, symObjAddr: 0x18CD8, symBinAddr: 0x10001A9C8, symSize: 0x34 }
  - { offsetInCU: 0x3A49C, offset: 0x3A49C, size: 0x8, addend: 0x0, symName: __ZNSt3__16vectorI4RoomNS_9allocatorIS1_EEE21_ConstructTransactionD1B7v160006Ev, symObjAddr: 0x18D0C, symBinAddr: 0x10001A9FC, symSize: 0x2C }
  - { offsetInCU: 0x3A4C6, offset: 0x3A4C6, size: 0x8, addend: 0x0, symName: __ZNSt3__16vectorI4RoomNS_9allocatorIS1_EEE21_ConstructTransactionC2B7v160006ERS4_m, symObjAddr: 0x18D38, symBinAddr: 0x10001AA28, symSize: 0x4C }
  - { offsetInCU: 0x3A50E, offset: 0x3A50E, size: 0x8, addend: 0x0, symName: __ZNSt3__19allocatorI4RoomE9constructB7v160006IS1_JS1_EEEvPT_DpOT0_, symObjAddr: 0x18D84, symBinAddr: 0x10001AA74, symSize: 0x30 }
  - { offsetInCU: 0x3A564, offset: 0x3A564, size: 0x8, addend: 0x0, symName: __ZN4RoomC1EOS_, symObjAddr: 0x18DB4, symBinAddr: 0x10001AAA4, symSize: 0x34 }
  - { offsetInCU: 0x3A599, offset: 0x3A599, size: 0x8, addend: 0x0, symName: __ZN4RoomC2EOS_, symObjAddr: 0x18DE8, symBinAddr: 0x10001AAD8, symSize: 0x110 }
  - { offsetInCU: 0x3A5CE, offset: 0x3A5CE, size: 0x8, addend: 0x0, symName: __ZNSt3__113unordered_mapIiP4RoomNS_4hashIiEENS_8equal_toIiEENS_9allocatorINS_4pairIKiS2_EEEEEC1EOSC_, symObjAddr: 0x18EF8, symBinAddr: 0x10001ABE8, symSize: 0x34 }
  - { offsetInCU: 0x3A609, offset: 0x3A609, size: 0x8, addend: 0x0, symName: __ZNSt3__16vectorI4RoomNS_9allocatorIS1_EEEC1B7v160006EOS4_, symObjAddr: 0x18F2C, symBinAddr: 0x10001AC1C, symSize: 0x34 }
  - { offsetInCU: 0x3A644, offset: 0x3A644, size: 0x8, addend: 0x0, symName: __ZNSt3__16vectorINS0_IcNS_9allocatorIcEEEENS1_IS3_EEEC1B7v160006EOS5_, symObjAddr: 0x18F60, symBinAddr: 0x10001AC50, symSize: 0x34 }
  - { offsetInCU: 0x3A67F, offset: 0x3A67F, size: 0x8, addend: 0x0, symName: __ZNSt3__16vectorI5PointNS_9allocatorIS1_EEEC1B7v160006EOS4_, symObjAddr: 0x18F94, symBinAddr: 0x10001AC84, symSize: 0x34 }
  - { offsetInCU: 0x3A6BA, offset: 0x3A6BA, size: 0x8, addend: 0x0, symName: __ZNSt3__113unordered_mapI5Pointc11PointHasherNS_8equal_toIS1_EENS_9allocatorINS_4pairIKS1_cEEEEEC1EOSA_, symObjAddr: 0x18FC8, symBinAddr: 0x10001ACB8, symSize: 0x34 }
  - { offsetInCU: 0x3A6FB, offset: 0x3A6FB, size: 0x8, addend: 0x0, symName: __ZN6PlayerC1EOS_, symObjAddr: 0x18FFC, symBinAddr: 0x10001ACEC, symSize: 0x34 }
  - { offsetInCU: 0x3A730, offset: 0x3A730, size: 0x8, addend: 0x0, symName: __ZNSt3__113unordered_mapIiP4RoomNS_4hashIiEENS_8equal_toIiEENS_9allocatorINS_4pairIKiS2_EEEEEC2EOSC_, symObjAddr: 0x19030, symBinAddr: 0x10001AD20, symSize: 0x50 }
  - { offsetInCU: 0x3A76B, offset: 0x3A76B, size: 0x8, addend: 0x0, symName: __ZNSt3__112__hash_tableINS_17__hash_value_typeIiP4RoomEENS_22__unordered_map_hasherIiS4_NS_4hashIiEENS_8equal_toIiEELb1EEENS_21__unordered_map_equalIiS4_S9_S7_Lb1EEENS_9allocatorIS4_EEEC1EOSF_, symObjAddr: 0x19080, symBinAddr: 0x10001AD70, symSize: 0x34 }
  - { offsetInCU: 0x3A7A6, offset: 0x3A7A6, size: 0x8, addend: 0x0, symName: __ZNSt3__112__hash_tableINS_17__hash_value_typeIiP4RoomEENS_22__unordered_map_hasherIiS4_NS_4hashIiEENS_8equal_toIiEELb1EEENS_21__unordered_map_equalIiS4_S9_S7_Lb1EEENS_9allocatorIS4_EEEC2EOSF_, symObjAddr: 0x190C8, symBinAddr: 0x10001ADB8, symSize: 0xF8 }
  - { offsetInCU: 0x3A7E1, offset: 0x3A7E1, size: 0x8, addend: 0x0, symName: __ZNSt3__110unique_ptrIA_PNS_16__hash_node_baseIPNS_11__hash_nodeINS_17__hash_value_typeIiP4RoomEEPvEEEENS_25__bucket_list_deallocatorINS_9allocatorISB_EEEEEC1B7v160006EOSH_, symObjAddr: 0x191C0, symBinAddr: 0x10001AEB0, symSize: 0x34 }
  - { offsetInCU: 0x3A81A, offset: 0x3A81A, size: 0x8, addend: 0x0, symName: __ZNSt3__110unique_ptrIA_PNS_16__hash_node_baseIPNS_11__hash_nodeINS_17__hash_value_typeIiP4RoomEEPvEEEENS_25__bucket_list_deallocatorINS_9allocatorISB_EEEEEC2B7v160006EOSH_, symObjAddr: 0x191F4, symBinAddr: 0x10001AEE4, symSize: 0x60 }
  - { offsetInCU: 0x3A853, offset: 0x3A853, size: 0x8, addend: 0x0, symName: __ZNSt3__110unique_ptrIA_PNS_16__hash_node_baseIPNS_11__hash_nodeINS_17__hash_value_typeIiP4RoomEEPvEEEENS_25__bucket_list_deallocatorINS_9allocatorISB_EEEEE7releaseB7v160006Ev, symObjAddr: 0x19254, symBinAddr: 0x10001AF44, symSize: 0x44 }
  - { offsetInCU: 0x3A88E, offset: 0x3A88E, size: 0x8, addend: 0x0, symName: __ZNSt3__117__compressed_pairIPPNS_16__hash_node_baseIPNS_11__hash_nodeINS_17__hash_value_typeIiP4RoomEEPvEEEENS_25__bucket_list_deallocatorINS_9allocatorISB_EEEEEC1B7v160006ISC_SG_EEOT_OT0_, symObjAddr: 0x19298, symBinAddr: 0x10001AF88, symSize: 0x3C }
  - { offsetInCU: 0x3A8E6, offset: 0x3A8E6, size: 0x8, addend: 0x0, symName: __ZNSt3__117__compressed_pairIPPNS_16__hash_node_baseIPNS_11__hash_nodeINS_17__hash_value_typeIiP4RoomEEPvEEEENS_25__bucket_list_deallocatorINS_9allocatorISB_EEEEEC2B7v160006ISC_SG_EEOT_OT0_, symObjAddr: 0x192D4, symBinAddr: 0x10001AFC4, symSize: 0x48 }
  - { offsetInCU: 0x3A93E, offset: 0x3A93E, size: 0x8, addend: 0x0, symName: __ZNSt3__122__compressed_pair_elemIPPNS_16__hash_node_baseIPNS_11__hash_nodeINS_17__hash_value_typeIiP4RoomEEPvEEEELi0ELb0EEC2B7v160006ISC_vEEOT_, symObjAddr: 0x1931C, symBinAddr: 0x10001B00C, symSize: 0x24 }
  - { offsetInCU: 0x3A980, offset: 0x3A980, size: 0x8, addend: 0x0, symName: __ZNSt3__122__compressed_pair_elemINS_25__bucket_list_deallocatorINS_9allocatorIPNS_16__hash_node_baseIPNS_11__hash_nodeINS_17__hash_value_typeIiP4RoomEEPvEEEEEEEELi1ELb0EEC2B7v160006ISF_vEEOT_, symObjAddr: 0x19340, symBinAddr: 0x10001B030, symSize: 0x34 }
  - { offsetInCU: 0x3A9C2, offset: 0x3A9C2, size: 0x8, addend: 0x0, symName: __ZNSt3__125__bucket_list_deallocatorINS_9allocatorIPNS_16__hash_node_baseIPNS_11__hash_nodeINS_17__hash_value_typeIiP4RoomEEPvEEEEEEEC1B7v160006EOSE_, symObjAddr: 0x19374, symBinAddr: 0x10001B064, symSize: 0x34 }
  - { offsetInCU: 0x3A9FB, offset: 0x3A9FB, size: 0x8, addend: 0x0, symName: __ZNSt3__125__bucket_list_deallocatorINS_9allocatorIPNS_16__hash_node_baseIPNS_11__hash_nodeINS_17__hash_value_typeIiP4RoomEEPvEEEEEEEC2B7v160006EOSE_, symObjAddr: 0x193A8, symBinAddr: 0x10001B098, symSize: 0x48 }
  - { offsetInCU: 0x3AA34, offset: 0x3AA34, size: 0x8, addend: 0x0, symName: __ZNSt3__16vectorI4RoomNS_9allocatorIS1_EEEC2B7v160006EOS4_, symObjAddr: 0x193F0, symBinAddr: 0x10001B0E0, symSize: 0xDC }
  - { offsetInCU: 0x3AA75, offset: 0x3AA75, size: 0x8, addend: 0x0, symName: __ZNSt3__117__compressed_pairIP4RoomNS_9allocatorIS1_EEEC1B7v160006IDnS4_EEOT_OT0_, symObjAddr: 0x194CC, symBinAddr: 0x10001B1BC, symSize: 0x3C }
  - { offsetInCU: 0x3AACD, offset: 0x3AACD, size: 0x8, addend: 0x0, symName: __ZNSt3__117__compressed_pairIP4RoomNS_9allocatorIS1_EEEC2B7v160006IDnS4_EEOT_OT0_, symObjAddr: 0x1951C, symBinAddr: 0x10001B20C, symSize: 0x44 }
  - { offsetInCU: 0x3AB25, offset: 0x3AB25, size: 0x8, addend: 0x0, symName: __ZNSt3__122__compressed_pair_elemINS_9allocatorI4RoomEELi1ELb1EEC2B7v160006IS3_vEEOT_, symObjAddr: 0x19560, symBinAddr: 0x10001B250, symSize: 0x18 }
  - { offsetInCU: 0x3AB67, offset: 0x3AB67, size: 0x8, addend: 0x0, symName: __ZNSt3__16vectorINS0_IcNS_9allocatorIcEEEENS1_IS3_EEEC2B7v160006EOS5_, symObjAddr: 0x19578, symBinAddr: 0x10001B268, symSize: 0xDC }
  - { offsetInCU: 0x3ABA8, offset: 0x3ABA8, size: 0x8, addend: 0x0, symName: __ZNSt3__117__compressed_pairIPNS_6vectorIcNS_9allocatorIcEEEENS2_IS4_EEEC1B7v160006IDnS6_EEOT_OT0_, symObjAddr: 0x19654, symBinAddr: 0x10001B344, symSize: 0x3C }
  - { offsetInCU: 0x3AC00, offset: 0x3AC00, size: 0x8, addend: 0x0, symName: __ZNSt3__117__compressed_pairIPNS_6vectorIcNS_9allocatorIcEEEENS2_IS4_EEEC2B7v160006IDnS6_EEOT_OT0_, symObjAddr: 0x196A4, symBinAddr: 0x10001B394, symSize: 0x44 }
  - { offsetInCU: 0x3AC58, offset: 0x3AC58, size: 0x8, addend: 0x0, symName: __ZNSt3__122__compressed_pair_elemINS_9allocatorINS_6vectorIcNS1_IcEEEEEELi1ELb1EEC2B7v160006IS5_vEEOT_, symObjAddr: 0x196E8, symBinAddr: 0x10001B3D8, symSize: 0x18 }
  - { offsetInCU: 0x3AC9A, offset: 0x3AC9A, size: 0x8, addend: 0x0, symName: __ZNSt3__16vectorI5PointNS_9allocatorIS1_EEEC2B7v160006EOS4_, symObjAddr: 0x19700, symBinAddr: 0x10001B3F0, symSize: 0xDC }
  - { offsetInCU: 0x3ACDB, offset: 0x3ACDB, size: 0x8, addend: 0x0, symName: __ZNSt3__117__compressed_pairIP5PointNS_9allocatorIS1_EEEC1B7v160006IDnS4_EEOT_OT0_, symObjAddr: 0x197DC, symBinAddr: 0x10001B4CC, symSize: 0x3C }
  - { offsetInCU: 0x3AD33, offset: 0x3AD33, size: 0x8, addend: 0x0, symName: __ZNSt3__117__compressed_pairIP5PointNS_9allocatorIS1_EEEC2B7v160006IDnS4_EEOT_OT0_, symObjAddr: 0x1982C, symBinAddr: 0x10001B51C, symSize: 0x44 }
  - { offsetInCU: 0x3AD8B, offset: 0x3AD8B, size: 0x8, addend: 0x0, symName: __ZNSt3__122__compressed_pair_elemINS_9allocatorI5PointEELi1ELb1EEC2B7v160006IS3_vEEOT_, symObjAddr: 0x19870, symBinAddr: 0x10001B560, symSize: 0x18 }
  - { offsetInCU: 0x3ADCD, offset: 0x3ADCD, size: 0x8, addend: 0x0, symName: __ZNSt3__113unordered_mapI5Pointc11PointHasherNS_8equal_toIS1_EENS_9allocatorINS_4pairIKS1_cEEEEEC2EOSA_, symObjAddr: 0x19888, symBinAddr: 0x10001B578, symSize: 0x50 }
  - { offsetInCU: 0x3AE08, offset: 0x3AE08, size: 0x8, addend: 0x0, symName: __ZNSt3__112__hash_tableINS_17__hash_value_typeI5PointcEENS_22__unordered_map_hasherIS2_S3_11PointHasherNS_8equal_toIS2_EELb1EEENS_21__unordered_map_equalIS2_S3_S7_S5_Lb1EEENS_9allocatorIS3_EEEC1EOSD_, symObjAddr: 0x198D8, symBinAddr: 0x10001B5C8, symSize: 0x34 }
  - { offsetInCU: 0x3AE43, offset: 0x3AE43, size: 0x8, addend: 0x0, symName: __ZNSt3__112__hash_tableINS_17__hash_value_typeI5PointcEENS_22__unordered_map_hasherIS2_S3_11PointHasherNS_8equal_toIS2_EELb1EEENS_21__unordered_map_equalIS2_S3_S7_S5_Lb1EEENS_9allocatorIS3_EEEC2EOSD_, symObjAddr: 0x19920, symBinAddr: 0x10001B610, symSize: 0xF8 }
  - { offsetInCU: 0x3AE7E, offset: 0x3AE7E, size: 0x8, addend: 0x0, symName: __ZNSt3__110unique_ptrIA_PNS_16__hash_node_baseIPNS_11__hash_nodeINS_17__hash_value_typeI5PointcEEPvEEEENS_25__bucket_list_deallocatorINS_9allocatorISA_EEEEEC1B7v160006EOSG_, symObjAddr: 0x19A18, symBinAddr: 0x10001B708, symSize: 0x34 }
  - { offsetInCU: 0x3AEB7, offset: 0x3AEB7, size: 0x8, addend: 0x0, symName: __ZNSt3__110unique_ptrIA_PNS_16__hash_node_baseIPNS_11__hash_nodeINS_17__hash_value_typeI5PointcEEPvEEEENS_25__bucket_list_deallocatorINS_9allocatorISA_EEEEEC2B7v160006EOSG_, symObjAddr: 0x19A4C, symBinAddr: 0x10001B73C, symSize: 0x60 }
  - { offsetInCU: 0x3AEF0, offset: 0x3AEF0, size: 0x8, addend: 0x0, symName: __ZNSt3__110unique_ptrIA_PNS_16__hash_node_baseIPNS_11__hash_nodeINS_17__hash_value_typeI5PointcEEPvEEEENS_25__bucket_list_deallocatorINS_9allocatorISA_EEEEE7releaseB7v160006Ev, symObjAddr: 0x19AAC, symBinAddr: 0x10001B79C, symSize: 0x44 }
  - { offsetInCU: 0x3AF2B, offset: 0x3AF2B, size: 0x8, addend: 0x0, symName: __ZNSt3__117__compressed_pairIPPNS_16__hash_node_baseIPNS_11__hash_nodeINS_17__hash_value_typeI5PointcEEPvEEEENS_25__bucket_list_deallocatorINS_9allocatorISA_EEEEEC1B7v160006ISB_SF_EEOT_OT0_, symObjAddr: 0x19AF0, symBinAddr: 0x10001B7E0, symSize: 0x3C }
  - { offsetInCU: 0x3AF83, offset: 0x3AF83, size: 0x8, addend: 0x0, symName: __ZNSt3__117__compressed_pairIPPNS_16__hash_node_baseIPNS_11__hash_nodeINS_17__hash_value_typeI5PointcEEPvEEEENS_25__bucket_list_deallocatorINS_9allocatorISA_EEEEEC2B7v160006ISB_SF_EEOT_OT0_, symObjAddr: 0x19B2C, symBinAddr: 0x10001B81C, symSize: 0x48 }
  - { offsetInCU: 0x3AFDB, offset: 0x3AFDB, size: 0x8, addend: 0x0, symName: __ZNSt3__122__compressed_pair_elemIPPNS_16__hash_node_baseIPNS_11__hash_nodeINS_17__hash_value_typeI5PointcEEPvEEEELi0ELb0EEC2B7v160006ISB_vEEOT_, symObjAddr: 0x19B74, symBinAddr: 0x10001B864, symSize: 0x24 }
  - { offsetInCU: 0x3B01D, offset: 0x3B01D, size: 0x8, addend: 0x0, symName: __ZNSt3__122__compressed_pair_elemINS_25__bucket_list_deallocatorINS_9allocatorIPNS_16__hash_node_baseIPNS_11__hash_nodeINS_17__hash_value_typeI5PointcEEPvEEEEEEEELi1ELb0EEC2B7v160006ISE_vEEOT_, symObjAddr: 0x19B98, symBinAddr: 0x10001B888, symSize: 0x34 }
  - { offsetInCU: 0x3B05F, offset: 0x3B05F, size: 0x8, addend: 0x0, symName: __ZNSt3__125__bucket_list_deallocatorINS_9allocatorIPNS_16__hash_node_baseIPNS_11__hash_nodeINS_17__hash_value_typeI5PointcEEPvEEEEEEEC1B7v160006EOSD_, symObjAddr: 0x19BCC, symBinAddr: 0x10001B8BC, symSize: 0x34 }
  - { offsetInCU: 0x3B098, offset: 0x3B098, size: 0x8, addend: 0x0, symName: __ZNSt3__125__bucket_list_deallocatorINS_9allocatorIPNS_16__hash_node_baseIPNS_11__hash_nodeINS_17__hash_value_typeI5PointcEEPvEEEEEEEC2B7v160006EOSD_, symObjAddr: 0x19C00, symBinAddr: 0x10001B8F0, symSize: 0x48 }
  - { offsetInCU: 0x3B0D1, offset: 0x3B0D1, size: 0x8, addend: 0x0, symName: __ZN6PlayerC2EOS_, symObjAddr: 0x19C48, symBinAddr: 0x10001B938, symSize: 0x34 }
  - { offsetInCU: 0x3B106, offset: 0x3B106, size: 0x8, addend: 0x0, symName: __ZNSt3__16vectorI4RoomNS_9allocatorIS1_EEE21_ConstructTransactionD2B7v160006Ev, symObjAddr: 0x19C7C, symBinAddr: 0x10001B96C, symSize: 0x20 }
  - { offsetInCU: 0x3B130, offset: 0x3B130, size: 0x8, addend: 0x0, symName: __ZNKSt3__16vectorI4RoomNS_9allocatorIS1_EEE11__recommendB7v160006Em, symObjAddr: 0x19C9C, symBinAddr: 0x10001B98C, symSize: 0xB4 }
  - { offsetInCU: 0x3B185, offset: 0x3B185, size: 0x8, addend: 0x0, symName: __ZNSt3__114__split_bufferI4RoomRNS_9allocatorIS1_EEEC1EmmS4_, symObjAddr: 0x19D50, symBinAddr: 0x10001BA40, symSize: 0x44 }
  - { offsetInCU: 0x3B1DB, offset: 0x3B1DB, size: 0x8, addend: 0x0, symName: __ZNSt3__114__split_bufferI4RoomRNS_9allocatorIS1_EEED1Ev, symObjAddr: 0x19EAC, symBinAddr: 0x10001BB9C, symSize: 0x2C }
  - { offsetInCU: 0x3B207, offset: 0x3B207, size: 0x8, addend: 0x0, symName: __ZNKSt3__16vectorI4RoomNS_9allocatorIS1_EEE8max_sizeEv, symObjAddr: 0x19ED8, symBinAddr: 0x10001BBC8, symSize: 0x60 }
  - { offsetInCU: 0x3B22F, offset: 0x3B22F, size: 0x8, addend: 0x0, symName: __ZNKSt3__16vectorI4RoomNS_9allocatorIS1_EEE20__throw_length_errorB7v160006Ev, symObjAddr: 0x19F38, symBinAddr: 0x10001BC28, symSize: 0x1C }
  - { offsetInCU: 0x3B25F, offset: 0x3B25F, size: 0x8, addend: 0x0, symName: __ZNSt3__116allocator_traitsINS_9allocatorI4RoomEEE8max_sizeB7v160006IS3_vEEmRKS3_, symObjAddr: 0x19F54, symBinAddr: 0x10001BC44, symSize: 0x24 }
  - { offsetInCU: 0x3B28D, offset: 0x3B28D, size: 0x8, addend: 0x0, symName: __ZNKSt3__16vectorI4RoomNS_9allocatorIS1_EEE7__allocB7v160006Ev, symObjAddr: 0x19F78, symBinAddr: 0x10001BC68, symSize: 0x28 }
  - { offsetInCU: 0x3B2B3, offset: 0x3B2B3, size: 0x8, addend: 0x0, symName: __ZNKSt3__19allocatorI4RoomE8max_sizeB7v160006Ev, symObjAddr: 0x19FA0, symBinAddr: 0x10001BC90, symSize: 0x20 }
  - { offsetInCU: 0x3B2D9, offset: 0x3B2D9, size: 0x8, addend: 0x0, symName: __ZNKSt3__117__compressed_pairIP4RoomNS_9allocatorIS1_EEE6secondB7v160006Ev, symObjAddr: 0x19FC0, symBinAddr: 0x10001BCB0, symSize: 0x24 }
  - { offsetInCU: 0x3B2FF, offset: 0x3B2FF, size: 0x8, addend: 0x0, symName: __ZNKSt3__122__compressed_pair_elemINS_9allocatorI4RoomEELi1ELb1EE5__getB7v160006Ev, symObjAddr: 0x19FE4, symBinAddr: 0x10001BCD4, symSize: 0x14 }
  - { offsetInCU: 0x3B325, offset: 0x3B325, size: 0x8, addend: 0x0, symName: __ZNSt3__114__split_bufferI4RoomRNS_9allocatorIS1_EEEC2EmmS4_, symObjAddr: 0x19FF8, symBinAddr: 0x10001BCE8, symSize: 0xE0 }
  - { offsetInCU: 0x3B398, offset: 0x3B398, size: 0x8, addend: 0x0, symName: __ZNSt3__117__compressed_pairIP4RoomRNS_9allocatorIS1_EEEC1B7v160006IDnS5_EEOT_OT0_, symObjAddr: 0x1A0D8, symBinAddr: 0x10001BDC8, symSize: 0x3C }
  - { offsetInCU: 0x3B3F0, offset: 0x3B3F0, size: 0x8, addend: 0x0, symName: __ZNSt3__114__split_bufferI4RoomRNS_9allocatorIS1_EEE7__allocB7v160006Ev, symObjAddr: 0x1A154, symBinAddr: 0x10001BE44, symSize: 0x28 }
  - { offsetInCU: 0x3B416, offset: 0x3B416, size: 0x8, addend: 0x0, symName: __ZNSt3__114__split_bufferI4RoomRNS_9allocatorIS1_EEE9__end_capB7v160006Ev, symObjAddr: 0x1A17C, symBinAddr: 0x10001BE6C, symSize: 0x28 }
  - { offsetInCU: 0x3B43C, offset: 0x3B43C, size: 0x8, addend: 0x0, symName: __ZNSt3__117__compressed_pairIP4RoomRNS_9allocatorIS1_EEEC2B7v160006IDnS5_EEOT_OT0_, symObjAddr: 0x1A1A4, symBinAddr: 0x10001BE94, symSize: 0x48 }
  - { offsetInCU: 0x3B494, offset: 0x3B494, size: 0x8, addend: 0x0, symName: __ZNSt3__122__compressed_pair_elemIRNS_9allocatorI4RoomEELi1ELb0EEC2B7v160006IS4_vEEOT_, symObjAddr: 0x1A1EC, symBinAddr: 0x10001BEDC, symSize: 0x20 }
  - { offsetInCU: 0x3B4D6, offset: 0x3B4D6, size: 0x8, addend: 0x0, symName: __ZNSt3__19allocatorI4RoomE8allocateB7v160006Em, symObjAddr: 0x1A20C, symBinAddr: 0x10001BEFC, symSize: 0x5C }
  - { offsetInCU: 0x3B50A, offset: 0x3B50A, size: 0x8, addend: 0x0, symName: __ZNSt3__117__compressed_pairIP4RoomRNS_9allocatorIS1_EEE6secondB7v160006Ev, symObjAddr: 0x1A268, symBinAddr: 0x10001BF58, symSize: 0x28 }
  - { offsetInCU: 0x3B530, offset: 0x3B530, size: 0x8, addend: 0x0, symName: __ZNSt3__122__compressed_pair_elemIRNS_9allocatorI4RoomEELi1ELb0EE5__getB7v160006Ev, symObjAddr: 0x1A290, symBinAddr: 0x10001BF80, symSize: 0x18 }
  - { offsetInCU: 0x3B556, offset: 0x3B556, size: 0x8, addend: 0x0, symName: __ZNSt3__117__compressed_pairIP4RoomRNS_9allocatorIS1_EEE5firstB7v160006Ev, symObjAddr: 0x1A2A8, symBinAddr: 0x10001BF98, symSize: 0x24 }
  - { offsetInCU: 0x3B57C, offset: 0x3B57C, size: 0x8, addend: 0x0, symName: __ZNSt3__116reverse_iteratorIP4RoomEC1B7v160006ES2_, symObjAddr: 0x1A3F8, symBinAddr: 0x10001C0E8, symSize: 0x34 }
  - { offsetInCU: 0x3B5B4, offset: 0x3B5B4, size: 0x8, addend: 0x0, symName: __ZNKSt3__116reverse_iteratorIP4RoomE4baseB7v160006Ev, symObjAddr: 0x1A42C, symBinAddr: 0x10001C11C, symSize: 0x18 }
  - { offsetInCU: 0x3B5DA, offset: 0x3B5DA, size: 0x8, addend: 0x0, symName: __ZNKSt3__16vectorI4RoomNS_9allocatorIS1_EEE14__annotate_newB7v160006Em, symObjAddr: 0x1A480, symBinAddr: 0x10001C170, symSize: 0xC8 }
  - { offsetInCU: 0x3B60F, offset: 0x3B60F, size: 0x8, addend: 0x0, symName: __ZNSt3__129_AllocatorDestroyRangeReverseINS_9allocatorI4RoomEENS_16reverse_iteratorIPS2_EEEC1B7v160006ERS3_RS6_S9_, symObjAddr: 0x1A5A4, symBinAddr: 0x10001C294, symSize: 0x44 }
  - { offsetInCU: 0x3B666, offset: 0x3B666, size: 0x8, addend: 0x0, symName: __ZNSt3__116allocator_traitsINS_9allocatorI4RoomEEE9constructB7v160006IS2_JRKS2_EvEEvRS3_PT_DpOT0_, symObjAddr: 0x1A630, symBinAddr: 0x10001C320, symSize: 0x34 }
  - { offsetInCU: 0x3B6BD, offset: 0x3B6BD, size: 0x8, addend: 0x0, symName: __ZNKSt3__116reverse_iteratorIP4RoomEdeB7v160006Ev, symObjAddr: 0x1A688, symBinAddr: 0x10001C378, symSize: 0x28 }
  - { offsetInCU: 0x3B6F1, offset: 0x3B6F1, size: 0x8, addend: 0x0, symName: __ZNSt3__116reverse_iteratorIP4RoomEppB7v160006Ev, symObjAddr: 0x1A6B0, symBinAddr: 0x10001C3A0, symSize: 0x20 }
  - { offsetInCU: 0x3B717, offset: 0x3B717, size: 0x8, addend: 0x0, symName: __ZNSt3__128__exception_guard_exceptionsINS_29_AllocatorDestroyRangeReverseINS_9allocatorI4RoomEENS_16reverse_iteratorIPS3_EEEEE10__completeB7v160006Ev, symObjAddr: 0x1A6D0, symBinAddr: 0x10001C3C0, symSize: 0x1C }
  - { offsetInCU: 0x3B73D, offset: 0x3B73D, size: 0x8, addend: 0x0, symName: __ZNSt3__128__exception_guard_exceptionsINS_29_AllocatorDestroyRangeReverseINS_9allocatorI4RoomEENS_16reverse_iteratorIPS3_EEEEED1B7v160006Ev, symObjAddr: 0x1A6EC, symBinAddr: 0x10001C3DC, symSize: 0x2C }
  - { offsetInCU: 0x3B767, offset: 0x3B767, size: 0x8, addend: 0x0, symName: __ZNSt3__128__exception_guard_exceptionsINS_29_AllocatorDestroyRangeReverseINS_9allocatorI4RoomEENS_16reverse_iteratorIPS3_EEEEEC1B7v160006ES8_, symObjAddr: 0x1A718, symBinAddr: 0x10001C408, symSize: 0x34 }
  - { offsetInCU: 0x3B7A0, offset: 0x3B7A0, size: 0x8, addend: 0x0, symName: __ZNSt3__128__exception_guard_exceptionsINS_29_AllocatorDestroyRangeReverseINS_9allocatorI4RoomEENS_16reverse_iteratorIPS3_EEEEEC2B7v160006ES8_, symObjAddr: 0x1A74C, symBinAddr: 0x10001C43C, symSize: 0x30 }
  - { offsetInCU: 0x3B7D9, offset: 0x3B7D9, size: 0x8, addend: 0x0, symName: __ZNSt3__129_AllocatorDestroyRangeReverseINS_9allocatorI4RoomEENS_16reverse_iteratorIPS2_EEEC2B7v160006ERS3_RS6_S9_, symObjAddr: 0x1A77C, symBinAddr: 0x10001C46C, symSize: 0x38 }
  - { offsetInCU: 0x3B830, offset: 0x3B830, size: 0x8, addend: 0x0, symName: __ZNSt3__19allocatorI4RoomE9constructB7v160006IS1_JRKS1_EEEvPT_DpOT0_, symObjAddr: 0x1A7B4, symBinAddr: 0x10001C4A4, symSize: 0x30 }
  - { offsetInCU: 0x3B886, offset: 0x3B886, size: 0x8, addend: 0x0, symName: __ZN4RoomC1ERKS_, symObjAddr: 0x1A7E4, symBinAddr: 0x10001C4D4, symSize: 0x34 }
  - { offsetInCU: 0x3B8BB, offset: 0x3B8BB, size: 0x8, addend: 0x0, symName: __ZN4RoomC2ERKS_, symObjAddr: 0x1A818, symBinAddr: 0x10001C508, symSize: 0x170 }
  - { offsetInCU: 0x3B8F0, offset: 0x3B8F0, size: 0x8, addend: 0x0, symName: __ZNSt3__113unordered_mapIiP4RoomNS_4hashIiEENS_8equal_toIiEENS_9allocatorINS_4pairIKiS2_EEEEEC1ERKSC_, symObjAddr: 0x1A988, symBinAddr: 0x10001C678, symSize: 0x34 }
  - { offsetInCU: 0x3B92B, offset: 0x3B92B, size: 0x8, addend: 0x0, symName: __ZNSt3__16vectorI4RoomNS_9allocatorIS1_EEEC1ERKS4_, symObjAddr: 0x1A9BC, symBinAddr: 0x10001C6AC, symSize: 0x34 }
  - { offsetInCU: 0x3B966, offset: 0x3B966, size: 0x8, addend: 0x0, symName: __ZNSt3__16vectorINS0_IcNS_9allocatorIcEEEENS1_IS3_EEEC1ERKS5_, symObjAddr: 0x1A9F0, symBinAddr: 0x10001C6E0, symSize: 0x34 }
  - { offsetInCU: 0x3B9A1, offset: 0x3B9A1, size: 0x8, addend: 0x0, symName: __ZNSt3__16vectorI5PointNS_9allocatorIS1_EEEC1ERKS4_, symObjAddr: 0x1AA24, symBinAddr: 0x10001C714, symSize: 0x34 }
  - { offsetInCU: 0x3B9DC, offset: 0x3B9DC, size: 0x8, addend: 0x0, symName: __ZNSt3__113unordered_mapI5Pointc11PointHasherNS_8equal_toIS1_EENS_9allocatorINS_4pairIKS1_cEEEEEC1ERKSA_, symObjAddr: 0x1AA58, symBinAddr: 0x10001C748, symSize: 0x34 }
  - { offsetInCU: 0x3BA21, offset: 0x3BA21, size: 0x8, addend: 0x0, symName: __ZN6PlayerC1ERKS_, symObjAddr: 0x1AA8C, symBinAddr: 0x10001C77C, symSize: 0x34 }
  - { offsetInCU: 0x3BA56, offset: 0x3BA56, size: 0x8, addend: 0x0, symName: __ZNSt3__113unordered_mapIiP4RoomNS_4hashIiEENS_8equal_toIiEENS_9allocatorINS_4pairIKiS2_EEEEEC2ERKSC_, symObjAddr: 0x1AAC0, symBinAddr: 0x10001C7B0, symSize: 0xA8 }
  - { offsetInCU: 0x3BA91, offset: 0x3BA91, size: 0x8, addend: 0x0, symName: __ZNSt3__112__hash_tableINS_17__hash_value_typeIiP4RoomEENS_22__unordered_map_hasherIiS4_NS_4hashIiEENS_8equal_toIiEELb1EEENS_21__unordered_map_equalIiS4_S9_S7_Lb1EEENS_9allocatorIS4_EEEC1ERKSF_, symObjAddr: 0x1AB68, symBinAddr: 0x10001C858, symSize: 0x34 }
  - { offsetInCU: 0x3BACC, offset: 0x3BACC, size: 0x8, addend: 0x0, symName: __ZNKSt3__113unordered_mapIiP4RoomNS_4hashIiEENS_8equal_toIiEENS_9allocatorINS_4pairIKiS2_EEEEE12bucket_countB7v160006Ev, symObjAddr: 0x1AB9C, symBinAddr: 0x10001C88C, symSize: 0x24 }
  - { offsetInCU: 0x3BAF2, offset: 0x3BAF2, size: 0x8, addend: 0x0, symName: __ZNSt3__113unordered_mapIiP4RoomNS_4hashIiEENS_8equal_toIiEENS_9allocatorINS_4pairIKiS2_EEEEE6insertINS_25__hash_map_const_iteratorINS_21__hash_const_iteratorIPNS_11__hash_nodeINS_17__hash_value_typeIiS2_EEPvEEEEEEEEvT_SO_, symObjAddr: 0x1ABC0, symBinAddr: 0x10001C8B0, symSize: 0x70 }
  - { offsetInCU: 0x3BB41, offset: 0x3BB41, size: 0x8, addend: 0x0, symName: __ZNKSt3__113unordered_mapIiP4RoomNS_4hashIiEENS_8equal_toIiEENS_9allocatorINS_4pairIKiS2_EEEEE5beginB7v160006Ev, symObjAddr: 0x1AC30, symBinAddr: 0x10001C920, symSize: 0x38 }
  - { offsetInCU: 0x3BB67, offset: 0x3BB67, size: 0x8, addend: 0x0, symName: __ZNKSt3__113unordered_mapIiP4RoomNS_4hashIiEENS_8equal_toIiEENS_9allocatorINS_4pairIKiS2_EEEEE3endB7v160006Ev, symObjAddr: 0x1AC68, symBinAddr: 0x10001C958, symSize: 0x38 }
  - { offsetInCU: 0x3BB8D, offset: 0x3BB8D, size: 0x8, addend: 0x0, symName: __ZNSt3__112__hash_tableINS_17__hash_value_typeIiP4RoomEENS_22__unordered_map_hasherIiS4_NS_4hashIiEENS_8equal_toIiEELb1EEENS_21__unordered_map_equalIiS4_S9_S7_Lb1EEENS_9allocatorIS4_EEEC2ERKSF_, symObjAddr: 0x1ACA0, symBinAddr: 0x10001C990, symSize: 0xEC }
  - { offsetInCU: 0x3BBC8, offset: 0x3BBC8, size: 0x8, addend: 0x0, symName: __ZNSt3__116allocator_traitsINS_9allocatorIPNS_16__hash_node_baseIPNS_11__hash_nodeINS_17__hash_value_typeIiP4RoomEEPvEEEEEEE37select_on_container_copy_constructionB7v160006ISD_vvEESD_RKSD_, symObjAddr: 0x1AD8C, symBinAddr: 0x10001CA7C, symSize: 0x10 }
  - { offsetInCU: 0x3BBF7, offset: 0x3BBF7, size: 0x8, addend: 0x0, symName: __ZNKSt3__125__bucket_list_deallocatorINS_9allocatorIPNS_16__hash_node_baseIPNS_11__hash_nodeINS_17__hash_value_typeIiP4RoomEEPvEEEEEEE7__allocB7v160006Ev, symObjAddr: 0x1AD9C, symBinAddr: 0x10001CA8C, symSize: 0x24 }
  - { offsetInCU: 0x3BC1D, offset: 0x3BC1D, size: 0x8, addend: 0x0, symName: __ZNSt3__125__bucket_list_deallocatorINS_9allocatorIPNS_16__hash_node_baseIPNS_11__hash_nodeINS_17__hash_value_typeIiP4RoomEEPvEEEEEEEC1B7v160006ERKSD_m, symObjAddr: 0x1ADC0, symBinAddr: 0x10001CAB0, symSize: 0x3C }
  - { offsetInCU: 0x3BC65, offset: 0x3BC65, size: 0x8, addend: 0x0, symName: __ZNSt3__110unique_ptrIA_PNS_16__hash_node_baseIPNS_11__hash_nodeINS_17__hash_value_typeIiP4RoomEEPvEEEENS_25__bucket_list_deallocatorINS_9allocatorISB_EEEEEC1B7v160006ILb1EvEEDnNS_16__dependent_typeINS_27__unique_ptr_deleter_sfinaeISG_EEXT_EE20__good_rval_ref_typeE, symObjAddr: 0x1ADFC, symBinAddr: 0x10001CAEC, symSize: 0x3C }
  - { offsetInCU: 0x3BCB4, offset: 0x3BCB4, size: 0x8, addend: 0x0, symName: __ZNSt3__116allocator_traitsINS_9allocatorINS_11__hash_nodeINS_17__hash_value_typeIiP4RoomEEPvEEEEE37select_on_container_copy_constructionB7v160006IS9_vvEES9_RKS9_, symObjAddr: 0x1AE38, symBinAddr: 0x10001CB28, symSize: 0x10 }
  - { offsetInCU: 0x3BCE3, offset: 0x3BCE3, size: 0x8, addend: 0x0, symName: __ZNKSt3__112__hash_tableINS_17__hash_value_typeIiP4RoomEENS_22__unordered_map_hasherIiS4_NS_4hashIiEENS_8equal_toIiEELb1EEENS_21__unordered_map_equalIiS4_S9_S7_Lb1EEENS_9allocatorIS4_EEE12__node_allocB7v160006Ev, symObjAddr: 0x1AE48, symBinAddr: 0x10001CB38, symSize: 0x28 }
  - { offsetInCU: 0x3BD0F, offset: 0x3BD0F, size: 0x8, addend: 0x0, symName: __ZNSt3__117__compressed_pairINS_16__hash_node_baseIPNS_11__hash_nodeINS_17__hash_value_typeIiP4RoomEEPvEEEENS_9allocatorIS8_EEEC1B7v160006INS_18__default_init_tagESC_EEOT_OT0_, symObjAddr: 0x1AE70, symBinAddr: 0x10001CB60, symSize: 0x3C }
  - { offsetInCU: 0x3BD67, offset: 0x3BD67, size: 0x8, addend: 0x0, symName: __ZNKSt3__112__hash_tableINS_17__hash_value_typeIiP4RoomEENS_22__unordered_map_hasherIiS4_NS_4hashIiEENS_8equal_toIiEELb1EEENS_21__unordered_map_equalIiS4_S9_S7_Lb1EEENS_9allocatorIS4_EEE13hash_functionB7v160006Ev, symObjAddr: 0x1AEAC, symBinAddr: 0x10001CB9C, symSize: 0x28 }
  - { offsetInCU: 0x3BD8D, offset: 0x3BD8D, size: 0x8, addend: 0x0, symName: __ZNSt3__117__compressed_pairImNS_22__unordered_map_hasherIiNS_17__hash_value_typeIiP4RoomEENS_4hashIiEENS_8equal_toIiEELb1EEEEC1B7v160006IiRKSA_EEOT_OT0_, symObjAddr: 0x1AED4, symBinAddr: 0x10001CBC4, symSize: 0x3C }
  - { offsetInCU: 0x3BDE5, offset: 0x3BDE5, size: 0x8, addend: 0x0, symName: __ZNKSt3__117__compressed_pairImNS_9allocatorIPNS_16__hash_node_baseIPNS_11__hash_nodeINS_17__hash_value_typeIiP4RoomEEPvEEEEEEE6secondB7v160006Ev, symObjAddr: 0x1AF10, symBinAddr: 0x10001CC00, symSize: 0x24 }
  - { offsetInCU: 0x3BE0B, offset: 0x3BE0B, size: 0x8, addend: 0x0, symName: __ZNKSt3__122__compressed_pair_elemINS_9allocatorIPNS_16__hash_node_baseIPNS_11__hash_nodeINS_17__hash_value_typeIiP4RoomEEPvEEEEEELi1ELb1EE5__getB7v160006Ev, symObjAddr: 0x1AF34, symBinAddr: 0x10001CC24, symSize: 0x14 }
  - { offsetInCU: 0x3BE31, offset: 0x3BE31, size: 0x8, addend: 0x0, symName: __ZNSt3__125__bucket_list_deallocatorINS_9allocatorIPNS_16__hash_node_baseIPNS_11__hash_nodeINS_17__hash_value_typeIiP4RoomEEPvEEEEEEEC2B7v160006ERKSD_m, symObjAddr: 0x1AF48, symBinAddr: 0x10001CC38, symSize: 0x44 }
  - { offsetInCU: 0x3BE79, offset: 0x3BE79, size: 0x8, addend: 0x0, symName: __ZNSt3__117__compressed_pairImNS_9allocatorIPNS_16__hash_node_baseIPNS_11__hash_nodeINS_17__hash_value_typeIiP4RoomEEPvEEEEEEEC1B7v160006IRmRKSD_EEOT_OT0_, symObjAddr: 0x1AF8C, symBinAddr: 0x10001CC7C, symSize: 0x3C }
  - { offsetInCU: 0x3BED1, offset: 0x3BED1, size: 0x8, addend: 0x0, symName: __ZNSt3__117__compressed_pairImNS_9allocatorIPNS_16__hash_node_baseIPNS_11__hash_nodeINS_17__hash_value_typeIiP4RoomEEPvEEEEEEEC2B7v160006IRmRKSD_EEOT_OT0_, symObjAddr: 0x1AFC8, symBinAddr: 0x10001CCB8, symSize: 0x44 }
  - { offsetInCU: 0x3BF29, offset: 0x3BF29, size: 0x8, addend: 0x0, symName: __ZNSt3__122__compressed_pair_elemImLi0ELb0EEC2B7v160006IRmvEEOT_, symObjAddr: 0x1B00C, symBinAddr: 0x10001CCFC, symSize: 0x24 }
  - { offsetInCU: 0x3BF6B, offset: 0x3BF6B, size: 0x8, addend: 0x0, symName: __ZNSt3__122__compressed_pair_elemINS_9allocatorIPNS_16__hash_node_baseIPNS_11__hash_nodeINS_17__hash_value_typeIiP4RoomEEPvEEEEEELi1ELb1EEC2B7v160006IRKSD_vEEOT_, symObjAddr: 0x1B030, symBinAddr: 0x10001CD20, symSize: 0x18 }
  - { offsetInCU: 0x3BFAD, offset: 0x3BFAD, size: 0x8, addend: 0x0, symName: __ZNSt3__110unique_ptrIA_PNS_16__hash_node_baseIPNS_11__hash_nodeINS_17__hash_value_typeIiP4RoomEEPvEEEENS_25__bucket_list_deallocatorINS_9allocatorISB_EEEEEC2B7v160006ILb1EvEEDnNS_16__dependent_typeINS_27__unique_ptr_deleter_sfinaeISG_EEXT_EE20__good_rval_ref_typeE, symObjAddr: 0x1B048, symBinAddr: 0x10001CD38, symSize: 0x48 }
  - { offsetInCU: 0x3BFFC, offset: 0x3BFFC, size: 0x8, addend: 0x0, symName: __ZNSt3__117__compressed_pairIPPNS_16__hash_node_baseIPNS_11__hash_nodeINS_17__hash_value_typeIiP4RoomEEPvEEEENS_25__bucket_list_deallocatorINS_9allocatorISB_EEEEEC1B7v160006IDnSG_EEOT_OT0_, symObjAddr: 0x1B090, symBinAddr: 0x10001CD80, symSize: 0x3C }
  - { offsetInCU: 0x3C054, offset: 0x3C054, size: 0x8, addend: 0x0, symName: __ZNSt3__117__compressed_pairIPPNS_16__hash_node_baseIPNS_11__hash_nodeINS_17__hash_value_typeIiP4RoomEEPvEEEENS_25__bucket_list_deallocatorINS_9allocatorISB_EEEEEC2B7v160006IDnSG_EEOT_OT0_, symObjAddr: 0x1B0CC, symBinAddr: 0x10001CDBC, symSize: 0x48 }
  - { offsetInCU: 0x3C0AC, offset: 0x3C0AC, size: 0x8, addend: 0x0, symName: __ZNSt3__122__compressed_pair_elemIPPNS_16__hash_node_baseIPNS_11__hash_nodeINS_17__hash_value_typeIiP4RoomEEPvEEEELi0ELb0EEC2B7v160006IDnvEEOT_, symObjAddr: 0x1B114, symBinAddr: 0x10001CE04, symSize: 0x1C }
  - { offsetInCU: 0x3C0EE, offset: 0x3C0EE, size: 0x8, addend: 0x0, symName: __ZNKSt3__117__compressed_pairINS_16__hash_node_baseIPNS_11__hash_nodeINS_17__hash_value_typeIiP4RoomEEPvEEEENS_9allocatorIS8_EEE6secondB7v160006Ev, symObjAddr: 0x1B130, symBinAddr: 0x10001CE20, symSize: 0x24 }
  - { offsetInCU: 0x3C114, offset: 0x3C114, size: 0x8, addend: 0x0, symName: __ZNKSt3__122__compressed_pair_elemINS_9allocatorINS_11__hash_nodeINS_17__hash_value_typeIiP4RoomEEPvEEEELi1ELb1EE5__getB7v160006Ev, symObjAddr: 0x1B154, symBinAddr: 0x10001CE44, symSize: 0x14 }
  - { offsetInCU: 0x3C13A, offset: 0x3C13A, size: 0x8, addend: 0x0, symName: __ZNSt3__117__compressed_pairINS_16__hash_node_baseIPNS_11__hash_nodeINS_17__hash_value_typeIiP4RoomEEPvEEEENS_9allocatorIS8_EEEC2B7v160006INS_18__default_init_tagESC_EEOT_OT0_, symObjAddr: 0x1B168, symBinAddr: 0x10001CE58, symSize: 0x40 }
  - { offsetInCU: 0x3C192, offset: 0x3C192, size: 0x8, addend: 0x0, symName: __ZNSt3__122__compressed_pair_elemINS_16__hash_node_baseIPNS_11__hash_nodeINS_17__hash_value_typeIiP4RoomEEPvEEEELi0ELb0EEC2B7v160006ENS_18__default_init_tagE, symObjAddr: 0x1B1A8, symBinAddr: 0x10001CE98, symSize: 0x2C }
  - { offsetInCU: 0x3C1C6, offset: 0x3C1C6, size: 0x8, addend: 0x0, symName: __ZNSt3__122__compressed_pair_elemINS_9allocatorINS_11__hash_nodeINS_17__hash_value_typeIiP4RoomEEPvEEEELi1ELb1EEC2B7v160006IS9_vEEOT_, symObjAddr: 0x1B1D4, symBinAddr: 0x10001CEC4, symSize: 0x18 }
  - { offsetInCU: 0x3C208, offset: 0x3C208, size: 0x8, addend: 0x0, symName: __ZNKSt3__117__compressed_pairImNS_22__unordered_map_hasherIiNS_17__hash_value_typeIiP4RoomEENS_4hashIiEENS_8equal_toIiEELb1EEEE6secondB7v160006Ev, symObjAddr: 0x1B1EC, symBinAddr: 0x10001CEDC, symSize: 0x24 }
  - { offsetInCU: 0x3C22E, offset: 0x3C22E, size: 0x8, addend: 0x0, symName: __ZNKSt3__122__compressed_pair_elemINS_22__unordered_map_hasherIiNS_17__hash_value_typeIiP4RoomEENS_4hashIiEENS_8equal_toIiEELb1EEELi1ELb1EE5__getB7v160006Ev, symObjAddr: 0x1B210, symBinAddr: 0x10001CF00, symSize: 0x14 }
  - { offsetInCU: 0x3C254, offset: 0x3C254, size: 0x8, addend: 0x0, symName: __ZNSt3__117__compressed_pairImNS_22__unordered_map_hasherIiNS_17__hash_value_typeIiP4RoomEENS_4hashIiEENS_8equal_toIiEELb1EEEEC2B7v160006IiRKSA_EEOT_OT0_, symObjAddr: 0x1B224, symBinAddr: 0x10001CF14, symSize: 0x44 }
  - { offsetInCU: 0x3C2AC, offset: 0x3C2AC, size: 0x8, addend: 0x0, symName: __ZNSt3__122__compressed_pair_elemINS_22__unordered_map_hasherIiNS_17__hash_value_typeIiP4RoomEENS_4hashIiEENS_8equal_toIiEELb1EEELi1ELb1EEC2B7v160006IRKSA_vEEOT_, symObjAddr: 0x1B268, symBinAddr: 0x10001CF58, symSize: 0x18 }
  - { offsetInCU: 0x3C2EE, offset: 0x3C2EE, size: 0x8, addend: 0x0, symName: __ZNSt3__112__hash_tableINS_17__hash_value_typeIiP4RoomEENS_22__unordered_map_hasherIiS4_NS_4hashIiEENS_8equal_toIiEELb1EEENS_21__unordered_map_equalIiS4_S9_S7_Lb1EEENS_9allocatorIS4_EEE15__insert_uniqueB7v160006ERKNS_4pairIKiS3_EE, symObjAddr: 0x1B2B0, symBinAddr: 0x10001CFA0, symSize: 0x50 }
  - { offsetInCU: 0x3C323, offset: 0x3C323, size: 0x8, addend: 0x0, symName: __ZNKSt3__125__hash_map_const_iteratorINS_21__hash_const_iteratorIPNS_11__hash_nodeINS_17__hash_value_typeIiP4RoomEEPvEEEEEdeB7v160006Ev, symObjAddr: 0x1B300, symBinAddr: 0x10001CFF0, symSize: 0x28 }
  - { offsetInCU: 0x3C349, offset: 0x3C349, size: 0x8, addend: 0x0, symName: __ZNSt3__125__hash_map_const_iteratorINS_21__hash_const_iteratorIPNS_11__hash_nodeINS_17__hash_value_typeIiP4RoomEEPvEEEEEppB7v160006Ev, symObjAddr: 0x1B328, symBinAddr: 0x10001D018, symSize: 0x2C }
  - { offsetInCU: 0x3C36F, offset: 0x3C36F, size: 0x8, addend: 0x0, symName: __ZNSt3__112__hash_tableINS_17__hash_value_typeIiP4RoomEENS_22__unordered_map_hasherIiS4_NS_4hashIiEENS_8equal_toIiEELb1EEENS_21__unordered_map_equalIiS4_S9_S7_Lb1EEENS_9allocatorIS4_EEE25__emplace_unique_key_argsIiJRKNS_4pairIKiS3_EEEEENSH_INS_15__hash_iteratorIPNS_11__hash_nodeIS4_PvEEEEbEERKT_DpOT0_, symObjAddr: 0x1B3B8, symBinAddr: 0x10001D0A8, symSize: 0x488 }
  - { offsetInCU: 0x3C44F, offset: 0x3C44F, size: 0x8, addend: 0x0, symName: __ZNSt3__122__hash_key_value_typesINS_17__hash_value_typeIiP4RoomEEE9__get_keyB7v160006ERKNS_4pairIKiS3_EE, symObjAddr: 0x1B840, symBinAddr: 0x10001D530, symSize: 0x14 }
  - { offsetInCU: 0x3C472, offset: 0x3C472, size: 0x8, addend: 0x0, symName: __ZNSt3__112__hash_tableINS_17__hash_value_typeIiP4RoomEENS_22__unordered_map_hasherIiS4_NS_4hashIiEENS_8equal_toIiEELb1EEENS_21__unordered_map_equalIiS4_S9_S7_Lb1EEENS_9allocatorIS4_EEE21__construct_node_hashIRKNS_4pairIKiS3_EEJEEENS_10unique_ptrINS_11__hash_nodeIS4_PvEENS_22__hash_node_destructorINSD_ISP_EEEEEEmOT_DpOT0_, symObjAddr: 0x1B854, symBinAddr: 0x10001D544, symSize: 0x140 }
  - { offsetInCU: 0x3C4E5, offset: 0x3C4E5, size: 0x8, addend: 0x0, symName: __ZNSt3__116allocator_traitsINS_9allocatorINS_11__hash_nodeINS_17__hash_value_typeIiP4RoomEEPvEEEEE9constructB7v160006INS_4pairIKiS5_EEJRKSE_EvEEvRS9_PT_DpOT0_, symObjAddr: 0x1B994, symBinAddr: 0x10001D684, symSize: 0x34 }
  - { offsetInCU: 0x3C53C, offset: 0x3C53C, size: 0x8, addend: 0x0, symName: __ZNSt3__19allocatorINS_11__hash_nodeINS_17__hash_value_typeIiP4RoomEEPvEEE9constructB7v160006INS_4pairIKiS4_EEJRKSC_EEEvPT_DpOT0_, symObjAddr: 0x1B9C8, symBinAddr: 0x10001D6B8, symSize: 0x28 }
  - { offsetInCU: 0x3C592, offset: 0x3C592, size: 0x8, addend: 0x0, symName: __ZNKSt3__121__hash_const_iteratorIPNS_11__hash_nodeINS_17__hash_value_typeIiP4RoomEEPvEEEptB7v160006Ev, symObjAddr: 0x1B9F0, symBinAddr: 0x10001D6E0, symSize: 0x30 }
  - { offsetInCU: 0x3C5B8, offset: 0x3C5B8, size: 0x8, addend: 0x0, symName: __ZNSt3__114pointer_traitsIPKNS_17__hash_value_typeIiP4RoomEEE10pointer_toB7v160006ERS5_, symObjAddr: 0x1BA20, symBinAddr: 0x10001D710, symSize: 0x14 }
  - { offsetInCU: 0x3C5DB, offset: 0x3C5DB, size: 0x8, addend: 0x0, symName: __ZNSt3__121__hash_const_iteratorIPNS_11__hash_nodeINS_17__hash_value_typeIiP4RoomEEPvEEEppB7v160006Ev, symObjAddr: 0x1BA34, symBinAddr: 0x10001D724, symSize: 0x20 }
  - { offsetInCU: 0x3C601, offset: 0x3C601, size: 0x8, addend: 0x0, symName: __ZNKSt3__112__hash_tableINS_17__hash_value_typeIiP4RoomEENS_22__unordered_map_hasherIiS4_NS_4hashIiEENS_8equal_toIiEELb1EEENS_21__unordered_map_equalIiS4_S9_S7_Lb1EEENS_9allocatorIS4_EEE5beginEv, symObjAddr: 0x1BA54, symBinAddr: 0x10001D744, symSize: 0x40 }
  - { offsetInCU: 0x3C629, offset: 0x3C629, size: 0x8, addend: 0x0, symName: __ZNSt3__125__hash_map_const_iteratorINS_21__hash_const_iteratorIPNS_11__hash_nodeINS_17__hash_value_typeIiP4RoomEEPvEEEEEC1B7v160006ESA_, symObjAddr: 0x1BA94, symBinAddr: 0x10001D784, symSize: 0x34 }
  - { offsetInCU: 0x3C662, offset: 0x3C662, size: 0x8, addend: 0x0, symName: __ZNKSt3__117__compressed_pairINS_16__hash_node_baseIPNS_11__hash_nodeINS_17__hash_value_typeIiP4RoomEEPvEEEENS_9allocatorIS8_EEE5firstB7v160006Ev, symObjAddr: 0x1BAC8, symBinAddr: 0x10001D7B8, symSize: 0x24 }
  - { offsetInCU: 0x3C688, offset: 0x3C688, size: 0x8, addend: 0x0, symName: __ZNSt3__121__hash_const_iteratorIPNS_11__hash_nodeINS_17__hash_value_typeIiP4RoomEEPvEEEC1B7v160006EPNS_16__hash_node_baseIS8_EEPKv, symObjAddr: 0x1BAEC, symBinAddr: 0x10001D7DC, symSize: 0x3C }
  - { offsetInCU: 0x3C6D0, offset: 0x3C6D0, size: 0x8, addend: 0x0, symName: __ZNKSt3__122__compressed_pair_elemINS_16__hash_node_baseIPNS_11__hash_nodeINS_17__hash_value_typeIiP4RoomEEPvEEEELi0ELb0EE5__getB7v160006Ev, symObjAddr: 0x1BB28, symBinAddr: 0x10001D818, symSize: 0x14 }
  - { offsetInCU: 0x3C6F6, offset: 0x3C6F6, size: 0x8, addend: 0x0, symName: __ZNSt3__121__hash_const_iteratorIPNS_11__hash_nodeINS_17__hash_value_typeIiP4RoomEEPvEEEC2B7v160006EPNS_16__hash_node_baseIS8_EEPKv, symObjAddr: 0x1BB3C, symBinAddr: 0x10001D82C, symSize: 0x24 }
  - { offsetInCU: 0x3C73E, offset: 0x3C73E, size: 0x8, addend: 0x0, symName: __ZNSt3__125__hash_map_const_iteratorINS_21__hash_const_iteratorIPNS_11__hash_nodeINS_17__hash_value_typeIiP4RoomEEPvEEEEEC2B7v160006ESA_, symObjAddr: 0x1BB60, symBinAddr: 0x10001D850, symSize: 0x20 }
  - { offsetInCU: 0x3C777, offset: 0x3C777, size: 0x8, addend: 0x0, symName: __ZNKSt3__112__hash_tableINS_17__hash_value_typeIiP4RoomEENS_22__unordered_map_hasherIiS4_NS_4hashIiEENS_8equal_toIiEELb1EEENS_21__unordered_map_equalIiS4_S9_S7_Lb1EEENS_9allocatorIS4_EEE3endEv, symObjAddr: 0x1BB80, symBinAddr: 0x10001D870, symSize: 0x30 }
  - { offsetInCU: 0x3C79F, offset: 0x3C79F, size: 0x8, addend: 0x0, symName: __ZNSt3__16vectorI4RoomNS_9allocatorIS1_EEEC2ERKS4_, symObjAddr: 0x1BBB0, symBinAddr: 0x10001D8A0, symSize: 0x110 }
  - { offsetInCU: 0x3C7FE, offset: 0x3C7FE, size: 0x8, addend: 0x0, symName: __ZNSt3__116allocator_traitsINS_9allocatorI4RoomEEE37select_on_container_copy_constructionB7v160006IS3_vvEES3_RKS3_, symObjAddr: 0x1BCC0, symBinAddr: 0x10001D9B0, symSize: 0x10 }
  - { offsetInCU: 0x3C82D, offset: 0x3C82D, size: 0x8, addend: 0x0, symName: __ZNSt3__16vectorI4RoomNS_9allocatorIS1_EEE11__vallocateB7v160006Em, symObjAddr: 0x1BD10, symBinAddr: 0x10001DA00, symSize: 0xB4 }
  - { offsetInCU: 0x3C871, offset: 0x3C871, size: 0x8, addend: 0x0, symName: __ZNSt3__16vectorI4RoomNS_9allocatorIS1_EEE18__construct_at_endIPS1_Li0EEEvT_S7_m, symObjAddr: 0x1BDC4, symBinAddr: 0x10001DAB4, symSize: 0x8C }
  - { offsetInCU: 0x3C8E4, offset: 0x3C8E4, size: 0x8, addend: 0x0, symName: __ZNSt3__128__exception_guard_exceptionsINS_6vectorI4RoomNS_9allocatorIS2_EEE16__destroy_vectorEE10__completeB7v160006Ev, symObjAddr: 0x1BE50, symBinAddr: 0x10001DB40, symSize: 0x1C }
  - { offsetInCU: 0x3C90A, offset: 0x3C90A, size: 0x8, addend: 0x0, symName: __ZNSt3__128__exception_guard_exceptionsINS_6vectorI4RoomNS_9allocatorIS2_EEE16__destroy_vectorEED1B7v160006Ev, symObjAddr: 0x1BE6C, symBinAddr: 0x10001DB5C, symSize: 0x2C }
  - { offsetInCU: 0x3C934, offset: 0x3C934, size: 0x8, addend: 0x0, symName: __ZNSt3__128__exception_guard_exceptionsINS_6vectorI4RoomNS_9allocatorIS2_EEE16__destroy_vectorEEC1B7v160006ES6_, symObjAddr: 0x1BE98, symBinAddr: 0x10001DB88, symSize: 0x34 }
  - { offsetInCU: 0x3C96C, offset: 0x3C96C, size: 0x8, addend: 0x0, symName: __ZNSt3__128__exception_guard_exceptionsINS_6vectorI4RoomNS_9allocatorIS2_EEE16__destroy_vectorEEC2B7v160006ES6_, symObjAddr: 0x1BECC, symBinAddr: 0x10001DBBC, symSize: 0x24 }
  - { offsetInCU: 0x3C9A4, offset: 0x3C9A4, size: 0x8, addend: 0x0, symName: __ZNSt3__129_AllocatorDestroyRangeReverseINS_9allocatorI4RoomEEPS2_EC1B7v160006ERS3_RS4_S7_, symObjAddr: 0x1C030, symBinAddr: 0x10001DD20, symSize: 0x44 }
  - { offsetInCU: 0x3C9FB, offset: 0x3C9FB, size: 0x8, addend: 0x0, symName: __ZNSt3__116allocator_traitsINS_9allocatorI4RoomEEE9constructB7v160006IS2_JRS2_EvEEvRS3_PT_DpOT0_, symObjAddr: 0x1C074, symBinAddr: 0x10001DD64, symSize: 0x34 }
  - { offsetInCU: 0x3CA52, offset: 0x3CA52, size: 0x8, addend: 0x0, symName: __ZNSt3__128__exception_guard_exceptionsINS_29_AllocatorDestroyRangeReverseINS_9allocatorI4RoomEEPS3_EEE10__completeB7v160006Ev, symObjAddr: 0x1C0A8, symBinAddr: 0x10001DD98, symSize: 0x1C }
  - { offsetInCU: 0x3CA78, offset: 0x3CA78, size: 0x8, addend: 0x0, symName: __ZNSt3__128__exception_guard_exceptionsINS_29_AllocatorDestroyRangeReverseINS_9allocatorI4RoomEEPS3_EEED1B7v160006Ev, symObjAddr: 0x1C0C4, symBinAddr: 0x10001DDB4, symSize: 0x2C }
  - { offsetInCU: 0x3CAA2, offset: 0x3CAA2, size: 0x8, addend: 0x0, symName: __ZNSt3__128__exception_guard_exceptionsINS_29_AllocatorDestroyRangeReverseINS_9allocatorI4RoomEEPS3_EEEC1B7v160006ES6_, symObjAddr: 0x1C0F0, symBinAddr: 0x10001DDE0, symSize: 0x34 }
  - { offsetInCU: 0x3CADB, offset: 0x3CADB, size: 0x8, addend: 0x0, symName: __ZNSt3__128__exception_guard_exceptionsINS_29_AllocatorDestroyRangeReverseINS_9allocatorI4RoomEEPS3_EEEC2B7v160006ES6_, symObjAddr: 0x1C124, symBinAddr: 0x10001DE14, symSize: 0x30 }
  - { offsetInCU: 0x3CB14, offset: 0x3CB14, size: 0x8, addend: 0x0, symName: __ZNSt3__129_AllocatorDestroyRangeReverseINS_9allocatorI4RoomEEPS2_EC2B7v160006ERS3_RS4_S7_, symObjAddr: 0x1C154, symBinAddr: 0x10001DE44, symSize: 0x38 }
  - { offsetInCU: 0x3CB6B, offset: 0x3CB6B, size: 0x8, addend: 0x0, symName: __ZNSt3__19allocatorI4RoomE9constructB7v160006IS1_JRS1_EEEvPT_DpOT0_, symObjAddr: 0x1C18C, symBinAddr: 0x10001DE7C, symSize: 0x30 }
  - { offsetInCU: 0x3CBC1, offset: 0x3CBC1, size: 0x8, addend: 0x0, symName: __ZNSt3__128__exception_guard_exceptionsINS_29_AllocatorDestroyRangeReverseINS_9allocatorI4RoomEEPS3_EEED2B7v160006Ev, symObjAddr: 0x1C1BC, symBinAddr: 0x10001DEAC, symSize: 0x50 }
  - { offsetInCU: 0x3CBEB, offset: 0x3CBEB, size: 0x8, addend: 0x0, symName: __ZNKSt3__129_AllocatorDestroyRangeReverseINS_9allocatorI4RoomEEPS2_EclB7v160006Ev, symObjAddr: 0x1C20C, symBinAddr: 0x10001DEFC, symSize: 0x68 }
  - { offsetInCU: 0x3CC11, offset: 0x3CC11, size: 0x8, addend: 0x0, symName: __ZNSt3__128__exception_guard_exceptionsINS_6vectorI4RoomNS_9allocatorIS2_EEE16__destroy_vectorEED2B7v160006Ev, symObjAddr: 0x1C2E4, symBinAddr: 0x10001DFD4, symSize: 0x50 }
  - { offsetInCU: 0x3CC3B, offset: 0x3CC3B, size: 0x8, addend: 0x0, symName: __ZNSt3__16vectorINS0_IcNS_9allocatorIcEEEENS1_IS3_EEEC2ERKS5_, symObjAddr: 0x1C334, symBinAddr: 0x10001E024, symSize: 0x110 }
  - { offsetInCU: 0x3CC9A, offset: 0x3CC9A, size: 0x8, addend: 0x0, symName: __ZNSt3__116allocator_traitsINS_9allocatorINS_6vectorIcNS1_IcEEEEEEE37select_on_container_copy_constructionB7v160006IS5_vvEES5_RKS5_, symObjAddr: 0x1C444, symBinAddr: 0x10001E134, symSize: 0x10 }
  - { offsetInCU: 0x3CCC9, offset: 0x3CCC9, size: 0x8, addend: 0x0, symName: __ZNSt3__16vectorINS0_IcNS_9allocatorIcEEEENS1_IS3_EEE11__vallocateB7v160006Em, symObjAddr: 0x1C494, symBinAddr: 0x10001E184, symSize: 0xB4 }
  - { offsetInCU: 0x3CD0D, offset: 0x3CD0D, size: 0x8, addend: 0x0, symName: __ZNSt3__16vectorINS0_IcNS_9allocatorIcEEEENS1_IS3_EEE18__construct_at_endIPS3_Li0EEEvT_S8_m, symObjAddr: 0x1C548, symBinAddr: 0x10001E238, symSize: 0x8C }
  - { offsetInCU: 0x3CD80, offset: 0x3CD80, size: 0x8, addend: 0x0, symName: __ZNSt3__128__exception_guard_exceptionsINS_6vectorINS1_IcNS_9allocatorIcEEEENS2_IS4_EEE16__destroy_vectorEE10__completeB7v160006Ev, symObjAddr: 0x1C5D4, symBinAddr: 0x10001E2C4, symSize: 0x1C }
  - { offsetInCU: 0x3CDA6, offset: 0x3CDA6, size: 0x8, addend: 0x0, symName: __ZNSt3__128__exception_guard_exceptionsINS_6vectorINS1_IcNS_9allocatorIcEEEENS2_IS4_EEE16__destroy_vectorEED1B7v160006Ev, symObjAddr: 0x1C5F0, symBinAddr: 0x10001E2E0, symSize: 0x2C }
  - { offsetInCU: 0x3CDD0, offset: 0x3CDD0, size: 0x8, addend: 0x0, symName: __ZNSt3__128__exception_guard_exceptionsINS_6vectorINS1_IcNS_9allocatorIcEEEENS2_IS4_EEE16__destroy_vectorEEC1B7v160006ES7_, symObjAddr: 0x1C61C, symBinAddr: 0x10001E30C, symSize: 0x34 }
  - { offsetInCU: 0x3CE08, offset: 0x3CE08, size: 0x8, addend: 0x0, symName: __ZNSt3__128__exception_guard_exceptionsINS_6vectorINS1_IcNS_9allocatorIcEEEENS2_IS4_EEE16__destroy_vectorEEC2B7v160006ES7_, symObjAddr: 0x1C650, symBinAddr: 0x10001E340, symSize: 0x24 }
  - { offsetInCU: 0x3CE40, offset: 0x3CE40, size: 0x8, addend: 0x0, symName: __ZNSt3__129_AllocatorDestroyRangeReverseINS_9allocatorINS_6vectorIcNS1_IcEEEEEEPS4_EC1B7v160006ERS5_RS6_S9_, symObjAddr: 0x1C7B4, symBinAddr: 0x10001E4A4, symSize: 0x44 }
  - { offsetInCU: 0x3CE97, offset: 0x3CE97, size: 0x8, addend: 0x0, symName: __ZNSt3__116allocator_traitsINS_9allocatorINS_6vectorIcNS1_IcEEEEEEE9constructB7v160006IS4_JRS4_EvEEvRS5_PT_DpOT0_, symObjAddr: 0x1C7F8, symBinAddr: 0x10001E4E8, symSize: 0x34 }
  - { offsetInCU: 0x3CEEE, offset: 0x3CEEE, size: 0x8, addend: 0x0, symName: __ZNSt3__128__exception_guard_exceptionsINS_29_AllocatorDestroyRangeReverseINS_9allocatorINS_6vectorIcNS2_IcEEEEEEPS5_EEE10__completeB7v160006Ev, symObjAddr: 0x1C82C, symBinAddr: 0x10001E51C, symSize: 0x1C }
  - { offsetInCU: 0x3CF14, offset: 0x3CF14, size: 0x8, addend: 0x0, symName: __ZNSt3__128__exception_guard_exceptionsINS_29_AllocatorDestroyRangeReverseINS_9allocatorINS_6vectorIcNS2_IcEEEEEEPS5_EEED1B7v160006Ev, symObjAddr: 0x1C848, symBinAddr: 0x10001E538, symSize: 0x2C }
  - { offsetInCU: 0x3CF3E, offset: 0x3CF3E, size: 0x8, addend: 0x0, symName: __ZNSt3__128__exception_guard_exceptionsINS_29_AllocatorDestroyRangeReverseINS_9allocatorINS_6vectorIcNS2_IcEEEEEEPS5_EEEC1B7v160006ES8_, symObjAddr: 0x1C874, symBinAddr: 0x10001E564, symSize: 0x34 }
  - { offsetInCU: 0x3CF77, offset: 0x3CF77, size: 0x8, addend: 0x0, symName: __ZNSt3__128__exception_guard_exceptionsINS_29_AllocatorDestroyRangeReverseINS_9allocatorINS_6vectorIcNS2_IcEEEEEEPS5_EEEC2B7v160006ES8_, symObjAddr: 0x1C8A8, symBinAddr: 0x10001E598, symSize: 0x30 }
  - { offsetInCU: 0x3CFB0, offset: 0x3CFB0, size: 0x8, addend: 0x0, symName: __ZNSt3__129_AllocatorDestroyRangeReverseINS_9allocatorINS_6vectorIcNS1_IcEEEEEEPS4_EC2B7v160006ERS5_RS6_S9_, symObjAddr: 0x1C8D8, symBinAddr: 0x10001E5C8, symSize: 0x38 }
  - { offsetInCU: 0x3D007, offset: 0x3D007, size: 0x8, addend: 0x0, symName: __ZNSt3__19allocatorINS_6vectorIcNS0_IcEEEEE9constructB7v160006IS3_JRS3_EEEvPT_DpOT0_, symObjAddr: 0x1C910, symBinAddr: 0x10001E600, symSize: 0x30 }
  - { offsetInCU: 0x3D05D, offset: 0x3D05D, size: 0x8, addend: 0x0, symName: __ZNSt3__16vectorIcNS_9allocatorIcEEEC1ERKS3_, symObjAddr: 0x1C940, symBinAddr: 0x10001E630, symSize: 0x34 }
  - { offsetInCU: 0x3D098, offset: 0x3D098, size: 0x8, addend: 0x0, symName: __ZNSt3__16vectorIcNS_9allocatorIcEEEC2ERKS3_, symObjAddr: 0x1C974, symBinAddr: 0x10001E664, symSize: 0x110 }
  - { offsetInCU: 0x3D0F7, offset: 0x3D0F7, size: 0x8, addend: 0x0, symName: __ZNSt3__116allocator_traitsINS_9allocatorIcEEE37select_on_container_copy_constructionB7v160006IS2_vvEES2_RKS2_, symObjAddr: 0x1CA84, symBinAddr: 0x10001E774, symSize: 0x10 }
  - { offsetInCU: 0x3D126, offset: 0x3D126, size: 0x8, addend: 0x0, symName: __ZNSt3__16vectorIcNS_9allocatorIcEEE18__construct_at_endIPcLi0EEEvT_S6_m, symObjAddr: 0x1CA94, symBinAddr: 0x10001E784, symSize: 0x8C }
  - { offsetInCU: 0x3D199, offset: 0x3D199, size: 0x8, addend: 0x0, symName: __ZNSt3__129_AllocatorDestroyRangeReverseINS_9allocatorIcEEPcEC1B7v160006ERS2_RS3_S6_, symObjAddr: 0x1CC60, symBinAddr: 0x10001E950, symSize: 0x44 }
  - { offsetInCU: 0x3D1F0, offset: 0x3D1F0, size: 0x8, addend: 0x0, symName: __ZNSt3__116allocator_traitsINS_9allocatorIcEEE9constructB7v160006IcJRcEvEEvRS2_PT_DpOT0_, symObjAddr: 0x1CCA4, symBinAddr: 0x10001E994, symSize: 0x34 }
  - { offsetInCU: 0x3D247, offset: 0x3D247, size: 0x8, addend: 0x0, symName: __ZNSt3__128__exception_guard_exceptionsINS_29_AllocatorDestroyRangeReverseINS_9allocatorIcEEPcEEE10__completeB7v160006Ev, symObjAddr: 0x1CCD8, symBinAddr: 0x10001E9C8, symSize: 0x1C }
  - { offsetInCU: 0x3D26D, offset: 0x3D26D, size: 0x8, addend: 0x0, symName: __ZNSt3__128__exception_guard_exceptionsINS_29_AllocatorDestroyRangeReverseINS_9allocatorIcEEPcEEED1B7v160006Ev, symObjAddr: 0x1CCF4, symBinAddr: 0x10001E9E4, symSize: 0x2C }
  - { offsetInCU: 0x3D297, offset: 0x3D297, size: 0x8, addend: 0x0, symName: __ZNSt3__128__exception_guard_exceptionsINS_29_AllocatorDestroyRangeReverseINS_9allocatorIcEEPcEEEC1B7v160006ES5_, symObjAddr: 0x1CD20, symBinAddr: 0x10001EA10, symSize: 0x34 }
  - { offsetInCU: 0x3D2D0, offset: 0x3D2D0, size: 0x8, addend: 0x0, symName: __ZNSt3__128__exception_guard_exceptionsINS_29_AllocatorDestroyRangeReverseINS_9allocatorIcEEPcEEEC2B7v160006ES5_, symObjAddr: 0x1CD54, symBinAddr: 0x10001EA44, symSize: 0x30 }
  - { offsetInCU: 0x3D309, offset: 0x3D309, size: 0x8, addend: 0x0, symName: __ZNSt3__129_AllocatorDestroyRangeReverseINS_9allocatorIcEEPcEC2B7v160006ERS2_RS3_S6_, symObjAddr: 0x1CD84, symBinAddr: 0x10001EA74, symSize: 0x38 }
  - { offsetInCU: 0x3D360, offset: 0x3D360, size: 0x8, addend: 0x0, symName: __ZNSt3__19allocatorIcE9constructB7v160006IcJRcEEEvPT_DpOT0_, symObjAddr: 0x1CDBC, symBinAddr: 0x10001EAAC, symSize: 0x28 }
  - { offsetInCU: 0x3D3B6, offset: 0x3D3B6, size: 0x8, addend: 0x0, symName: __ZNSt3__128__exception_guard_exceptionsINS_29_AllocatorDestroyRangeReverseINS_9allocatorIcEEPcEEED2B7v160006Ev, symObjAddr: 0x1CDE4, symBinAddr: 0x10001EAD4, symSize: 0x50 }
  - { offsetInCU: 0x3D3E0, offset: 0x3D3E0, size: 0x8, addend: 0x0, symName: __ZNKSt3__129_AllocatorDestroyRangeReverseINS_9allocatorIcEEPcEclB7v160006Ev, symObjAddr: 0x1CE34, symBinAddr: 0x10001EB24, symSize: 0x68 }
  - { offsetInCU: 0x3D40B, offset: 0x3D40B, size: 0x8, addend: 0x0, symName: __ZNSt3__119__to_address_helperINS_16reverse_iteratorIPcEEvE6__callB7v160006ERKS3_, symObjAddr: 0x1CF30, symBinAddr: 0x10001EC20, symSize: 0x38 }
  - { offsetInCU: 0x3D42E, offset: 0x3D42E, size: 0x8, addend: 0x0, symName: __ZNKSt3__116reverse_iteratorIPcEptB7v160006Ev, symObjAddr: 0x1CF68, symBinAddr: 0x10001EC58, symSize: 0x24 }
  - { offsetInCU: 0x3D454, offset: 0x3D454, size: 0x8, addend: 0x0, symName: __ZNSt3__128__exception_guard_exceptionsINS_29_AllocatorDestroyRangeReverseINS_9allocatorINS_6vectorIcNS2_IcEEEEEEPS5_EEED2B7v160006Ev, symObjAddr: 0x1CF8C, symBinAddr: 0x10001EC7C, symSize: 0x50 }
  - { offsetInCU: 0x3D47E, offset: 0x3D47E, size: 0x8, addend: 0x0, symName: __ZNKSt3__129_AllocatorDestroyRangeReverseINS_9allocatorINS_6vectorIcNS1_IcEEEEEEPS4_EclB7v160006Ev, symObjAddr: 0x1CFDC, symBinAddr: 0x10001ECCC, symSize: 0x68 }
  - { offsetInCU: 0x3D4A4, offset: 0x3D4A4, size: 0x8, addend: 0x0, symName: __ZNSt3__128__exception_guard_exceptionsINS_6vectorINS1_IcNS_9allocatorIcEEEENS2_IS4_EEE16__destroy_vectorEED2B7v160006Ev, symObjAddr: 0x1D0B4, symBinAddr: 0x10001EDA4, symSize: 0x50 }
  - { offsetInCU: 0x3D4CE, offset: 0x3D4CE, size: 0x8, addend: 0x0, symName: __ZNSt3__16vectorI5PointNS_9allocatorIS1_EEEC2ERKS4_, symObjAddr: 0x1D104, symBinAddr: 0x10001EDF4, symSize: 0x110 }
  - { offsetInCU: 0x3D52D, offset: 0x3D52D, size: 0x8, addend: 0x0, symName: __ZNSt3__116allocator_traitsINS_9allocatorI5PointEEE37select_on_container_copy_constructionB7v160006IS3_vvEES3_RKS3_, symObjAddr: 0x1D214, symBinAddr: 0x10001EF04, symSize: 0x10 }
  - { offsetInCU: 0x3D55C, offset: 0x3D55C, size: 0x8, addend: 0x0, symName: __ZNSt3__16vectorI5PointNS_9allocatorIS1_EEE18__construct_at_endIPS1_Li0EEEvT_S7_m, symObjAddr: 0x1D224, symBinAddr: 0x10001EF14, symSize: 0x8C }
  - { offsetInCU: 0x3D5CF, offset: 0x3D5CF, size: 0x8, addend: 0x0, symName: __ZNSt3__116allocator_traitsINS_9allocatorI5PointEEE9constructB7v160006IS2_JRS2_EvEEvRS3_PT_DpOT0_, symObjAddr: 0x1D3A4, symBinAddr: 0x10001F094, symSize: 0x34 }
  - { offsetInCU: 0x3D626, offset: 0x3D626, size: 0x8, addend: 0x0, symName: __ZNSt3__19allocatorI5PointE9constructB7v160006IS1_JRS1_EEEvPT_DpOT0_, symObjAddr: 0x1D3D8, symBinAddr: 0x10001F0C8, symSize: 0x30 }
  - { offsetInCU: 0x3D67C, offset: 0x3D67C, size: 0x8, addend: 0x0, symName: __ZNSt3__113unordered_mapI5Pointc11PointHasherNS_8equal_toIS1_EENS_9allocatorINS_4pairIKS1_cEEEEEC2ERKSA_, symObjAddr: 0x1D408, symBinAddr: 0x10001F0F8, symSize: 0xA8 }
  - { offsetInCU: 0x3D6B7, offset: 0x3D6B7, size: 0x8, addend: 0x0, symName: __ZNSt3__112__hash_tableINS_17__hash_value_typeI5PointcEENS_22__unordered_map_hasherIS2_S3_11PointHasherNS_8equal_toIS2_EELb1EEENS_21__unordered_map_equalIS2_S3_S7_S5_Lb1EEENS_9allocatorIS3_EEEC1ERKSD_, symObjAddr: 0x1D4B0, symBinAddr: 0x10001F1A0, symSize: 0x34 }
  - { offsetInCU: 0x3D6F2, offset: 0x3D6F2, size: 0x8, addend: 0x0, symName: __ZNKSt3__113unordered_mapI5Pointc11PointHasherNS_8equal_toIS1_EENS_9allocatorINS_4pairIKS1_cEEEEE12bucket_countB7v160006Ev, symObjAddr: 0x1D4E4, symBinAddr: 0x10001F1D4, symSize: 0x24 }
  - { offsetInCU: 0x3D718, offset: 0x3D718, size: 0x8, addend: 0x0, symName: __ZNSt3__113unordered_mapI5Pointc11PointHasherNS_8equal_toIS1_EENS_9allocatorINS_4pairIKS1_cEEEEE6insertINS_25__hash_map_const_iteratorINS_21__hash_const_iteratorIPNS_11__hash_nodeINS_17__hash_value_typeIS1_cEEPvEEEEEEEEvT_SM_, symObjAddr: 0x1D508, symBinAddr: 0x10001F1F8, symSize: 0x70 }
  - { offsetInCU: 0x3D767, offset: 0x3D767, size: 0x8, addend: 0x0, symName: __ZNKSt3__113unordered_mapI5Pointc11PointHasherNS_8equal_toIS1_EENS_9allocatorINS_4pairIKS1_cEEEEE5beginB7v160006Ev, symObjAddr: 0x1D578, symBinAddr: 0x10001F268, symSize: 0x38 }
  - { offsetInCU: 0x3D78D, offset: 0x3D78D, size: 0x8, addend: 0x0, symName: __ZNKSt3__113unordered_mapI5Pointc11PointHasherNS_8equal_toIS1_EENS_9allocatorINS_4pairIKS1_cEEEEE3endB7v160006Ev, symObjAddr: 0x1D5B0, symBinAddr: 0x10001F2A0, symSize: 0x38 }
  - { offsetInCU: 0x3D7B3, offset: 0x3D7B3, size: 0x8, addend: 0x0, symName: __ZNSt3__112__hash_tableINS_17__hash_value_typeI5PointcEENS_22__unordered_map_hasherIS2_S3_11PointHasherNS_8equal_toIS2_EELb1EEENS_21__unordered_map_equalIS2_S3_S7_S5_Lb1EEENS_9allocatorIS3_EEEC2ERKSD_, symObjAddr: 0x1D5E8, symBinAddr: 0x10001F2D8, symSize: 0xEC }
  - { offsetInCU: 0x3D7EE, offset: 0x3D7EE, size: 0x8, addend: 0x0, symName: __ZNSt3__116allocator_traitsINS_9allocatorIPNS_16__hash_node_baseIPNS_11__hash_nodeINS_17__hash_value_typeI5PointcEEPvEEEEEEE37select_on_container_copy_constructionB7v160006ISC_vvEESC_RKSC_, symObjAddr: 0x1D6D4, symBinAddr: 0x10001F3C4, symSize: 0x10 }
  - { offsetInCU: 0x3D81D, offset: 0x3D81D, size: 0x8, addend: 0x0, symName: __ZNKSt3__125__bucket_list_deallocatorINS_9allocatorIPNS_16__hash_node_baseIPNS_11__hash_nodeINS_17__hash_value_typeI5PointcEEPvEEEEEEE7__allocB7v160006Ev, symObjAddr: 0x1D6E4, symBinAddr: 0x10001F3D4, symSize: 0x24 }
  - { offsetInCU: 0x3D843, offset: 0x3D843, size: 0x8, addend: 0x0, symName: __ZNSt3__125__bucket_list_deallocatorINS_9allocatorIPNS_16__hash_node_baseIPNS_11__hash_nodeINS_17__hash_value_typeI5PointcEEPvEEEEEEEC1B7v160006ERKSC_m, symObjAddr: 0x1D708, symBinAddr: 0x10001F3F8, symSize: 0x3C }
  - { offsetInCU: 0x3D88B, offset: 0x3D88B, size: 0x8, addend: 0x0, symName: __ZNSt3__110unique_ptrIA_PNS_16__hash_node_baseIPNS_11__hash_nodeINS_17__hash_value_typeI5PointcEEPvEEEENS_25__bucket_list_deallocatorINS_9allocatorISA_EEEEEC1B7v160006ILb1EvEEDnNS_16__dependent_typeINS_27__unique_ptr_deleter_sfinaeISF_EEXT_EE20__good_rval_ref_typeE, symObjAddr: 0x1D744, symBinAddr: 0x10001F434, symSize: 0x3C }
  - { offsetInCU: 0x3D8DA, offset: 0x3D8DA, size: 0x8, addend: 0x0, symName: __ZNSt3__116allocator_traitsINS_9allocatorINS_11__hash_nodeINS_17__hash_value_typeI5PointcEEPvEEEEE37select_on_container_copy_constructionB7v160006IS8_vvEES8_RKS8_, symObjAddr: 0x1D780, symBinAddr: 0x10001F470, symSize: 0x10 }
  - { offsetInCU: 0x3D909, offset: 0x3D909, size: 0x8, addend: 0x0, symName: __ZNKSt3__112__hash_tableINS_17__hash_value_typeI5PointcEENS_22__unordered_map_hasherIS2_S3_11PointHasherNS_8equal_toIS2_EELb1EEENS_21__unordered_map_equalIS2_S3_S7_S5_Lb1EEENS_9allocatorIS3_EEE12__node_allocB7v160006Ev, symObjAddr: 0x1D790, symBinAddr: 0x10001F480, symSize: 0x28 }
  - { offsetInCU: 0x3D935, offset: 0x3D935, size: 0x8, addend: 0x0, symName: __ZNSt3__117__compressed_pairINS_16__hash_node_baseIPNS_11__hash_nodeINS_17__hash_value_typeI5PointcEEPvEEEENS_9allocatorIS7_EEEC1B7v160006INS_18__default_init_tagESB_EEOT_OT0_, symObjAddr: 0x1D7B8, symBinAddr: 0x10001F4A8, symSize: 0x3C }
  - { offsetInCU: 0x3D98D, offset: 0x3D98D, size: 0x8, addend: 0x0, symName: __ZNKSt3__112__hash_tableINS_17__hash_value_typeI5PointcEENS_22__unordered_map_hasherIS2_S3_11PointHasherNS_8equal_toIS2_EELb1EEENS_21__unordered_map_equalIS2_S3_S7_S5_Lb1EEENS_9allocatorIS3_EEE13hash_functionB7v160006Ev, symObjAddr: 0x1D7F4, symBinAddr: 0x10001F4E4, symSize: 0x28 }
  - { offsetInCU: 0x3D9B3, offset: 0x3D9B3, size: 0x8, addend: 0x0, symName: __ZNSt3__117__compressed_pairImNS_22__unordered_map_hasherI5PointNS_17__hash_value_typeIS2_cEE11PointHasherNS_8equal_toIS2_EELb1EEEEC1B7v160006IiRKS8_EEOT_OT0_, symObjAddr: 0x1D81C, symBinAddr: 0x10001F50C, symSize: 0x3C }
  - { offsetInCU: 0x3DA0B, offset: 0x3DA0B, size: 0x8, addend: 0x0, symName: __ZNKSt3__117__compressed_pairImNS_9allocatorIPNS_16__hash_node_baseIPNS_11__hash_nodeINS_17__hash_value_typeI5PointcEEPvEEEEEEE6secondB7v160006Ev, symObjAddr: 0x1D858, symBinAddr: 0x10001F548, symSize: 0x24 }
  - { offsetInCU: 0x3DA31, offset: 0x3DA31, size: 0x8, addend: 0x0, symName: __ZNKSt3__122__compressed_pair_elemINS_9allocatorIPNS_16__hash_node_baseIPNS_11__hash_nodeINS_17__hash_value_typeI5PointcEEPvEEEEEELi1ELb1EE5__getB7v160006Ev, symObjAddr: 0x1D87C, symBinAddr: 0x10001F56C, symSize: 0x14 }
  - { offsetInCU: 0x3DA57, offset: 0x3DA57, size: 0x8, addend: 0x0, symName: __ZNSt3__125__bucket_list_deallocatorINS_9allocatorIPNS_16__hash_node_baseIPNS_11__hash_nodeINS_17__hash_value_typeI5PointcEEPvEEEEEEEC2B7v160006ERKSC_m, symObjAddr: 0x1D890, symBinAddr: 0x10001F580, symSize: 0x44 }
  - { offsetInCU: 0x3DA9F, offset: 0x3DA9F, size: 0x8, addend: 0x0, symName: __ZNSt3__117__compressed_pairImNS_9allocatorIPNS_16__hash_node_baseIPNS_11__hash_nodeINS_17__hash_value_typeI5PointcEEPvEEEEEEEC1B7v160006IRmRKSC_EEOT_OT0_, symObjAddr: 0x1D8D4, symBinAddr: 0x10001F5C4, symSize: 0x3C }
  - { offsetInCU: 0x3DAF7, offset: 0x3DAF7, size: 0x8, addend: 0x0, symName: __ZNSt3__117__compressed_pairImNS_9allocatorIPNS_16__hash_node_baseIPNS_11__hash_nodeINS_17__hash_value_typeI5PointcEEPvEEEEEEEC2B7v160006IRmRKSC_EEOT_OT0_, symObjAddr: 0x1D910, symBinAddr: 0x10001F600, symSize: 0x44 }
  - { offsetInCU: 0x3DB4F, offset: 0x3DB4F, size: 0x8, addend: 0x0, symName: __ZNSt3__122__compressed_pair_elemINS_9allocatorIPNS_16__hash_node_baseIPNS_11__hash_nodeINS_17__hash_value_typeI5PointcEEPvEEEEEELi1ELb1EEC2B7v160006IRKSC_vEEOT_, symObjAddr: 0x1D954, symBinAddr: 0x10001F644, symSize: 0x18 }
  - { offsetInCU: 0x3DB91, offset: 0x3DB91, size: 0x8, addend: 0x0, symName: __ZNSt3__110unique_ptrIA_PNS_16__hash_node_baseIPNS_11__hash_nodeINS_17__hash_value_typeI5PointcEEPvEEEENS_25__bucket_list_deallocatorINS_9allocatorISA_EEEEEC2B7v160006ILb1EvEEDnNS_16__dependent_typeINS_27__unique_ptr_deleter_sfinaeISF_EEXT_EE20__good_rval_ref_typeE, symObjAddr: 0x1D96C, symBinAddr: 0x10001F65C, symSize: 0x48 }
  - { offsetInCU: 0x3DBE0, offset: 0x3DBE0, size: 0x8, addend: 0x0, symName: __ZNSt3__117__compressed_pairIPPNS_16__hash_node_baseIPNS_11__hash_nodeINS_17__hash_value_typeI5PointcEEPvEEEENS_25__bucket_list_deallocatorINS_9allocatorISA_EEEEEC1B7v160006IDnSF_EEOT_OT0_, symObjAddr: 0x1D9B4, symBinAddr: 0x10001F6A4, symSize: 0x3C }
  - { offsetInCU: 0x3DC38, offset: 0x3DC38, size: 0x8, addend: 0x0, symName: __ZNSt3__117__compressed_pairIPPNS_16__hash_node_baseIPNS_11__hash_nodeINS_17__hash_value_typeI5PointcEEPvEEEENS_25__bucket_list_deallocatorINS_9allocatorISA_EEEEEC2B7v160006IDnSF_EEOT_OT0_, symObjAddr: 0x1D9F0, symBinAddr: 0x10001F6E0, symSize: 0x48 }
  - { offsetInCU: 0x3DC90, offset: 0x3DC90, size: 0x8, addend: 0x0, symName: __ZNSt3__122__compressed_pair_elemIPPNS_16__hash_node_baseIPNS_11__hash_nodeINS_17__hash_value_typeI5PointcEEPvEEEELi0ELb0EEC2B7v160006IDnvEEOT_, symObjAddr: 0x1DA38, symBinAddr: 0x10001F728, symSize: 0x1C }
  - { offsetInCU: 0x3DCD2, offset: 0x3DCD2, size: 0x8, addend: 0x0, symName: __ZNKSt3__117__compressed_pairINS_16__hash_node_baseIPNS_11__hash_nodeINS_17__hash_value_typeI5PointcEEPvEEEENS_9allocatorIS7_EEE6secondB7v160006Ev, symObjAddr: 0x1DA54, symBinAddr: 0x10001F744, symSize: 0x24 }
  - { offsetInCU: 0x3DCF8, offset: 0x3DCF8, size: 0x8, addend: 0x0, symName: __ZNKSt3__122__compressed_pair_elemINS_9allocatorINS_11__hash_nodeINS_17__hash_value_typeI5PointcEEPvEEEELi1ELb1EE5__getB7v160006Ev, symObjAddr: 0x1DA78, symBinAddr: 0x10001F768, symSize: 0x14 }
  - { offsetInCU: 0x3DD1E, offset: 0x3DD1E, size: 0x8, addend: 0x0, symName: __ZNSt3__117__compressed_pairINS_16__hash_node_baseIPNS_11__hash_nodeINS_17__hash_value_typeI5PointcEEPvEEEENS_9allocatorIS7_EEEC2B7v160006INS_18__default_init_tagESB_EEOT_OT0_, symObjAddr: 0x1DA8C, symBinAddr: 0x10001F77C, symSize: 0x40 }
  - { offsetInCU: 0x3DD76, offset: 0x3DD76, size: 0x8, addend: 0x0, symName: __ZNSt3__122__compressed_pair_elemINS_16__hash_node_baseIPNS_11__hash_nodeINS_17__hash_value_typeI5PointcEEPvEEEELi0ELb0EEC2B7v160006ENS_18__default_init_tagE, symObjAddr: 0x1DACC, symBinAddr: 0x10001F7BC, symSize: 0x2C }
  - { offsetInCU: 0x3DDAA, offset: 0x3DDAA, size: 0x8, addend: 0x0, symName: __ZNSt3__122__compressed_pair_elemINS_9allocatorINS_11__hash_nodeINS_17__hash_value_typeI5PointcEEPvEEEELi1ELb1EEC2B7v160006IS8_vEEOT_, symObjAddr: 0x1DAF8, symBinAddr: 0x10001F7E8, symSize: 0x18 }
  - { offsetInCU: 0x3DDEC, offset: 0x3DDEC, size: 0x8, addend: 0x0, symName: __ZNKSt3__117__compressed_pairImNS_22__unordered_map_hasherI5PointNS_17__hash_value_typeIS2_cEE11PointHasherNS_8equal_toIS2_EELb1EEEE6secondB7v160006Ev, symObjAddr: 0x1DB10, symBinAddr: 0x10001F800, symSize: 0x24 }
  - { offsetInCU: 0x3DE12, offset: 0x3DE12, size: 0x8, addend: 0x0, symName: __ZNKSt3__122__compressed_pair_elemINS_22__unordered_map_hasherI5PointNS_17__hash_value_typeIS2_cEE11PointHasherNS_8equal_toIS2_EELb1EEELi1ELb1EE5__getB7v160006Ev, symObjAddr: 0x1DB34, symBinAddr: 0x10001F824, symSize: 0x14 }
  - { offsetInCU: 0x3DE38, offset: 0x3DE38, size: 0x8, addend: 0x0, symName: __ZNSt3__117__compressed_pairImNS_22__unordered_map_hasherI5PointNS_17__hash_value_typeIS2_cEE11PointHasherNS_8equal_toIS2_EELb1EEEEC2B7v160006IiRKS8_EEOT_OT0_, symObjAddr: 0x1DB48, symBinAddr: 0x10001F838, symSize: 0x44 }
  - { offsetInCU: 0x3DE90, offset: 0x3DE90, size: 0x8, addend: 0x0, symName: __ZNSt3__122__compressed_pair_elemINS_22__unordered_map_hasherI5PointNS_17__hash_value_typeIS2_cEE11PointHasherNS_8equal_toIS2_EELb1EEELi1ELb1EEC2B7v160006IRKS8_vEEOT_, symObjAddr: 0x1DB8C, symBinAddr: 0x10001F87C, symSize: 0x18 }
  - { offsetInCU: 0x3DED2, offset: 0x3DED2, size: 0x8, addend: 0x0, symName: __ZNSt3__112__hash_tableINS_17__hash_value_typeI5PointcEENS_22__unordered_map_hasherIS2_S3_11PointHasherNS_8equal_toIS2_EELb1EEENS_21__unordered_map_equalIS2_S3_S7_S5_Lb1EEENS_9allocatorIS3_EEE15__insert_uniqueB7v160006ERKNS_4pairIKS2_cEE, symObjAddr: 0x1DBD4, symBinAddr: 0x10001F8C4, symSize: 0x50 }
  - { offsetInCU: 0x3DF07, offset: 0x3DF07, size: 0x8, addend: 0x0, symName: __ZNKSt3__125__hash_map_const_iteratorINS_21__hash_const_iteratorIPNS_11__hash_nodeINS_17__hash_value_typeI5PointcEEPvEEEEEdeB7v160006Ev, symObjAddr: 0x1DC24, symBinAddr: 0x10001F914, symSize: 0x28 }
  - { offsetInCU: 0x3DF2D, offset: 0x3DF2D, size: 0x8, addend: 0x0, symName: __ZNSt3__125__hash_map_const_iteratorINS_21__hash_const_iteratorIPNS_11__hash_nodeINS_17__hash_value_typeI5PointcEEPvEEEEEppB7v160006Ev, symObjAddr: 0x1DC4C, symBinAddr: 0x10001F93C, symSize: 0x2C }
  - { offsetInCU: 0x3DF53, offset: 0x3DF53, size: 0x8, addend: 0x0, symName: __ZNSt3__112__hash_tableINS_17__hash_value_typeI5PointcEENS_22__unordered_map_hasherIS2_S3_11PointHasherNS_8equal_toIS2_EELb1EEENS_21__unordered_map_equalIS2_S3_S7_S5_Lb1EEENS_9allocatorIS3_EEE25__emplace_unique_key_argsIS2_JRKNS_4pairIKS2_cEEEEENSF_INS_15__hash_iteratorIPNS_11__hash_nodeIS3_PvEEEEbEERKT_DpOT0_, symObjAddr: 0x1DCDC, symBinAddr: 0x10001F9CC, symSize: 0x488 }
  - { offsetInCU: 0x3E033, offset: 0x3E033, size: 0x8, addend: 0x0, symName: __ZNSt3__122__hash_key_value_typesINS_17__hash_value_typeI5PointcEEE9__get_keyB7v160006ERKNS_4pairIKS2_cEE, symObjAddr: 0x1E164, symBinAddr: 0x10001FE54, symSize: 0x14 }
  - { offsetInCU: 0x3E056, offset: 0x3E056, size: 0x8, addend: 0x0, symName: __ZNSt3__112__hash_tableINS_17__hash_value_typeI5PointcEENS_22__unordered_map_hasherIS2_S3_11PointHasherNS_8equal_toIS2_EELb1EEENS_21__unordered_map_equalIS2_S3_S7_S5_Lb1EEENS_9allocatorIS3_EEE21__construct_node_hashIRKNS_4pairIKS2_cEEJEEENS_10unique_ptrINS_11__hash_nodeIS3_PvEENS_22__hash_node_destructorINSB_ISN_EEEEEEmOT_DpOT0_, symObjAddr: 0x1E178, symBinAddr: 0x10001FE68, symSize: 0x140 }
  - { offsetInCU: 0x3E0C9, offset: 0x3E0C9, size: 0x8, addend: 0x0, symName: __ZNSt3__116allocator_traitsINS_9allocatorINS_11__hash_nodeINS_17__hash_value_typeI5PointcEEPvEEEEE9constructB7v160006INS_4pairIKS4_cEEJRKSD_EvEEvRS8_PT_DpOT0_, symObjAddr: 0x1E2B8, symBinAddr: 0x10001FFA8, symSize: 0x34 }
  - { offsetInCU: 0x3E120, offset: 0x3E120, size: 0x8, addend: 0x0, symName: __ZNSt3__19allocatorINS_11__hash_nodeINS_17__hash_value_typeI5PointcEEPvEEE9constructB7v160006INS_4pairIKS3_cEEJRKSB_EEEvPT_DpOT0_, symObjAddr: 0x1E2EC, symBinAddr: 0x10001FFDC, symSize: 0x30 }
  - { offsetInCU: 0x3E176, offset: 0x3E176, size: 0x8, addend: 0x0, symName: __ZNSt3__14pairIK5PointcEC1ERKS3_, symObjAddr: 0x1E31C, symBinAddr: 0x10002000C, symSize: 0x34 }
  - { offsetInCU: 0x3E1AA, offset: 0x3E1AA, size: 0x8, addend: 0x0, symName: __ZNSt3__14pairIK5PointcEC2ERKS3_, symObjAddr: 0x1E350, symBinAddr: 0x100020040, symSize: 0x40 }
  - { offsetInCU: 0x3E1DE, offset: 0x3E1DE, size: 0x8, addend: 0x0, symName: __ZNKSt3__121__hash_const_iteratorIPNS_11__hash_nodeINS_17__hash_value_typeI5PointcEEPvEEEptB7v160006Ev, symObjAddr: 0x1E390, symBinAddr: 0x100020080, symSize: 0x30 }
  - { offsetInCU: 0x3E204, offset: 0x3E204, size: 0x8, addend: 0x0, symName: __ZNSt3__114pointer_traitsIPKNS_17__hash_value_typeI5PointcEEE10pointer_toB7v160006ERS4_, symObjAddr: 0x1E3C0, symBinAddr: 0x1000200B0, symSize: 0x14 }
  - { offsetInCU: 0x3E227, offset: 0x3E227, size: 0x8, addend: 0x0, symName: __ZNSt3__121__hash_const_iteratorIPNS_11__hash_nodeINS_17__hash_value_typeI5PointcEEPvEEEppB7v160006Ev, symObjAddr: 0x1E3D4, symBinAddr: 0x1000200C4, symSize: 0x20 }
  - { offsetInCU: 0x3E24D, offset: 0x3E24D, size: 0x8, addend: 0x0, symName: __ZNKSt3__112__hash_tableINS_17__hash_value_typeI5PointcEENS_22__unordered_map_hasherIS2_S3_11PointHasherNS_8equal_toIS2_EELb1EEENS_21__unordered_map_equalIS2_S3_S7_S5_Lb1EEENS_9allocatorIS3_EEE5beginEv, symObjAddr: 0x1E3F4, symBinAddr: 0x1000200E4, symSize: 0x40 }
  - { offsetInCU: 0x3E275, offset: 0x3E275, size: 0x8, addend: 0x0, symName: __ZNSt3__125__hash_map_const_iteratorINS_21__hash_const_iteratorIPNS_11__hash_nodeINS_17__hash_value_typeI5PointcEEPvEEEEEC1B7v160006ES9_, symObjAddr: 0x1E434, symBinAddr: 0x100020124, symSize: 0x34 }
  - { offsetInCU: 0x3E2AE, offset: 0x3E2AE, size: 0x8, addend: 0x0, symName: __ZNKSt3__117__compressed_pairINS_16__hash_node_baseIPNS_11__hash_nodeINS_17__hash_value_typeI5PointcEEPvEEEENS_9allocatorIS7_EEE5firstB7v160006Ev, symObjAddr: 0x1E468, symBinAddr: 0x100020158, symSize: 0x24 }
  - { offsetInCU: 0x3E2D4, offset: 0x3E2D4, size: 0x8, addend: 0x0, symName: __ZNSt3__121__hash_const_iteratorIPNS_11__hash_nodeINS_17__hash_value_typeI5PointcEEPvEEEC1B7v160006EPNS_16__hash_node_baseIS7_EEPKv, symObjAddr: 0x1E48C, symBinAddr: 0x10002017C, symSize: 0x3C }
  - { offsetInCU: 0x3E31C, offset: 0x3E31C, size: 0x8, addend: 0x0, symName: __ZNKSt3__122__compressed_pair_elemINS_16__hash_node_baseIPNS_11__hash_nodeINS_17__hash_value_typeI5PointcEEPvEEEELi0ELb0EE5__getB7v160006Ev, symObjAddr: 0x1E4C8, symBinAddr: 0x1000201B8, symSize: 0x14 }
  - { offsetInCU: 0x3E342, offset: 0x3E342, size: 0x8, addend: 0x0, symName: __ZNSt3__121__hash_const_iteratorIPNS_11__hash_nodeINS_17__hash_value_typeI5PointcEEPvEEEC2B7v160006EPNS_16__hash_node_baseIS7_EEPKv, symObjAddr: 0x1E4DC, symBinAddr: 0x1000201CC, symSize: 0x24 }
  - { offsetInCU: 0x3E38A, offset: 0x3E38A, size: 0x8, addend: 0x0, symName: __ZNSt3__125__hash_map_const_iteratorINS_21__hash_const_iteratorIPNS_11__hash_nodeINS_17__hash_value_typeI5PointcEEPvEEEEEC2B7v160006ES9_, symObjAddr: 0x1E500, symBinAddr: 0x1000201F0, symSize: 0x20 }
  - { offsetInCU: 0x3E3C3, offset: 0x3E3C3, size: 0x8, addend: 0x0, symName: __ZNKSt3__112__hash_tableINS_17__hash_value_typeI5PointcEENS_22__unordered_map_hasherIS2_S3_11PointHasherNS_8equal_toIS2_EELb1EEENS_21__unordered_map_equalIS2_S3_S7_S5_Lb1EEENS_9allocatorIS3_EEE3endEv, symObjAddr: 0x1E520, symBinAddr: 0x100020210, symSize: 0x30 }
  - { offsetInCU: 0x3E3EB, offset: 0x3E3EB, size: 0x8, addend: 0x0, symName: __ZN6PlayerC2ERKS_, symObjAddr: 0x1E550, symBinAddr: 0x100020240, symSize: 0x34 }
  - { offsetInCU: 0x3E425, offset: 0x3E425, size: 0x8, addend: 0x0, symName: __ZNSt3__119__to_address_helperINS_16reverse_iteratorIP4RoomEEvE6__callB7v160006ERKS4_, symObjAddr: 0x1E584, symBinAddr: 0x100020274, symSize: 0x38 }
  - { offsetInCU: 0x3E448, offset: 0x3E448, size: 0x8, addend: 0x0, symName: __ZNKSt3__116reverse_iteratorIP4RoomEptB7v160006Ev, symObjAddr: 0x1E5BC, symBinAddr: 0x1000202AC, symSize: 0x24 }
  - { offsetInCU: 0x3E46E, offset: 0x3E46E, size: 0x8, addend: 0x0, symName: __ZNSt3__128__exception_guard_exceptionsINS_29_AllocatorDestroyRangeReverseINS_9allocatorI4RoomEENS_16reverse_iteratorIPS3_EEEEED2B7v160006Ev, symObjAddr: 0x1E5E0, symBinAddr: 0x1000202D0, symSize: 0x50 }
  - { offsetInCU: 0x3E498, offset: 0x3E498, size: 0x8, addend: 0x0, symName: __ZNKSt3__129_AllocatorDestroyRangeReverseINS_9allocatorI4RoomEENS_16reverse_iteratorIPS2_EEEclB7v160006Ev, symObjAddr: 0x1E630, symBinAddr: 0x100020320, symSize: 0xB4 }
  - { offsetInCU: 0x3E4BF, offset: 0x3E4BF, size: 0x8, addend: 0x0, symName: __ZNSt3__116reverse_iteratorINS0_IP4RoomEEEC1B7v160006ES3_, symObjAddr: 0x1E754, symBinAddr: 0x100020444, symSize: 0x3C }
  - { offsetInCU: 0x3E4F7, offset: 0x3E4F7, size: 0x8, addend: 0x0, symName: __ZNSt3__116reverse_iteratorINS0_IP4RoomEEEppB7v160006Ev, symObjAddr: 0x1E814, symBinAddr: 0x100020504, symSize: 0x30 }
  - { offsetInCU: 0x3E51D, offset: 0x3E51D, size: 0x8, addend: 0x0, symName: __ZNKSt3__116reverse_iteratorINS0_IP4RoomEEE4baseB7v160006Ev, symObjAddr: 0x1E844, symBinAddr: 0x100020534, symSize: 0x24 }
  - { offsetInCU: 0x3E548, offset: 0x3E548, size: 0x8, addend: 0x0, symName: __ZNSt3__119__to_address_helperINS_16reverse_iteratorINS1_IP4RoomEEEEvE6__callB7v160006ERKS5_, symObjAddr: 0x1E868, symBinAddr: 0x100020558, symSize: 0x38 }
  - { offsetInCU: 0x3E56B, offset: 0x3E56B, size: 0x8, addend: 0x0, symName: __ZNKSt3__116reverse_iteratorINS0_IP4RoomEEEptB7v160006Ev, symObjAddr: 0x1E8A0, symBinAddr: 0x100020590, symSize: 0x24 }
  - { offsetInCU: 0x3E591, offset: 0x3E591, size: 0x8, addend: 0x0, symName: __ZNKSt3__116reverse_iteratorINS0_IP4RoomEEEdeB7v160006Ev, symObjAddr: 0x1E8C4, symBinAddr: 0x1000205B4, symSize: 0x34 }
  - { offsetInCU: 0x3E5C5, offset: 0x3E5C5, size: 0x8, addend: 0x0, symName: __ZNSt3__116reverse_iteratorIP4RoomEmmB7v160006Ev, symObjAddr: 0x1E8F8, symBinAddr: 0x1000205E8, symSize: 0x20 }
  - { offsetInCU: 0x3E5EB, offset: 0x3E5EB, size: 0x8, addend: 0x0, symName: __ZNSt3__116reverse_iteratorINS0_IP4RoomEEEC2B7v160006ES3_, symObjAddr: 0x1E918, symBinAddr: 0x100020608, symSize: 0x2C }
  - { offsetInCU: 0x3E623, offset: 0x3E623, size: 0x8, addend: 0x0, symName: __ZNSt3__116reverse_iteratorIP4RoomEC2B7v160006ES2_, symObjAddr: 0x1E944, symBinAddr: 0x100020634, symSize: 0x28 }
  - { offsetInCU: 0x3E65B, offset: 0x3E65B, size: 0x8, addend: 0x0, symName: __ZNSt3__114__split_bufferI4RoomRNS_9allocatorIS1_EEED2Ev, symObjAddr: 0x1E96C, symBinAddr: 0x10002065C, symSize: 0x8C }
  - { offsetInCU: 0x3E687, offset: 0x3E687, size: 0x8, addend: 0x0, symName: __ZNSt3__114__split_bufferI4RoomRNS_9allocatorIS1_EEE5clearB7v160006Ev, symObjAddr: 0x1E9F8, symBinAddr: 0x1000206E8, symSize: 0x28 }
  - { offsetInCU: 0x3E6AD, offset: 0x3E6AD, size: 0x8, addend: 0x0, symName: __ZNKSt3__114__split_bufferI4RoomRNS_9allocatorIS1_EEE8capacityB7v160006Ev, symObjAddr: 0x1EA20, symBinAddr: 0x100020710, symSize: 0x40 }
  - { offsetInCU: 0x3E6D3, offset: 0x3E6D3, size: 0x8, addend: 0x0, symName: __ZNSt3__114__split_bufferI4RoomRNS_9allocatorIS1_EEE17__destruct_at_endB7v160006EPS1_, symObjAddr: 0x1EA60, symBinAddr: 0x100020750, symSize: 0x2C }
  - { offsetInCU: 0x3E707, offset: 0x3E707, size: 0x8, addend: 0x0, symName: __ZNSt3__114__split_bufferI4RoomRNS_9allocatorIS1_EEE17__destruct_at_endB7v160006EPS1_NS_17integral_constantIbLb0EEE, symObjAddr: 0x1EA8C, symBinAddr: 0x10002077C, symSize: 0x80 }
  - { offsetInCU: 0x3E747, offset: 0x3E747, size: 0x8, addend: 0x0, symName: __ZNKSt3__114__split_bufferI4RoomRNS_9allocatorIS1_EEE9__end_capB7v160006Ev, symObjAddr: 0x1EB0C, symBinAddr: 0x1000207FC, symSize: 0x28 }
  - { offsetInCU: 0x3E76D, offset: 0x3E76D, size: 0x8, addend: 0x0, symName: __ZNKSt3__117__compressed_pairIP4RoomRNS_9allocatorIS1_EEE5firstB7v160006Ev, symObjAddr: 0x1EB34, symBinAddr: 0x100020824, symSize: 0x24 }
  - { offsetInCU: 0x3E793, offset: 0x3E793, size: 0x8, addend: 0x0, symName: __ZN4RoomC2ERKiS1_RKcPS_, symObjAddr: 0x1EB58, symBinAddr: 0x100020848, symSize: 0x138 }
  - { offsetInCU: 0x3E7F5, offset: 0x3E7F5, size: 0x8, addend: 0x0, symName: __ZNSt3__113unordered_mapIiP4RoomNS_4hashIiEENS_8equal_toIiEENS_9allocatorINS_4pairIKiS2_EEEEEixEOi, symObjAddr: 0x1EC90, symBinAddr: 0x100020980, symSize: 0x80 }
  - { offsetInCU: 0x3E82C, offset: 0x3E82C, size: 0x8, addend: 0x0, symName: __ZNSt3__112__hash_tableINS_17__hash_value_typeIiP4RoomEENS_22__unordered_map_hasherIiS4_NS_4hashIiEENS_8equal_toIiEELb1EEENS_21__unordered_map_equalIiS4_S9_S7_Lb1EEENS_9allocatorIS4_EEE25__emplace_unique_key_argsIiJRKNS_21piecewise_construct_tENS_5tupleIJOiEEENSK_IJEEEEEENS_4pairINS_15__hash_iteratorIPNS_11__hash_nodeIS4_PvEEEEbEERKT_DpOT0_, symObjAddr: 0x1ED10, symBinAddr: 0x100020A00, symSize: 0x498 }
  - { offsetInCU: 0x3E936, offset: 0x3E936, size: 0x8, addend: 0x0, symName: __ZNSt3__112__hash_tableINS_17__hash_value_typeIiP4RoomEENS_22__unordered_map_hasherIiS4_NS_4hashIiEENS_8equal_toIiEELb1EEENS_21__unordered_map_equalIiS4_S9_S7_Lb1EEENS_9allocatorIS4_EEE21__construct_node_hashIRKNS_21piecewise_construct_tEJNS_5tupleIJOiEEENSK_IJEEEEEENS_10unique_ptrINS_11__hash_nodeIS4_PvEENS_22__hash_node_destructorINSD_ISR_EEEEEEmOT_DpOT0_, symObjAddr: 0x1F1D4, symBinAddr: 0x100020EC4, symSize: 0x150 }
  - { offsetInCU: 0x3E9D2, offset: 0x3E9D2, size: 0x8, addend: 0x0, symName: __ZNSt3__116allocator_traitsINS_9allocatorINS_11__hash_nodeINS_17__hash_value_typeIiP4RoomEEPvEEEEE9constructB7v160006INS_4pairIKiS5_EEJRKNS_21piecewise_construct_tENS_5tupleIJOiEEENSI_IJEEEEvEEvRS9_PT_DpOT0_, symObjAddr: 0x1F324, symBinAddr: 0x100021014, symSize: 0x44 }
  - { offsetInCU: 0x3EA51, offset: 0x3EA51, size: 0x8, addend: 0x0, symName: __ZNSt3__19allocatorINS_11__hash_nodeINS_17__hash_value_typeIiP4RoomEEPvEEE9constructB7v160006INS_4pairIKiS4_EEJRKNS_21piecewise_construct_tENS_5tupleIJOiEEENSG_IJEEEEEEvPT_DpOT0_, symObjAddr: 0x1F368, symBinAddr: 0x100021058, symSize: 0x44 }
  - { offsetInCU: 0x3EACD, offset: 0x3EACD, size: 0x8, addend: 0x0, symName: __ZNSt3__14pairIKiP4RoomEC1B7v160006IJOiEJEEENS_21piecewise_construct_tENS_5tupleIJDpT_EEENS8_IJDpT0_EEE, symObjAddr: 0x1F3AC, symBinAddr: 0x10002109C, symSize: 0x44 }
  - { offsetInCU: 0x3EB34, offset: 0x3EB34, size: 0x8, addend: 0x0, symName: __ZNSt3__14pairIKiP4RoomEC1B7v160006IJOiEJEJLm0EEJEEENS_21piecewise_construct_tERNS_5tupleIJDpT_EEERNS8_IJDpT0_EEENS_15__tuple_indicesIJXspT1_EEEENSH_IJXspT2_EEEE, symObjAddr: 0x1F3F0, symBinAddr: 0x1000210E0, symSize: 0x3C }
  - { offsetInCU: 0x3EBC1, offset: 0x3EBC1, size: 0x8, addend: 0x0, symName: __ZNSt3__14pairIKiP4RoomEC2B7v160006IJOiEJEJLm0EEJEEENS_21piecewise_construct_tERNS_5tupleIJDpT_EEERNS8_IJDpT0_EEENS_15__tuple_indicesIJXspT1_EEEENSH_IJXspT2_EEEE, symObjAddr: 0x1F42C, symBinAddr: 0x10002111C, symSize: 0x48 }
  - { offsetInCU: 0x3EC4E, offset: 0x3EC4E, size: 0x8, addend: 0x0, symName: __ZNSt3__112__tuple_leafILm0EOiLb0EE3getB7v160006Ev, symObjAddr: 0x1F498, symBinAddr: 0x100021188, symSize: 0x18 }
  - { offsetInCU: 0x3EC74, offset: 0x3EC74, size: 0x8, addend: 0x0, symName: __ZNSt3__15tupleIJOiEEC1B7v160006IJiELi0EEEDpOT_, symObjAddr: 0x1F4B0, symBinAddr: 0x1000211A0, symSize: 0x34 }
  - { offsetInCU: 0x3ECBE, offset: 0x3ECBE, size: 0x8, addend: 0x0, symName: __ZNSt3__15tupleIJOiEEC2B7v160006IJiELi0EEEDpOT_, symObjAddr: 0x1F4E4, symBinAddr: 0x1000211D4, symSize: 0x34 }
  - { offsetInCU: 0x3ED08, offset: 0x3ED08, size: 0x8, addend: 0x0, symName: __ZNSt3__112__tuple_implINS_15__tuple_indicesIJLm0EEEEJOiEEC1B7v160006IJLm0EEJS3_EJEJEJiEEENS1_IJXspT_EEEENS_13__tuple_typesIJDpT0_EEENS1_IJXspT1_EEEENS7_IJDpT2_EEEDpOT3_, symObjAddr: 0x1F518, symBinAddr: 0x100021208, symSize: 0x34 }
  - { offsetInCU: 0x3ED99, offset: 0x3ED99, size: 0x8, addend: 0x0, symName: __ZNSt3__112__tuple_implINS_15__tuple_indicesIJLm0EEEEJOiEEC2B7v160006IJLm0EEJS3_EJEJEJiEEENS1_IJXspT_EEEENS_13__tuple_typesIJDpT0_EEENS1_IJXspT1_EEEENS7_IJDpT2_EEEDpOT3_, symObjAddr: 0x1F54C, symBinAddr: 0x10002123C, symSize: 0x34 }
  - { offsetInCU: 0x3EE2A, offset: 0x3EE2A, size: 0x8, addend: 0x0, symName: __ZNSt3__112__tuple_leafILm0EOiLb0EEC2B7v160006IivEEOT_, symObjAddr: 0x1F580, symBinAddr: 0x100021270, symSize: 0x20 }
  - { offsetInCU: 0x3EE6D, offset: 0x3EE6D, size: 0x8, addend: 0x0, symName: __ZNSt3__113unordered_mapIccNS_4hashIcEENS_8equal_toIcEENS_9allocatorINS_4pairIKccEEEEED2B7v160006Ev, symObjAddr: 0x1F5A0, symBinAddr: 0x100021290, symSize: 0x2C }
  - { offsetInCU: 0x3EE97, offset: 0x3EE97, size: 0x8, addend: 0x0, symName: __ZN4RoomD2Ev, symObjAddr: 0x1F5CC, symBinAddr: 0x1000212BC, symSize: 0x60 }
...
